---
triple:          'arm64-apple-darwin'
binary-path:     project1
relocations:
  - { offsetInCU: 0x11BE5, offset: 0x11BE5, size: 0x8, addend: 0x0, symName: __ZNSt3__124__put_character_sequenceB8ue170006IcNS_11char_traitsIcEEEERNS_13basic_ostreamIT_T0_EES7_PKS4_m, symObjAddr: 0x2E78, symBinAddr: 0x1000056A4, symSize: 0x1EC }
  - { offsetInCU: 0x1513B, offset: 0x1513B, size: 0x8, addend: 0x0, symName: __ZNSt3__1neB8ue170006IP5TokenEEbRKNS_11__wrap_iterIT_EES7_, symObjAddr: 0xB08, symBinAddr: 0x100003334, symSize: 0x34 }
  - { offsetInCU: 0x1517E, offset: 0x1517E, size: 0x8, addend: 0x0, symName: __ZNSt3__1lsB8ue170006IcNS_11char_traitsIcEENS_9allocatorIcEEEERNS_13basic_ostreamIT_T0_EES9_RKNS_12basic_stringIS6_S7_T1_EE, symObjAddr: 0xB54, symBinAddr: 0x100003380, symSize: 0x4C }
  - { offsetInCU: 0x151D6, offset: 0x151D6, size: 0x8, addend: 0x0, symName: __ZNSt3__14endlB8ue170006IcNS_11char_traitsIcEEEERNS_13basic_ostreamIT_T0_EES7_, symObjAddr: 0xD50, symBinAddr: 0x10000357C, symSize: 0x58 }
  - { offsetInCU: 0x15216, offset: 0x15216, size: 0x8, addend: 0x0, symName: __ZNSt3__1lsB8ue170006INS_11char_traitsIcEEEERNS_13basic_ostreamIcT_EES6_PKc, symObjAddr: 0xDC8, symBinAddr: 0x1000035F4, symSize: 0x48 }
  - { offsetInCU: 0x1525C, offset: 0x1525C, size: 0x8, addend: 0x0, symName: __ZNSt3__112__to_addressB8ue170006IcEEPT_S2_, symObjAddr: 0x1AE4, symBinAddr: 0x100004310, symSize: 0x14 }
  - { offsetInCU: 0x15291, offset: 0x15291, size: 0x8, addend: 0x0, symName: __ZNSt3__1neB8ue170006IPcEEbRKNS_11__wrap_iterIT_EES6_, symObjAddr: 0x2920, symBinAddr: 0x10000514C, symSize: 0x34 }
  - { offsetInCU: 0x152D4, offset: 0x152D4, size: 0x8, addend: 0x0, symName: __ZNSt3__1lsB8ue170006INS_11char_traitsIcEEEERNS_13basic_ostreamIcT_EES6_c, symObjAddr: 0x2994, symBinAddr: 0x1000051C0, symSize: 0x34 }
  - { offsetInCU: 0x1531A, offset: 0x1531A, size: 0x8, addend: 0x0, symName: __ZNSt3__1eqB8ue170006IcNS_11char_traitsIcEENS_9allocatorIcEEEEbRKNS_12basic_stringIT_T0_T1_EEPKS6_, symObjAddr: 0x2A1C, symBinAddr: 0x100005248, symSize: 0xAC }
  - { offsetInCU: 0x153B4, offset: 0x153B4, size: 0x8, addend: 0x0, symName: __ZNSt3__1eqB8ue170006IPcEEbRKNS_11__wrap_iterIT_EES6_, symObjAddr: 0x2E18, symBinAddr: 0x100005644, symSize: 0x48 }
  - { offsetInCU: 0x153F7, offset: 0x153F7, size: 0x8, addend: 0x0, symName: __ZNSt3__116__pad_and_outputB8ue170006IcNS_11char_traitsIcEEEENS_19ostreambuf_iteratorIT_T0_EES6_PKS4_S8_S8_RNS_8ios_baseES4_, symObjAddr: 0x3080, symBinAddr: 0x1000058AC, symSize: 0x240 }
  - { offsetInCU: 0x154C6, offset: 0x154C6, size: 0x8, addend: 0x0, symName: __ZNSt3__19use_facetB8ue170006INS_5ctypeIcEEEERKT_RKNS_6localeE, symObjAddr: 0x3634, symBinAddr: 0x100005E60, symSize: 0x2C }
  - { offsetInCU: 0x15993, offset: 0x15993, size: 0x8, addend: 0x0, symName: __ZNSt3__119__libcpp_deallocateB8ue170006EPvmm, symObjAddr: 0x3924, symBinAddr: 0x100006150, symSize: 0x60 }
  - { offsetInCU: 0x159F8, offset: 0x159F8, size: 0x8, addend: 0x0, symName: __ZNSt3__124__is_overaligned_for_newB8ue170006Em, symObjAddr: 0x3984, symBinAddr: 0x1000061B0, symSize: 0x20 }
  - { offsetInCU: 0x15A26, offset: 0x15A26, size: 0x8, addend: 0x0, symName: __ZNSt3__127__do_deallocate_handle_sizeB8ue170006IJSt11align_val_tEEEvPvmDpT_, symObjAddr: 0x39A4, symBinAddr: 0x1000061D0, symSize: 0x30 }
  - { offsetInCU: 0x15A79, offset: 0x15A79, size: 0x8, addend: 0x0, symName: __ZNSt3__127__do_deallocate_handle_sizeB8ue170006IJEEEvPvmDpT_, symObjAddr: 0x39D4, symBinAddr: 0x100006200, symSize: 0x28 }
  - { offsetInCU: 0x15AB7, offset: 0x15AB7, size: 0x8, addend: 0x0, symName: __ZNSt3__124__libcpp_operator_deleteB8ue170006IJPvSt11align_val_tEEEvDpT_, symObjAddr: 0x39FC, symBinAddr: 0x100006228, symSize: 0x2C }
  - { offsetInCU: 0x15B00, offset: 0x15B00, size: 0x8, addend: 0x0, symName: __ZNSt3__124__libcpp_operator_deleteB8ue170006IJPvEEEvDpT_, symObjAddr: 0x3A28, symBinAddr: 0x100006254, symSize: 0x24 }
  - { offsetInCU: 0x15B35, offset: 0x15B35, size: 0x8, addend: 0x0, symName: __ZNSt3__118__constexpr_strlenB8ue170006EPKc, symObjAddr: 0x3AF0, symBinAddr: 0x10000631C, symSize: 0x24 }
  - { offsetInCU: 0x15B61, offset: 0x15B61, size: 0x8, addend: 0x0, symName: __ZNSt3__112__to_addressB8ue170006I5TokenEEPT_S3_, symObjAddr: 0x3DC0, symBinAddr: 0x1000065EC, symSize: 0x14 }
  - { offsetInCU: 0x15B96, offset: 0x15B96, size: 0x8, addend: 0x0, symName: __ZNSt3__116__constrain_hashB8ue170006Emm, symObjAddr: 0x5684, symBinAddr: 0x100007EB0, symSize: 0x98 }
  - { offsetInCU: 0x15BD0, offset: 0x15BD0, size: 0x8, addend: 0x0, symName: __ZNSt3__13maxB8ue170006ImEERKT_S3_S3_, symObjAddr: 0x59B8, symBinAddr: 0x1000081E4, symSize: 0x2C }
  - { offsetInCU: 0x15C13, offset: 0x15C13, size: 0x8, addend: 0x0, symName: __ZNSt3__116__is_hash_power2B8ue170006Em, symObjAddr: 0x59E4, symBinAddr: 0x100008210, symSize: 0x50 }
  - { offsetInCU: 0x15C97, offset: 0x15C97, size: 0x8, addend: 0x0, symName: __ZNSt3__17launderB8ue170006IKNS_4pairIKN5Token9TokenTypeENS_12basic_stringIcNS_11char_traitsIcEENS_9allocatorIcEEEEEEEEPT_SE_, symObjAddr: 0x5DB8, symBinAddr: 0x1000085E4, symSize: 0x24 }
  - { offsetInCU: 0x15CCE, offset: 0x15CCE, size: 0x8, addend: 0x0, symName: __ZNSt3__19__launderB8ue170006IKNS_4pairIKN5Token9TokenTypeENS_12basic_stringIcNS_11char_traitsIcEENS_9allocatorIcEEEEEEEEPT_SE_, symObjAddr: 0x5DDC, symBinAddr: 0x100008608, symSize: 0x14 }
  - { offsetInCU: 0x15D56, offset: 0x15D56, size: 0x8, addend: 0x0, symName: __ZNSt3__117__libcpp_allocateB8ue170006Emm, symObjAddr: 0x6044, symBinAddr: 0x100008870, symSize: 0x60 }
  - { offsetInCU: 0x15DB0, offset: 0x15DB0, size: 0x8, addend: 0x0, symName: __ZNSt3__121__libcpp_operator_newB8ue170006IJmSt11align_val_tEEEPvDpT_, symObjAddr: 0x60BC, symBinAddr: 0x1000088E8, symSize: 0x2C }
  - { offsetInCU: 0x15DFD, offset: 0x15DFD, size: 0x8, addend: 0x0, symName: __ZNSt3__121__libcpp_operator_newB8ue170006IJmEEEPvDpT_, symObjAddr: 0x60E8, symBinAddr: 0x100008914, symSize: 0x24 }
  - { offsetInCU: 0x15E36, offset: 0x15E36, size: 0x8, addend: 0x0, symName: __ZNSt3__17launderB8ue170006INS_4pairIKN5Token9TokenTypeENS_12basic_stringIcNS_11char_traitsIcEENS_9allocatorIcEEEEEEEEPT_SD_, symObjAddr: 0x6328, symBinAddr: 0x100008B54, symSize: 0x24 }
  - { offsetInCU: 0x15E6D, offset: 0x15E6D, size: 0x8, addend: 0x0, symName: __ZNSt3__19__launderB8ue170006INS_4pairIKN5Token9TokenTypeENS_12basic_stringIcNS_11char_traitsIcEENS_9allocatorIcEEEEEEEEPT_SD_, symObjAddr: 0x634C, symBinAddr: 0x100008B78, symSize: 0x14 }
  - { offsetInCU: 0x15EA4, offset: 0x15EA4, size: 0x8, addend: 0x0, symName: __ZNSt3__116__next_hash_pow2B8ue170006Em, symObjAddr: 0x683C, symBinAddr: 0x100009068, symSize: 0x6C }
  - { offsetInCU: 0x15EEC, offset: 0x15EEC, size: 0x8, addend: 0x0, symName: __ZNSt3__112__libcpp_clzB8ue170006Em, symObjAddr: 0x6BE4, symBinAddr: 0x100009410, symSize: 0x1C }
  - { offsetInCU: 0x15F18, offset: 0x15F18, size: 0x8, addend: 0x0, symName: __ZNSt3__13maxB8ue170006ImNS_6__lessIvvEEEERKT_S5_S5_T0_, symObjAddr: 0x6C00, symBinAddr: 0x10000942C, symSize: 0x54 }
  - { offsetInCU: 0x15FB7, offset: 0x15FB7, size: 0x8, addend: 0x0, symName: __ZNSt3__13minB8ue170006ImEERKT_S3_S3_, symObjAddr: 0x746C, symBinAddr: 0x100009C98, symSize: 0x2C }
  - { offsetInCU: 0x161E4, offset: 0x161E4, size: 0x8, addend: 0x0, symName: __ZNSt3__13minB8ue170006ImNS_6__lessIvvEEEERKT_S5_S5_T0_, symObjAddr: 0x74F8, symBinAddr: 0x100009D24, symSize: 0x54 }
  - { offsetInCU: 0x1623E, offset: 0x1623E, size: 0x8, addend: 0x0, symName: __ZNSt3__120__throw_length_errorB8ue170006EPKc, symObjAddr: 0x75A4, symBinAddr: 0x100009DD0, symSize: 0x64 }
  - { offsetInCU: 0x16268, offset: 0x16268, size: 0x8, addend: 0x0, symName: __ZNSt3__119__allocate_at_leastB8ue170006INS_9allocatorI5TokenEEEENS_19__allocation_resultINS_16allocator_traitsIT_E7pointerEEERS6_m, symObjAddr: 0x7804, symBinAddr: 0x10000A030, symSize: 0x40 }
  - { offsetInCU: 0x162AB, offset: 0x162AB, size: 0x8, addend: 0x0, symName: __ZNSt3__142__uninitialized_allocator_move_if_noexceptB8ue170006INS_9allocatorI5TokenEENS_16reverse_iteratorIPS2_EES6_S6_EET2_RT_T0_T1_S7_, symObjAddr: 0x7A90, symBinAddr: 0x10000A2BC, symSize: 0x12C }
  - { offsetInCU: 0x1634B, offset: 0x1634B, size: 0x8, addend: 0x0, symName: __ZNSt3__14swapB8ue170006IP5TokenEENS_9enable_ifIXaasr21is_move_constructibleIT_EE5valuesr18is_move_assignableIS4_EE5valueEvE4typeERS4_S7_, symObjAddr: 0x7C08, symBinAddr: 0x10000A434, symSize: 0x3C }
  - { offsetInCU: 0x1639C, offset: 0x1639C, size: 0x8, addend: 0x0, symName: __ZNSt3__122__make_exception_guardB8ue170006INS_29_AllocatorDestroyRangeReverseINS_9allocatorI5TokenEENS_16reverse_iteratorIPS3_EEEEEENS_28__exception_guard_exceptionsIT_EESA_, symObjAddr: 0x7D54, symBinAddr: 0x10000A580, symSize: 0x4C }
  - { offsetInCU: 0x163D2, offset: 0x163D2, size: 0x8, addend: 0x0, symName: __ZNSt3__1neB8ue170006IP5TokenS2_EEbRKNS_16reverse_iteratorIT_EERKNS3_IT0_EE, symObjAddr: 0x7DE4, symBinAddr: 0x10000A610, symSize: 0x48 }
  - { offsetInCU: 0x1641E, offset: 0x1641E, size: 0x8, addend: 0x0, symName: __ZNSt3__112__to_addressB8ue170006INS_16reverse_iteratorIP5TokenEEvEEu7__decayIDTclsr19__to_address_helperIT_EE6__callclsr3stdE7declvalIRKS5_EEEEES7_, symObjAddr: 0x7E60, symBinAddr: 0x10000A68C, symSize: 0x24 }
  - { offsetInCU: 0x16472, offset: 0x16472, size: 0x8, addend: 0x0, symName: __ZNSt3__1neB8ue170006ERKNS_25__hash_map_const_iteratorINS_21__hash_const_iteratorIPNS_11__hash_nodeINS_17__hash_value_typeIN5Token9TokenTypeENS_12basic_stringIcNS_11char_traitsIcEENS_9allocatorIcEEEEEEPvEEEEEESJ_, symObjAddr: 0x8938, symBinAddr: 0x10000B164, symSize: 0x30 }
  - { offsetInCU: 0x164AF, offset: 0x164AF, size: 0x8, addend: 0x0, symName: __ZNSt3__1neB8ue170006ERKNS_21__hash_const_iteratorIPNS_11__hash_nodeINS_17__hash_value_typeIN5Token9TokenTypeENS_12basic_stringIcNS_11char_traitsIcEENS_9allocatorIcEEEEEEPvEEEESH_, symObjAddr: 0x89BC, symBinAddr: 0x10000B1E8, symSize: 0x34 }
  - { offsetInCU: 0x164EC, offset: 0x164EC, size: 0x8, addend: 0x0, symName: __ZNSt3__1eqB8ue170006ERKNS_21__hash_const_iteratorIPNS_11__hash_nodeINS_17__hash_value_typeIN5Token9TokenTypeENS_12basic_stringIcNS_11char_traitsIcEENS_9allocatorIcEEEEEEPvEEEESH_, symObjAddr: 0x89F0, symBinAddr: 0x10000B21C, symSize: 0x30 }
  - { offsetInCU: 0x16585, offset: 0x16585, size: 0x8, addend: 0x0, symName: __ZNSt3__119__allocator_destroyB8ue170006INS_9allocatorI5TokenEENS_16reverse_iteratorINS4_IPS2_EEEES7_EEvRT_T0_T1_, symObjAddr: 0x8D28, symBinAddr: 0x10000B554, symSize: 0x70 }
  - { offsetInCU: 0x165EA, offset: 0x165EA, size: 0x8, addend: 0x0, symName: __ZNSt3__1neB8ue170006INS_16reverse_iteratorIP5TokenEES4_EEbRKNS1_IT_EERKNS1_IT0_EE, symObjAddr: 0x8DD4, symBinAddr: 0x10000B600, symSize: 0x60 }
  - { offsetInCU: 0x16636, offset: 0x16636, size: 0x8, addend: 0x0, symName: __ZNSt3__112__to_addressB8ue170006INS_16reverse_iteratorINS1_IP5TokenEEEEvEEu7__decayIDTclsr19__to_address_helperIT_EE6__callclsr3stdE7declvalIRKS6_EEEEES8_, symObjAddr: 0x8E60, symBinAddr: 0x10000B68C, symSize: 0x24 }
  - { offsetInCU: 0x16695, offset: 0x16695, size: 0x8, addend: 0x0, symName: __ZNSt3__122__make_exception_guardB8ue170006INS_6vectorI5TokenNS_9allocatorIS2_EEE16__destroy_vectorEEENS_28__exception_guard_exceptionsIT_EES8_, symObjAddr: 0xA188, symBinAddr: 0x10000C9B4, symSize: 0x40 }
  - { offsetInCU: 0x166CA, offset: 0x166CA, size: 0x8, addend: 0x0, symName: __ZNSt3__130__uninitialized_allocator_copyB8ue170006INS_9allocatorI5TokenEEPS2_S4_S4_EET2_RT_T0_T1_S5_, symObjAddr: 0xA3FC, symBinAddr: 0x10000CC28, symSize: 0x80 }
  - { offsetInCU: 0x16767, offset: 0x16767, size: 0x8, addend: 0x0, symName: __ZNSt3__114__unwrap_rangeB8ue170006IP5TokenS2_EENS_4pairIT0_S4_EET_S6_, symObjAddr: 0xA47C, symBinAddr: 0x10000CCA8, symSize: 0x60 }
  - { offsetInCU: 0x167B3, offset: 0x167B3, size: 0x8, addend: 0x0, symName: __ZNSt3__135__uninitialized_allocator_copy_implB8ue170006INS_9allocatorI5TokenEEPS2_S4_S4_EET2_RT_T0_T1_S5_, symObjAddr: 0xA4DC, symBinAddr: 0x10000CD08, symSize: 0xF4 }
  - { offsetInCU: 0x16851, offset: 0x16851, size: 0x8, addend: 0x0, symName: __ZNSt3__113__unwrap_iterB8ue170006IP5TokenNS_18__unwrap_iter_implIS2_Lb1EEELi0EEEDTclsrT0_8__unwrapclsr3stdE7declvalIT_EEEES6_, symObjAddr: 0xA5D0, symBinAddr: 0x10000CDFC, symSize: 0x24 }
  - { offsetInCU: 0x16895, offset: 0x16895, size: 0x8, addend: 0x0, symName: __ZNSt3__113__rewrap_iterB8ue170006IP5TokenS2_NS_18__unwrap_iter_implIS2_Lb1EEEEET_S5_T0_, symObjAddr: 0xA5F4, symBinAddr: 0x10000CE20, symSize: 0x3C }
  - { offsetInCU: 0x168EA, offset: 0x168EA, size: 0x8, addend: 0x0, symName: __ZNSt3__19make_pairB8ue170006IP5TokenS2_EENS_4pairINS_18__unwrap_ref_decayIT_E4typeENS4_IT0_E4typeEEEOS5_OS8_, symObjAddr: 0xA630, symBinAddr: 0x10000CE5C, symSize: 0x38 }
  - { offsetInCU: 0x16A0D, offset: 0x16A0D, size: 0x8, addend: 0x0, symName: __ZNSt3__122__make_exception_guardB8ue170006INS_29_AllocatorDestroyRangeReverseINS_9allocatorI5TokenEEPS3_EEEENS_28__exception_guard_exceptionsIT_EES8_, symObjAddr: 0xA6D8, symBinAddr: 0x10000CF04, symSize: 0x4C }
  - { offsetInCU: 0x16A43, offset: 0x16A43, size: 0x8, addend: 0x0, symName: __ZNSt3__119__allocator_destroyB8ue170006INS_9allocatorI5TokenEENS_16reverse_iteratorIPS2_EES6_EEvRT_T0_T1_, symObjAddr: 0xA968, symBinAddr: 0x10000D194, symSize: 0x70 }
  - { offsetInCU: 0x16AF9, offset: 0x16AF9, size: 0x8, addend: 0x0, symName: __ZNSt3__1eqB8ue170006IP5TokenEEbRKNS_11__wrap_iterIT_EES7_, symObjAddr: 0xABE8, symBinAddr: 0x10000D414, symSize: 0x48 }
  - { offsetInCU: 0x16B6F, offset: 0x16B6F, size: 0x8, addend: 0x0, symName: __ZNSt3__1neB8ue170006ERKNS_16__deque_iteratorIcPcRcPS1_lLl4096EEES6_, symObjAddr: 0xB550, symBinAddr: 0x10000DD7C, symSize: 0x34 }
  - { offsetInCU: 0x16BAC, offset: 0x16BAC, size: 0x8, addend: 0x0, symName: __ZNSt3__1eqB8ue170006ERKNS_16__deque_iteratorIcPcRcPS1_lLl4096EEES6_, symObjAddr: 0xB72C, symBinAddr: 0x10000DF58, symSize: 0x30 }
  - { offsetInCU: 0x16BE9, offset: 0x16BE9, size: 0x8, addend: 0x0, symName: __ZNSt3__112__to_addressB8ue170006IPcEEPT_S3_, symObjAddr: 0xBB1C, symBinAddr: 0x10000E348, symSize: 0x14 }
  - { offsetInCU: 0x16C1E, offset: 0x16C1E, size: 0x8, addend: 0x0, symName: __ZNSt3__112__to_addressB8ue170006IKcEEPT_S3_, symObjAddr: 0xC0D0, symBinAddr: 0x10000E8FC, symSize: 0x14 }
  - { offsetInCU: 0x171BA, offset: 0x171BA, size: 0x8, addend: 0x0, symName: __ZSt28__throw_bad_array_new_lengthB8ue170006v, symObjAddr: 0x6010, symBinAddr: 0x10000883C, symSize: 0x34 }
  - { offsetInCU: 0x186B7, offset: 0x186B7, size: 0x8, addend: 0x0, symName: __ZNKSt3__111__enum_hashIN5Token9TokenTypeELb1EEclB8ue170006ES2_, symObjAddr: 0x5BFC, symBinAddr: 0x100008428, symSize: 0x2C }
  - { offsetInCU: 0x18753, offset: 0x18753, size: 0x8, addend: 0x0, symName: __ZNSt3__16vectorI5TokenNS_9allocatorIS1_EEE26__swap_out_circular_bufferERNS_14__split_bufferIS1_RS3_EE, symObjAddr: 0x7274, symBinAddr: 0x100009AA0, symSize: 0x110 }
  - { offsetInCU: 0x191E4, offset: 0x191E4, size: 0x8, addend: 0x0, symName: __Z7isalnumi, symObjAddr: 0x296C, symBinAddr: 0x100005198, symSize: 0x28 }
  - { offsetInCU: 0x19210, offset: 0x19210, size: 0x8, addend: 0x0, symName: __Z7isalphai, symObjAddr: 0x1D54, symBinAddr: 0x100004580, symSize: 0x28 }
  - { offsetInCU: 0x192D0, offset: 0x192D0, size: 0x8, addend: 0x0, symName: __Z7isspacei, symObjAddr: 0x1D2C, symBinAddr: 0x100004558, symSize: 0x28 }
  - { offsetInCU: 0x1AD2B, offset: 0x1AD2B, size: 0x8, addend: 0x0, symName: _main, symObjAddr: 0x0, symBinAddr: 0x10000282C, symSize: 0x320 }
  - { offsetInCU: 0x1AE08, offset: 0x1AE08, size: 0x8, addend: 0x0, symName: __ZNSt3__112basic_stringIcNS_11char_traitsIcEENS_9allocatorIcEEEC1B8ue170006ILi0EEEPKc, symObjAddr: 0x320, symBinAddr: 0x100002B4C, symSize: 0x34 }
  - { offsetInCU: 0x1AE47, offset: 0x1AE47, size: 0x8, addend: 0x0, symName: __ZNSt3__114basic_ifstreamIcNS_11char_traitsIcEEEC1Ev, symObjAddr: 0x354, symBinAddr: 0x100002B80, symSize: 0xE8 }
  - { offsetInCU: 0x1AE73, offset: 0x1AE73, size: 0x8, addend: 0x0, symName: __ZNSt3__118basic_stringstreamIcNS_11char_traitsIcEENS_9allocatorIcEEEC1B8ue170006Ev, symObjAddr: 0x43C, symBinAddr: 0x100002C68, symSize: 0x104 }
  - { offsetInCU: 0x1AE9D, offset: 0x1AE9D, size: 0x8, addend: 0x0, symName: __ZNKSt3__114basic_ifstreamIcNS_11char_traitsIcEEE5rdbufEv, symObjAddr: 0x540, symBinAddr: 0x100002D6C, symSize: 0x18 }
  - { offsetInCU: 0x1AEC5, offset: 0x1AEC5, size: 0x8, addend: 0x0, symName: __ZNKSt3__118basic_stringstreamIcNS_11char_traitsIcEENS_9allocatorIcEEE3strB8ue170006Ev, symObjAddr: 0x558, symBinAddr: 0x100002D84, symSize: 0x30 }
  - { offsetInCU: 0x1AEEB, offset: 0x1AEEB, size: 0x8, addend: 0x0, symName: __ZNSt3__114basic_ifstreamIcNS_11char_traitsIcEEE5closeEv, symObjAddr: 0x588, symBinAddr: 0x100002DB4, symSize: 0x58 }
  - { offsetInCU: 0x1AF13, offset: 0x1AF13, size: 0x8, addend: 0x0, symName: __ZN7ScannerC1ENSt3__112basic_stringIcNS0_11char_traitsIcEENS0_9allocatorIcEEEE, symObjAddr: 0x5E0, symBinAddr: 0x100002E0C, symSize: 0x34 }
  - { offsetInCU: 0x1AF4C, offset: 0x1AF4C, size: 0x8, addend: 0x0, symName: __ZN7Scanner9scanTokenEv, symObjAddr: 0x614, symBinAddr: 0x100002E40, symSize: 0x434 }
  - { offsetInCU: 0x1AF8E, offset: 0x1AF8E, size: 0x8, addend: 0x0, symName: __ZNSt3__16vectorI5TokenNS_9allocatorIS1_EEE5beginB8ue170006Ev, symObjAddr: 0xAA8, symBinAddr: 0x1000032D4, symSize: 0x30 }
  - { offsetInCU: 0x1AFB6, offset: 0x1AFB6, size: 0x8, addend: 0x0, symName: __ZNSt3__16vectorI5TokenNS_9allocatorIS1_EEE3endB8ue170006Ev, symObjAddr: 0xAD8, symBinAddr: 0x100003304, symSize: 0x30 }
  - { offsetInCU: 0x1AFDE, offset: 0x1AFDE, size: 0x8, addend: 0x0, symName: __ZNKSt3__111__wrap_iterIP5TokenEdeB8ue170006Ev, symObjAddr: 0xB3C, symBinAddr: 0x100003368, symSize: 0x18 }
  - { offsetInCU: 0x1B004, offset: 0x1B004, size: 0x8, addend: 0x0, symName: __ZNK5Token8toStringEv, symObjAddr: 0xBA0, symBinAddr: 0x1000033CC, symSize: 0x184 }
  - { offsetInCU: 0x1B039, offset: 0x1B039, size: 0x8, addend: 0x0, symName: __ZNSt3__113basic_ostreamIcNS_11char_traitsIcEEElsB8ue170006EPFRS3_S4_E, symObjAddr: 0xD24, symBinAddr: 0x100003550, symSize: 0x2C }
  - { offsetInCU: 0x1B06D, offset: 0x1B06D, size: 0x8, addend: 0x0, symName: __ZNSt3__111__wrap_iterIP5TokenEppB8ue170006Ev, symObjAddr: 0xDA8, symBinAddr: 0x1000035D4, symSize: 0x20 }
  - { offsetInCU: 0x1B093, offset: 0x1B093, size: 0x8, addend: 0x0, symName: __ZNKSt3__16vectorI5TokenNS_9allocatorIS1_EEE4sizeB8ue170006Ev, symObjAddr: 0xE10, symBinAddr: 0x10000363C, symSize: 0x28 }
  - { offsetInCU: 0x1B0B9, offset: 0x1B0B9, size: 0x8, addend: 0x0, symName: __ZNSt3__16vectorI5TokenNS_9allocatorIS1_EEED1B8ue170006Ev, symObjAddr: 0xE38, symBinAddr: 0x100003664, symSize: 0x2C }
  - { offsetInCU: 0x1B0E3, offset: 0x1B0E3, size: 0x8, addend: 0x0, symName: __ZN7ScannerD1Ev, symObjAddr: 0xE64, symBinAddr: 0x100003690, symSize: 0x2C }
  - { offsetInCU: 0x1B114, offset: 0x1B114, size: 0x8, addend: 0x0, symName: __ZNSt3__118basic_stringstreamIcNS_11char_traitsIcEENS_9allocatorIcEEED1Ev, symObjAddr: 0xE90, symBinAddr: 0x1000036BC, symSize: 0x40 }
  - { offsetInCU: 0x1B146, offset: 0x1B146, size: 0x8, addend: 0x0, symName: __ZNSt3__114basic_ifstreamIcNS_11char_traitsIcEEED1Ev, symObjAddr: 0xED0, symBinAddr: 0x1000036FC, symSize: 0x40 }
  - { offsetInCU: 0x1B173, offset: 0x1B173, size: 0x8, addend: 0x0, symName: __ZN7ScannerC2ENSt3__112basic_stringIcNS0_11char_traitsIcEENS0_9allocatorIcEEEE, symObjAddr: 0xF10, symBinAddr: 0x10000373C, symSize: 0x54 }
  - { offsetInCU: 0x1B1AC, offset: 0x1B1AC, size: 0x8, addend: 0x0, symName: __ZNSt3__112basic_stringIcNS_11char_traitsIcEENS_9allocatorIcEEEC1B8ue170006EOS5_, symObjAddr: 0xF64, symBinAddr: 0x100003790, symSize: 0x34 }
  - { offsetInCU: 0x1B1E5, offset: 0x1B1E5, size: 0x8, addend: 0x0, symName: __ZNSt3__15stackIcNS_5dequeIcNS_9allocatorIcEEEEEC1B8ue170006Ev, symObjAddr: 0xF98, symBinAddr: 0x1000037C4, symSize: 0x2C }
  - { offsetInCU: 0x1B20F, offset: 0x1B20F, size: 0x8, addend: 0x0, symName: __ZNSt3__16vectorI5TokenNS_9allocatorIS1_EEEC1B8ue170006Ev, symObjAddr: 0xFC4, symBinAddr: 0x1000037F0, symSize: 0x2C }
  - { offsetInCU: 0x1B239, offset: 0x1B239, size: 0x8, addend: 0x0, symName: __ZNSt3__112basic_stringIcNS_11char_traitsIcEENS_9allocatorIcEEEC2B8ue170006EOS5_, symObjAddr: 0xFF0, symBinAddr: 0x10000381C, symSize: 0x50 }
  - { offsetInCU: 0x1B272, offset: 0x1B272, size: 0x8, addend: 0x0, symName: __ZNSt3__112basic_stringIcNS_11char_traitsIcEENS_9allocatorIcEEE14__default_initB8ue170006Ev, symObjAddr: 0x1040, symBinAddr: 0x10000386C, symSize: 0x40 }
  - { offsetInCU: 0x1B298, offset: 0x1B298, size: 0x8, addend: 0x0, symName: __ZNSt3__117__compressed_pairINS_12basic_stringIcNS_11char_traitsIcEENS_9allocatorIcEEE5__repES5_E5firstB8ue170006Ev, symObjAddr: 0x108C, symBinAddr: 0x1000038B8, symSize: 0x24 }
  - { offsetInCU: 0x1B2BE, offset: 0x1B2BE, size: 0x8, addend: 0x0, symName: __ZNSt3__122__compressed_pair_elemINS_12basic_stringIcNS_11char_traitsIcEENS_9allocatorIcEEE5__repELi0ELb0EE5__getB8ue170006Ev, symObjAddr: 0x10B0, symBinAddr: 0x1000038DC, symSize: 0x14 }
  - { offsetInCU: 0x1B2E4, offset: 0x1B2E4, size: 0x8, addend: 0x0, symName: __ZNSt3__15stackIcNS_5dequeIcNS_9allocatorIcEEEEEC2B8ue170006Ev, symObjAddr: 0x10C4, symBinAddr: 0x1000038F0, symSize: 0x2C }
  - { offsetInCU: 0x1B30E, offset: 0x1B30E, size: 0x8, addend: 0x0, symName: __ZNSt3__15dequeIcNS_9allocatorIcEEEC1B8ue170006Ev, symObjAddr: 0x10F0, symBinAddr: 0x10000391C, symSize: 0x2C }
  - { offsetInCU: 0x1B338, offset: 0x1B338, size: 0x8, addend: 0x0, symName: __ZNSt3__15dequeIcNS_9allocatorIcEEEC2B8ue170006Ev, symObjAddr: 0x111C, symBinAddr: 0x100003948, symSize: 0x5C }
  - { offsetInCU: 0x1B362, offset: 0x1B362, size: 0x8, addend: 0x0, symName: __ZNSt3__114__split_bufferIPcNS_9allocatorIS1_EEEC1B8ue170006Ev, symObjAddr: 0x1178, symBinAddr: 0x1000039A4, symSize: 0x2C }
  - { offsetInCU: 0x1B398, offset: 0x1B398, size: 0x8, addend: 0x0, symName: __ZNSt3__117__compressed_pairImNS_9allocatorIcEEEC1B8ue170006IiNS_18__default_init_tagEEEOT_OT0_, symObjAddr: 0x11A4, symBinAddr: 0x1000039D0, symSize: 0x3C }
  - { offsetInCU: 0x1B3F0, offset: 0x1B3F0, size: 0x8, addend: 0x0, symName: __ZNKSt3__15dequeIcNS_9allocatorIcEEE14__annotate_newB8ue170006Em, symObjAddr: 0x11E0, symBinAddr: 0x100003A0C, symSize: 0xC8 }
  - { offsetInCU: 0x1B425, offset: 0x1B425, size: 0x8, addend: 0x0, symName: __ZNSt3__114__split_bufferIPcNS_9allocatorIS1_EEEC2B8ue170006Ev, symObjAddr: 0x12A8, symBinAddr: 0x100003AD4, symSize: 0x50 }
  - { offsetInCU: 0x1B455, offset: 0x1B455, size: 0x8, addend: 0x0, symName: __ZNSt3__117__compressed_pairIPPcNS_9allocatorIS1_EEEC1B8ue170006IDnNS_18__default_init_tagEEEOT_OT0_, symObjAddr: 0x12F8, symBinAddr: 0x100003B24, symSize: 0x3C }
  - { offsetInCU: 0x1B4AD, offset: 0x1B4AD, size: 0x8, addend: 0x0, symName: __ZNSt3__117__compressed_pairIPPcNS_9allocatorIS1_EEEC2B8ue170006IDnNS_18__default_init_tagEEEOT_OT0_, symObjAddr: 0x1334, symBinAddr: 0x100003B60, symSize: 0x40 }
  - { offsetInCU: 0x1B505, offset: 0x1B505, size: 0x8, addend: 0x0, symName: __ZNSt3__122__compressed_pair_elemIPPcLi0ELb0EEC2B8ue170006IDnvEEOT_, symObjAddr: 0x1374, symBinAddr: 0x100003BA0, symSize: 0x1C }
  - { offsetInCU: 0x1B547, offset: 0x1B547, size: 0x8, addend: 0x0, symName: __ZNSt3__122__compressed_pair_elemINS_9allocatorIPcEELi1ELb1EEC2B8ue170006ENS_18__default_init_tagE, symObjAddr: 0x1390, symBinAddr: 0x100003BBC, symSize: 0x2C }
  - { offsetInCU: 0x1B57C, offset: 0x1B57C, size: 0x8, addend: 0x0, symName: __ZNSt3__19allocatorIPcEC2B8ue170006Ev, symObjAddr: 0x13BC, symBinAddr: 0x100003BE8, symSize: 0x2C }
  - { offsetInCU: 0x1B5A6, offset: 0x1B5A6, size: 0x8, addend: 0x0, symName: __ZNSt3__116__non_trivial_ifILb1ENS_9allocatorIPcEEEC2B8ue170006Ev, symObjAddr: 0x13E8, symBinAddr: 0x100003C14, symSize: 0x14 }
  - { offsetInCU: 0x1B5D0, offset: 0x1B5D0, size: 0x8, addend: 0x0, symName: __ZNSt3__117__compressed_pairImNS_9allocatorIcEEEC2B8ue170006IiNS_18__default_init_tagEEEOT_OT0_, symObjAddr: 0x13FC, symBinAddr: 0x100003C28, symSize: 0x40 }
  - { offsetInCU: 0x1B628, offset: 0x1B628, size: 0x8, addend: 0x0, symName: __ZNSt3__122__compressed_pair_elemImLi0ELb0EEC2B8ue170006IivEEOT_, symObjAddr: 0x143C, symBinAddr: 0x100003C68, symSize: 0x24 }
  - { offsetInCU: 0x1B66A, offset: 0x1B66A, size: 0x8, addend: 0x0, symName: __ZNSt3__122__compressed_pair_elemINS_9allocatorIcEELi1ELb1EEC2B8ue170006ENS_18__default_init_tagE, symObjAddr: 0x1460, symBinAddr: 0x100003C8C, symSize: 0x2C }
  - { offsetInCU: 0x1B69F, offset: 0x1B69F, size: 0x8, addend: 0x0, symName: __ZNSt3__19allocatorIcEC2B8ue170006Ev, symObjAddr: 0x148C, symBinAddr: 0x100003CB8, symSize: 0x2C }
  - { offsetInCU: 0x1B6C9, offset: 0x1B6C9, size: 0x8, addend: 0x0, symName: __ZNSt3__116__non_trivial_ifILb1ENS_9allocatorIcEEEC2B8ue170006Ev, symObjAddr: 0x14B8, symBinAddr: 0x100003CE4, symSize: 0x14 }
  - { offsetInCU: 0x1B6F3, offset: 0x1B6F3, size: 0x8, addend: 0x0, symName: __ZNKSt3__15dequeIcNS_9allocatorIcEEE18__annotate_from_toB8ue170006EmmNS3_22__asan_annotation_typeENS3_23__asan_annotation_placeE, symObjAddr: 0x14CC, symBinAddr: 0x100003CF8, symSize: 0x580 }
  - { offsetInCU: 0x1B8AF, offset: 0x1B8AF, size: 0x8, addend: 0x0, symName: __ZNKSt3__114__split_bufferIPcNS_9allocatorIS1_EEE4sizeB8ue170006Ev, symObjAddr: 0x1A4C, symBinAddr: 0x100004278, symSize: 0x28 }
  - { offsetInCU: 0x1B8D5, offset: 0x1B8D5, size: 0x8, addend: 0x0, symName: __ZNKSt3__114__split_bufferIPcNS_9allocatorIS1_EEE5beginB8ue170006Ev, symObjAddr: 0x1A74, symBinAddr: 0x1000042A0, symSize: 0x18 }
  - { offsetInCU: 0x1B8FB, offset: 0x1B8FB, size: 0x8, addend: 0x0, symName: __ZNKSt3__15dequeIcNS_9allocatorIcEEE4sizeB8ue170006Ev, symObjAddr: 0x1A8C, symBinAddr: 0x1000042B8, symSize: 0x28 }
  - { offsetInCU: 0x1B921, offset: 0x1B921, size: 0x8, addend: 0x0, symName: __ZNKSt3__15dequeIcNS_9allocatorIcEEE5emptyB8ue170006Ev, symObjAddr: 0x1AB4, symBinAddr: 0x1000042E0, symSize: 0x30 }
  - { offsetInCU: 0x1B947, offset: 0x1B947, size: 0x8, addend: 0x0, symName: __ZNKSt3__15dequeIcNS_9allocatorIcEEE44__annotate_double_ended_contiguous_containerB8ue170006EPKvS5_S5_S5_S5_S5_, symObjAddr: 0x1AF8, symBinAddr: 0x100004324, symSize: 0x28 }
  - { offsetInCU: 0x1B9B5, offset: 0x1B9B5, size: 0x8, addend: 0x0, symName: __ZNKSt3__15dequeIcNS_9allocatorIcEEE6__sizeB8ue170006Ev, symObjAddr: 0x1B20, symBinAddr: 0x10000434C, symSize: 0x28 }
  - { offsetInCU: 0x1B9DB, offset: 0x1B9DB, size: 0x8, addend: 0x0, symName: __ZNKSt3__117__compressed_pairImNS_9allocatorIcEEE5firstB8ue170006Ev, symObjAddr: 0x1B48, symBinAddr: 0x100004374, symSize: 0x24 }
  - { offsetInCU: 0x1BA01, offset: 0x1BA01, size: 0x8, addend: 0x0, symName: __ZNKSt3__122__compressed_pair_elemImLi0ELb0EE5__getB8ue170006Ev, symObjAddr: 0x1B6C, symBinAddr: 0x100004398, symSize: 0x14 }
  - { offsetInCU: 0x1BA27, offset: 0x1BA27, size: 0x8, addend: 0x0, symName: __ZNSt3__16vectorI5TokenNS_9allocatorIS1_EEEC2B8ue170006Ev, symObjAddr: 0x1B80, symBinAddr: 0x1000043AC, symSize: 0x4C }
  - { offsetInCU: 0x1BA51, offset: 0x1BA51, size: 0x8, addend: 0x0, symName: __ZNSt3__117__compressed_pairIP5TokenNS_9allocatorIS1_EEEC1B8ue170006IDnNS_18__default_init_tagEEEOT_OT0_, symObjAddr: 0x1BCC, symBinAddr: 0x1000043F8, symSize: 0x3C }
  - { offsetInCU: 0x1BAA9, offset: 0x1BAA9, size: 0x8, addend: 0x0, symName: __ZNSt3__117__compressed_pairIP5TokenNS_9allocatorIS1_EEEC2B8ue170006IDnNS_18__default_init_tagEEEOT_OT0_, symObjAddr: 0x1C08, symBinAddr: 0x100004434, symSize: 0x40 }
  - { offsetInCU: 0x1BB01, offset: 0x1BB01, size: 0x8, addend: 0x0, symName: __ZNSt3__122__compressed_pair_elemIP5TokenLi0ELb0EEC2B8ue170006IDnvEEOT_, symObjAddr: 0x1C48, symBinAddr: 0x100004474, symSize: 0x1C }
  - { offsetInCU: 0x1BB43, offset: 0x1BB43, size: 0x8, addend: 0x0, symName: __ZNSt3__122__compressed_pair_elemINS_9allocatorI5TokenEELi1ELb1EEC2B8ue170006ENS_18__default_init_tagE, symObjAddr: 0x1C64, symBinAddr: 0x100004490, symSize: 0x2C }
  - { offsetInCU: 0x1BB78, offset: 0x1BB78, size: 0x8, addend: 0x0, symName: __ZNSt3__19allocatorI5TokenEC2B8ue170006Ev, symObjAddr: 0x1C90, symBinAddr: 0x1000044BC, symSize: 0x2C }
  - { offsetInCU: 0x1BBA2, offset: 0x1BBA2, size: 0x8, addend: 0x0, symName: __ZNSt3__116__non_trivial_ifILb1ENS_9allocatorI5TokenEEEC2B8ue170006Ev, symObjAddr: 0x1CBC, symBinAddr: 0x1000044E8, symSize: 0x14 }
  - { offsetInCU: 0x1BBCC, offset: 0x1BBCC, size: 0x8, addend: 0x0, symName: __ZNSt3__112basic_stringIcNS_11char_traitsIcEENS_9allocatorIcEEEC1B8ue170006Ev, symObjAddr: 0x1CD0, symBinAddr: 0x1000044FC, symSize: 0x2C }
  - { offsetInCU: 0x1BBF6, offset: 0x1BBF6, size: 0x8, addend: 0x0, symName: __ZNKSt3__112basic_stringIcNS_11char_traitsIcEENS_9allocatorIcEEE5emptyB8ue170006Ev, symObjAddr: 0x1CFC, symBinAddr: 0x100004528, symSize: 0x30 }
  - { offsetInCU: 0x1BC1C, offset: 0x1BC1C, size: 0x8, addend: 0x0, symName: __ZN7Scanner12alnumHandlerEv, symObjAddr: 0x1D7C, symBinAddr: 0x1000045A8, symSize: 0x2CC }
  - { offsetInCU: 0x1BCA5, offset: 0x1BCA5, size: 0x8, addend: 0x0, symName: __ZN7Scanner13stringHandlerEv, symObjAddr: 0x2048, symBinAddr: 0x100004874, symSize: 0x2D8 }
  - { offsetInCU: 0x1BCE8, offset: 0x1BCE8, size: 0x8, addend: 0x0, symName: __ZN7Scanner14commentHandlerEv, symObjAddr: 0x2320, symBinAddr: 0x100004B4C, symSize: 0x214 }
  - { offsetInCU: 0x1BD70, offset: 0x1BD70, size: 0x8, addend: 0x0, symName: __ZNKSt3__112basic_stringIcNS_11char_traitsIcEENS_9allocatorIcEEE4sizeB8ue170006Ev, symObjAddr: 0x2534, symBinAddr: 0x100004D60, symSize: 0x54 }
  - { offsetInCU: 0x1BD96, offset: 0x1BD96, size: 0x8, addend: 0x0, symName: __ZNSt3__112basic_stringIcNS_11char_traitsIcEENS_9allocatorIcEEEaSB8ue170006EPKc, symObjAddr: 0x2588, symBinAddr: 0x100004DB4, symSize: 0x2C }
  - { offsetInCU: 0x1BDD7, offset: 0x1BDD7, size: 0x8, addend: 0x0, symName: __ZNSt3__16vectorI5TokenNS_9allocatorIS1_EEE12emplace_backIJRNS1_9TokenTypeERNS_12basic_stringIcNS_11char_traitsIcEENS2_IcEEEERiEEERS1_DpOT_, symObjAddr: 0x25B4, symBinAddr: 0x100004DE0, symSize: 0x8C }
  - { offsetInCU: 0x1BE60, offset: 0x1BE60, size: 0x8, addend: 0x0, symName: __ZNSt3__16vectorI5TokenNS_9allocatorIS1_EEE12emplace_backIJNS1_9TokenTypeERA1_KcRiEEERS1_DpOT_, symObjAddr: 0x2640, symBinAddr: 0x100004E6C, symSize: 0x8C }
  - { offsetInCU: 0x1BECA, offset: 0x1BECA, size: 0x8, addend: 0x0, symName: __ZNSt3__16vectorI5TokenNS_9allocatorIS1_EEEC1ERKS4_, symObjAddr: 0x26CC, symBinAddr: 0x100004EF8, symSize: 0x34 }
  - { offsetInCU: 0x1BF05, offset: 0x1BF05, size: 0x8, addend: 0x0, symName: __ZNSt3__112basic_stringIcNS_11char_traitsIcEENS_9allocatorIcEEEC2B8ue170006Ev, symObjAddr: 0x2700, symBinAddr: 0x100004F2C, symSize: 0x44 }
  - { offsetInCU: 0x1BF2F, offset: 0x1BF2F, size: 0x8, addend: 0x0, symName: __ZNSt3__117__compressed_pairINS_12basic_stringIcNS_11char_traitsIcEENS_9allocatorIcEEE5__repES5_EC1B8ue170006INS_18__default_init_tagESA_EEOT_OT0_, symObjAddr: 0x2744, symBinAddr: 0x100004F70, symSize: 0x3C }
  - { offsetInCU: 0x1BF87, offset: 0x1BF87, size: 0x8, addend: 0x0, symName: __ZNSt3__117__compressed_pairINS_12basic_stringIcNS_11char_traitsIcEENS_9allocatorIcEEE5__repES5_EC2B8ue170006INS_18__default_init_tagESA_EEOT_OT0_, symObjAddr: 0x2780, symBinAddr: 0x100004FAC, symSize: 0x3C }
  - { offsetInCU: 0x1BFDF, offset: 0x1BFDF, size: 0x8, addend: 0x0, symName: __ZNSt3__122__compressed_pair_elemINS_12basic_stringIcNS_11char_traitsIcEENS_9allocatorIcEEE5__repELi0ELb0EEC2B8ue170006ENS_18__default_init_tagE, symObjAddr: 0x27BC, symBinAddr: 0x100004FE8, symSize: 0x14 }
  - { offsetInCU: 0x1C013, offset: 0x1C013, size: 0x8, addend: 0x0, symName: __Z8__istypeim, symObjAddr: 0x27D0, symBinAddr: 0x100004FFC, symSize: 0x8C }
  - { offsetInCU: 0x1C04D, offset: 0x1C04D, size: 0x8, addend: 0x0, symName: __Z7isasciii, symObjAddr: 0x285C, symBinAddr: 0x100005088, symSize: 0x24 }
  - { offsetInCU: 0x1C07A, offset: 0x1C07A, size: 0x8, addend: 0x0, symName: __ZNSt3__112basic_stringIcNS_11char_traitsIcEENS_9allocatorIcEEE5beginB8ue170006Ev, symObjAddr: 0x2880, symBinAddr: 0x1000050AC, symSize: 0x4C }
  - { offsetInCU: 0x1C0A0, offset: 0x1C0A0, size: 0x8, addend: 0x0, symName: __ZNSt3__112basic_stringIcNS_11char_traitsIcEENS_9allocatorIcEEE3endB8ue170006Ev, symObjAddr: 0x28CC, symBinAddr: 0x1000050F8, symSize: 0x54 }
  - { offsetInCU: 0x1C0C6, offset: 0x1C0C6, size: 0x8, addend: 0x0, symName: __ZNKSt3__111__wrap_iterIPcEdeB8ue170006Ev, symObjAddr: 0x2954, symBinAddr: 0x100005180, symSize: 0x18 }
  - { offsetInCU: 0x1C0EC, offset: 0x1C0EC, size: 0x8, addend: 0x0, symName: __ZNSt3__111__wrap_iterIPcEppB8ue170006Ev, symObjAddr: 0x29C8, symBinAddr: 0x1000051F4, symSize: 0x20 }
  - { offsetInCU: 0x1C112, offset: 0x1C112, size: 0x8, addend: 0x0, symName: __ZNSt3__112basic_stringIcNS_11char_traitsIcEENS_9allocatorIcEEEaSB8ue170006EOS5_, symObjAddr: 0x29E8, symBinAddr: 0x100005214, symSize: 0x34 }
  - { offsetInCU: 0x1C152, offset: 0x1C152, size: 0x8, addend: 0x0, symName: __ZNSt3__16vectorI5TokenNS_9allocatorIS1_EEE12emplace_backIJNS1_9TokenTypeERA8_KcRiEEERS1_DpOT_, symObjAddr: 0x2AC8, symBinAddr: 0x1000052F4, symSize: 0x8C }
  - { offsetInCU: 0x1C1D5, offset: 0x1C1D5, size: 0x8, addend: 0x0, symName: __ZNSt3__16vectorI5TokenNS_9allocatorIS1_EEE12emplace_backIJNS1_9TokenTypeERA6_KcRiEEERS1_DpOT_, symObjAddr: 0x2B54, symBinAddr: 0x100005380, symSize: 0x8C }
  - { offsetInCU: 0x1C23F, offset: 0x1C23F, size: 0x8, addend: 0x0, symName: __ZNSt3__16vectorI5TokenNS_9allocatorIS1_EEE12emplace_backIJNS1_9TokenTypeERNS_12basic_stringIcNS_11char_traitsIcEENS2_IcEEEERiEEERS1_DpOT_, symObjAddr: 0x2BE0, symBinAddr: 0x10000540C, symSize: 0x8C }
  - { offsetInCU: 0x1C2A9, offset: 0x1C2A9, size: 0x8, addend: 0x0, symName: __ZNSt3__112basic_stringIcNS_11char_traitsIcEENS_9allocatorIcEEE15__make_iteratorB8ue170006EPc, symObjAddr: 0x2C6C, symBinAddr: 0x100005498, symSize: 0x30 }
  - { offsetInCU: 0x1C2DE, offset: 0x1C2DE, size: 0x8, addend: 0x0, symName: __ZNSt3__112basic_stringIcNS_11char_traitsIcEENS_9allocatorIcEEE13__get_pointerB8ue170006Ev, symObjAddr: 0x2C9C, symBinAddr: 0x1000054C8, symSize: 0x54 }
  - { offsetInCU: 0x1C304, offset: 0x1C304, size: 0x8, addend: 0x0, symName: __ZNSt3__111__wrap_iterIPcEC1B8ue170006ES1_, symObjAddr: 0x2CF0, symBinAddr: 0x10000551C, symSize: 0x34 }
  - { offsetInCU: 0x1C33C, offset: 0x1C33C, size: 0x8, addend: 0x0, symName: __ZNSt3__111__wrap_iterIPcEC2B8ue170006ES1_, symObjAddr: 0x2D24, symBinAddr: 0x100005550, symSize: 0x20 }
  - { offsetInCU: 0x1C374, offset: 0x1C374, size: 0x8, addend: 0x0, symName: __ZNKSt3__112basic_stringIcNS_11char_traitsIcEENS_9allocatorIcEEE9__is_longB8ue170006Ev, symObjAddr: 0x2D44, symBinAddr: 0x100005570, symSize: 0x38 }
  - { offsetInCU: 0x1C39A, offset: 0x1C39A, size: 0x8, addend: 0x0, symName: __ZNSt3__112basic_stringIcNS_11char_traitsIcEENS_9allocatorIcEEE18__get_long_pointerB8ue170006Ev, symObjAddr: 0x2D7C, symBinAddr: 0x1000055A8, symSize: 0x28 }
  - { offsetInCU: 0x1C3C0, offset: 0x1C3C0, size: 0x8, addend: 0x0, symName: __ZNSt3__112basic_stringIcNS_11char_traitsIcEENS_9allocatorIcEEE19__get_short_pointerB8ue170006Ev, symObjAddr: 0x2DA4, symBinAddr: 0x1000055D0, symSize: 0x28 }
  - { offsetInCU: 0x1C3E6, offset: 0x1C3E6, size: 0x8, addend: 0x0, symName: __ZNKSt3__117__compressed_pairINS_12basic_stringIcNS_11char_traitsIcEENS_9allocatorIcEEE5__repES5_E5firstB8ue170006Ev, symObjAddr: 0x2DCC, symBinAddr: 0x1000055F8, symSize: 0x24 }
  - { offsetInCU: 0x1C40C, offset: 0x1C40C, size: 0x8, addend: 0x0, symName: __ZNKSt3__122__compressed_pair_elemINS_12basic_stringIcNS_11char_traitsIcEENS_9allocatorIcEEE5__repELi0ELb0EE5__getB8ue170006Ev, symObjAddr: 0x2DF0, symBinAddr: 0x10000561C, symSize: 0x14 }
  - { offsetInCU: 0x1C432, offset: 0x1C432, size: 0x8, addend: 0x0, symName: __ZNSt3__114pointer_traitsIPcE10pointer_toB8ue170006ERc, symObjAddr: 0x2E04, symBinAddr: 0x100005630, symSize: 0x14 }
  - { offsetInCU: 0x1C455, offset: 0x1C455, size: 0x8, addend: 0x0, symName: __ZNKSt3__111__wrap_iterIPcE4baseB8ue170006Ev, symObjAddr: 0x2E60, symBinAddr: 0x10000568C, symSize: 0x18 }
  - { offsetInCU: 0x1C49C, offset: 0x1C49C, size: 0x8, addend: 0x0, symName: __ZNKSt3__113basic_ostreamIcNS_11char_traitsIcEEE6sentrycvbB8ue170006Ev, symObjAddr: 0x3064, symBinAddr: 0x100005890, symSize: 0x1C }
  - { offsetInCU: 0x1C4C2, offset: 0x1C4C2, size: 0x8, addend: 0x0, symName: __ZNSt3__119ostreambuf_iteratorIcNS_11char_traitsIcEEEC1B8ue170006ERNS_13basic_ostreamIcS2_EE, symObjAddr: 0x32C0, symBinAddr: 0x100005AEC, symSize: 0x34 }
  - { offsetInCU: 0x1C4FA, offset: 0x1C4FA, size: 0x8, addend: 0x0, symName: __ZNKSt3__18ios_base5flagsB8ue170006Ev, symObjAddr: 0x32F4, symBinAddr: 0x100005B20, symSize: 0x18 }
  - { offsetInCU: 0x1C522, offset: 0x1C522, size: 0x8, addend: 0x0, symName: __ZNKSt3__19basic_iosIcNS_11char_traitsIcEEE4fillB8ue170006Ev, symObjAddr: 0x330C, symBinAddr: 0x100005B38, symSize: 0x64 }
  - { offsetInCU: 0x1C54A, offset: 0x1C54A, size: 0x8, addend: 0x0, symName: __ZNKSt3__119ostreambuf_iteratorIcNS_11char_traitsIcEEE6failedB8ue170006Ev, symObjAddr: 0x3370, symBinAddr: 0x100005B9C, symSize: 0x24 }
  - { offsetInCU: 0x1C570, offset: 0x1C570, size: 0x8, addend: 0x0, symName: __ZNSt3__19basic_iosIcNS_11char_traitsIcEEE8setstateB8ue170006Ej, symObjAddr: 0x3394, symBinAddr: 0x100005BC0, symSize: 0x2C }
  - { offsetInCU: 0x1C5A5, offset: 0x1C5A5, size: 0x8, addend: 0x0, symName: __ZNKSt3__18ios_base5widthB8ue170006Ev, symObjAddr: 0x33C0, symBinAddr: 0x100005BEC, symSize: 0x18 }
  - { offsetInCU: 0x1C5CD, offset: 0x1C5CD, size: 0x8, addend: 0x0, symName: __ZNSt3__115basic_streambufIcNS_11char_traitsIcEEE5sputnB8ue170006EPKcl, symObjAddr: 0x33D8, symBinAddr: 0x100005C04, symSize: 0x3C }
  - { offsetInCU: 0x1C60F, offset: 0x1C60F, size: 0x8, addend: 0x0, symName: __ZNSt3__112basic_stringIcNS_11char_traitsIcEENS_9allocatorIcEEEC1B8ue170006Emc, symObjAddr: 0x3414, symBinAddr: 0x100005C40, symSize: 0x3C }
  - { offsetInCU: 0x1C657, offset: 0x1C657, size: 0x8, addend: 0x0, symName: __ZNSt3__112basic_stringIcNS_11char_traitsIcEENS_9allocatorIcEEE4dataB8ue170006Ev, symObjAddr: 0x3450, symBinAddr: 0x100005C7C, symSize: 0x28 }
  - { offsetInCU: 0x1C67D, offset: 0x1C67D, size: 0x8, addend: 0x0, symName: __ZNSt3__18ios_base5widthB8ue170006El, symObjAddr: 0x3478, symBinAddr: 0x100005CA4, symSize: 0x2C }
  - { offsetInCU: 0x1C6C3, offset: 0x1C6C3, size: 0x8, addend: 0x0, symName: __ZNSt3__112basic_stringIcNS_11char_traitsIcEENS_9allocatorIcEEEC2B8ue170006Emc, symObjAddr: 0x34A4, symBinAddr: 0x100005CD0, symSize: 0x4C }
  - { offsetInCU: 0x1C70B, offset: 0x1C70B, size: 0x8, addend: 0x0, symName: __ZNSt3__119ostreambuf_iteratorIcNS_11char_traitsIcEEEC2B8ue170006ERNS_13basic_ostreamIcS2_EE, symObjAddr: 0x34F0, symBinAddr: 0x100005D1C, symSize: 0x54 }
  - { offsetInCU: 0x1C743, offset: 0x1C743, size: 0x8, addend: 0x0, symName: __ZNKSt3__19basic_iosIcNS_11char_traitsIcEEE5rdbufB8ue170006Ev, symObjAddr: 0x3544, symBinAddr: 0x100005D70, symSize: 0x24 }
  - { offsetInCU: 0x1C76B, offset: 0x1C76B, size: 0x8, addend: 0x0, symName: __ZNKSt3__18ios_base5rdbufB8ue170006Ev, symObjAddr: 0x3568, symBinAddr: 0x100005D94, symSize: 0x18 }
  - { offsetInCU: 0x1C791, offset: 0x1C791, size: 0x8, addend: 0x0, symName: __ZNSt3__111char_traitsIcE11eq_int_typeB8ue170006Eii, symObjAddr: 0x3580, symBinAddr: 0x100005DAC, symSize: 0x28 }
  - { offsetInCU: 0x1C7C4, offset: 0x1C7C4, size: 0x8, addend: 0x0, symName: __ZNSt3__111char_traitsIcE3eofB8ue170006Ev, symObjAddr: 0x35A8, symBinAddr: 0x100005DD4, symSize: 0x8 }
  - { offsetInCU: 0x1C7D8, offset: 0x1C7D8, size: 0x8, addend: 0x0, symName: __ZNKSt3__19basic_iosIcNS_11char_traitsIcEEE5widenB8ue170006Ec, symObjAddr: 0x35B0, symBinAddr: 0x100005DDC, symSize: 0x84 }
  - { offsetInCU: 0x1C846, offset: 0x1C846, size: 0x8, addend: 0x0, symName: __ZNKSt3__15ctypeIcE5widenB8ue170006Ec, symObjAddr: 0x3660, symBinAddr: 0x100005E8C, symSize: 0x38 }
  - { offsetInCU: 0x1C87B, offset: 0x1C87B, size: 0x8, addend: 0x0, symName: __ZNSt3__18ios_base8setstateB8ue170006Ej, symObjAddr: 0x3698, symBinAddr: 0x100005EC4, symSize: 0x34 }
  - { offsetInCU: 0x1C8B2, offset: 0x1C8B2, size: 0x8, addend: 0x0, symName: __ZNSt3__112basic_stringIcNS_11char_traitsIcEENS_9allocatorIcEEE13__move_assignB8ue170006ERS5_NS_17integral_constantIbLb1EEE, symObjAddr: 0x36CC, symBinAddr: 0x100005EF8, symSize: 0xC8 }
  - { offsetInCU: 0x1C8F5, offset: 0x1C8F5, size: 0x8, addend: 0x0, symName: __ZNSt3__116allocator_traitsINS_9allocatorIcEEE10deallocateB8ue170006ERS2_Pcm, symObjAddr: 0x3794, symBinAddr: 0x100005FC0, symSize: 0x34 }
  - { offsetInCU: 0x1C937, offset: 0x1C937, size: 0x8, addend: 0x0, symName: __ZNSt3__112basic_stringIcNS_11char_traitsIcEENS_9allocatorIcEEE7__allocB8ue170006Ev, symObjAddr: 0x37C8, symBinAddr: 0x100005FF4, symSize: 0x24 }
  - { offsetInCU: 0x1C95D, offset: 0x1C95D, size: 0x8, addend: 0x0, symName: __ZNKSt3__112basic_stringIcNS_11char_traitsIcEENS_9allocatorIcEEE14__get_long_capB8ue170006Ev, symObjAddr: 0x37EC, symBinAddr: 0x100006018, symSize: 0x30 }
  - { offsetInCU: 0x1C983, offset: 0x1C983, size: 0x8, addend: 0x0, symName: __ZNSt3__112basic_stringIcNS_11char_traitsIcEENS_9allocatorIcEEE19__move_assign_allocB8ue170006ERS5_, symObjAddr: 0x381C, symBinAddr: 0x100006048, symSize: 0x2C }
  - { offsetInCU: 0x1C9B8, offset: 0x1C9B8, size: 0x8, addend: 0x0, symName: __ZNSt3__112basic_stringIcNS_11char_traitsIcEENS_9allocatorIcEEE16__set_short_sizeB8ue170006Em, symObjAddr: 0x3848, symBinAddr: 0x100006074, symSize: 0x78 }
  - { offsetInCU: 0x1C9ED, offset: 0x1C9ED, size: 0x8, addend: 0x0, symName: __ZNSt3__111char_traitsIcE6assignB8ue170006ERcRKc, symObjAddr: 0x38C0, symBinAddr: 0x1000060EC, symSize: 0x24 }
  - { offsetInCU: 0x1CA1E, offset: 0x1CA1E, size: 0x8, addend: 0x0, symName: __ZNSt3__19allocatorIcE10deallocateB8ue170006EPcm, symObjAddr: 0x38E4, symBinAddr: 0x100006110, symSize: 0x40 }
  - { offsetInCU: 0x1CA60, offset: 0x1CA60, size: 0x8, addend: 0x0, symName: __ZNSt3__117__compressed_pairINS_12basic_stringIcNS_11char_traitsIcEENS_9allocatorIcEEE5__repES5_E6secondB8ue170006Ev, symObjAddr: 0x3A4C, symBinAddr: 0x100006278, symSize: 0x24 }
  - { offsetInCU: 0x1CA86, offset: 0x1CA86, size: 0x8, addend: 0x0, symName: __ZNSt3__122__compressed_pair_elemINS_9allocatorIcEELi1ELb1EE5__getB8ue170006Ev, symObjAddr: 0x3A70, symBinAddr: 0x10000629C, symSize: 0x14 }
  - { offsetInCU: 0x1CAAC, offset: 0x1CAAC, size: 0x8, addend: 0x0, symName: __ZNSt3__112basic_stringIcNS_11char_traitsIcEENS_9allocatorIcEEE19__move_assign_allocB8ue170006ERS5_NS_17integral_constantIbLb1EEE, symObjAddr: 0x3A84, symBinAddr: 0x1000062B0, symSize: 0x38 }
  - { offsetInCU: 0x1CAED, offset: 0x1CAED, size: 0x8, addend: 0x0, symName: __ZNSt3__111char_traitsIcE6lengthB8ue170006EPKc, symObjAddr: 0x3ABC, symBinAddr: 0x1000062E8, symSize: 0x34 }
  - { offsetInCU: 0x1CB10, offset: 0x1CB10, size: 0x8, addend: 0x0, symName: __ZNSt3__16vectorI5TokenNS_9allocatorIS1_EEE9__end_capB8ue170006Ev, symObjAddr: 0x3B14, symBinAddr: 0x100006340, symSize: 0x28 }
  - { offsetInCU: 0x1CB36, offset: 0x1CB36, size: 0x8, addend: 0x0, symName: __ZNSt3__16vectorI5TokenNS_9allocatorIS1_EEE22__construct_one_at_endB8ue170006IJNS1_9TokenTypeERA8_KcRiEEEvDpOT_, symObjAddr: 0x3B3C, symBinAddr: 0x100006368, symSize: 0xA0 }
  - { offsetInCU: 0x1CBAD, offset: 0x1CBAD, size: 0x8, addend: 0x0, symName: __ZNSt3__16vectorI5TokenNS_9allocatorIS1_EEE24__emplace_back_slow_pathIJNS1_9TokenTypeERA8_KcRiEEEvDpOT_, symObjAddr: 0x3BDC, symBinAddr: 0x100006408, symSize: 0xE8 }
  - { offsetInCU: 0x1CC35, offset: 0x1CC35, size: 0x8, addend: 0x0, symName: __ZNSt3__16vectorI5TokenNS_9allocatorIS1_EEE4backB8ue170006Ev, symObjAddr: 0x3CC4, symBinAddr: 0x1000064F0, symSize: 0x1C }
  - { offsetInCU: 0x1CC5B, offset: 0x1CC5B, size: 0x8, addend: 0x0, symName: __ZNSt3__117__compressed_pairIP5TokenNS_9allocatorIS1_EEE5firstB8ue170006Ev, symObjAddr: 0x3CE0, symBinAddr: 0x10000650C, symSize: 0x24 }
  - { offsetInCU: 0x1CC81, offset: 0x1CC81, size: 0x8, addend: 0x0, symName: __ZNSt3__122__compressed_pair_elemIP5TokenLi0ELb0EE5__getB8ue170006Ev, symObjAddr: 0x3D04, symBinAddr: 0x100006530, symSize: 0x14 }
  - { offsetInCU: 0x1CCC2, offset: 0x1CCC2, size: 0x8, addend: 0x0, symName: __ZNSt3__16vectorI5TokenNS_9allocatorIS1_EEE21_ConstructTransactionC1B8ue170006ERS4_m, symObjAddr: 0x3D18, symBinAddr: 0x100006544, symSize: 0x3C }
  - { offsetInCU: 0x1CD0A, offset: 0x1CD0A, size: 0x8, addend: 0x0, symName: __ZNSt3__116allocator_traitsINS_9allocatorI5TokenEEE9constructB8ue170006IS2_JNS2_9TokenTypeERA8_KcRiEvEEvRS3_PT_DpOT0_, symObjAddr: 0x3D54, symBinAddr: 0x100006580, symSize: 0x44 }
  - { offsetInCU: 0x1CD89, offset: 0x1CD89, size: 0x8, addend: 0x0, symName: __ZNSt3__16vectorI5TokenNS_9allocatorIS1_EEE7__allocB8ue170006Ev, symObjAddr: 0x3D98, symBinAddr: 0x1000065C4, symSize: 0x28 }
  - { offsetInCU: 0x1CDAF, offset: 0x1CDAF, size: 0x8, addend: 0x0, symName: __ZNSt3__16vectorI5TokenNS_9allocatorIS1_EEE21_ConstructTransactionD1B8ue170006Ev, symObjAddr: 0x3DD4, symBinAddr: 0x100006600, symSize: 0x2C }
  - { offsetInCU: 0x1CDD9, offset: 0x1CDD9, size: 0x8, addend: 0x0, symName: __ZNSt3__16vectorI5TokenNS_9allocatorIS1_EEE21_ConstructTransactionC2B8ue170006ERS4_m, symObjAddr: 0x3E00, symBinAddr: 0x10000662C, symSize: 0x4C }
  - { offsetInCU: 0x1CE21, offset: 0x1CE21, size: 0x8, addend: 0x0, symName: __ZNSt3__19allocatorI5TokenE9constructB8ue170006IS1_JNS1_9TokenTypeERA8_KcRiEEEvPT_DpOT0_, symObjAddr: 0x3E4C, symBinAddr: 0x100006678, symSize: 0x94 }
  - { offsetInCU: 0x1CE9D, offset: 0x1CE9D, size: 0x8, addend: 0x0, symName: __ZN5TokenC1ENS_9TokenTypeENSt3__112basic_stringIcNS1_11char_traitsIcEENS1_9allocatorIcEEEEi, symObjAddr: 0x3EE0, symBinAddr: 0x10000670C, symSize: 0x44 }
  - { offsetInCU: 0x1CEF2, offset: 0x1CEF2, size: 0x8, addend: 0x0, symName: __ZN5TokenC2ENS_9TokenTypeENSt3__112basic_stringIcNS1_11char_traitsIcEENS1_9allocatorIcEEEEi, symObjAddr: 0x3F24, symBinAddr: 0x100006750, symSize: 0x4E0 }
  - { offsetInCU: 0x1CF4B, offset: 0x1CF4B, size: 0x8, addend: 0x0, symName: __ZNSt3__14pairIKN5Token9TokenTypeENS_12basic_stringIcNS_11char_traitsIcEENS_9allocatorIcEEEEEC1B8ue170006IS2_RA6_KcLPv0EEEOT_OT0_, symObjAddr: 0x4404, symBinAddr: 0x100006C30, symSize: 0x3C }
  - { offsetInCU: 0x1CFC2, offset: 0x1CFC2, size: 0x8, addend: 0x0, symName: __ZNSt3__14pairIKN5Token9TokenTypeENS_12basic_stringIcNS_11char_traitsIcEENS_9allocatorIcEEEEEC1B8ue170006IS2_RA7_KcLPv0EEEOT_OT0_, symObjAddr: 0x4440, symBinAddr: 0x100006C6C, symSize: 0x3C }
  - { offsetInCU: 0x1D039, offset: 0x1D039, size: 0x8, addend: 0x0, symName: __ZNSt3__14pairIKN5Token9TokenTypeENS_12basic_stringIcNS_11char_traitsIcEENS_9allocatorIcEEEEEC1B8ue170006IS2_RA11_KcLPv0EEEOT_OT0_, symObjAddr: 0x447C, symBinAddr: 0x100006CA8, symSize: 0x3C }
  - { offsetInCU: 0x1D0B0, offset: 0x1D0B0, size: 0x8, addend: 0x0, symName: __ZNSt3__14pairIKN5Token9TokenTypeENS_12basic_stringIcNS_11char_traitsIcEENS_9allocatorIcEEEEEC1B8ue170006IS2_RA12_KcLPv0EEEOT_OT0_, symObjAddr: 0x44B8, symBinAddr: 0x100006CE4, symSize: 0x3C }
  - { offsetInCU: 0x1D127, offset: 0x1D127, size: 0x8, addend: 0x0, symName: __ZNSt3__14pairIKN5Token9TokenTypeENS_12basic_stringIcNS_11char_traitsIcEENS_9allocatorIcEEEEEC1B8ue170006IS2_RA9_KcLPv0EEEOT_OT0_, symObjAddr: 0x44F4, symBinAddr: 0x100006D20, symSize: 0x3C }
  - { offsetInCU: 0x1D19E, offset: 0x1D19E, size: 0x8, addend: 0x0, symName: __ZNSt3__14pairIKN5Token9TokenTypeENS_12basic_stringIcNS_11char_traitsIcEENS_9allocatorIcEEEEEC1B8ue170006IS2_RA4_KcLPv0EEEOT_OT0_, symObjAddr: 0x4530, symBinAddr: 0x100006D5C, symSize: 0x3C }
  - { offsetInCU: 0x1D1FC, offset: 0x1D1FC, size: 0x8, addend: 0x0, symName: __ZNSt3__14pairIKN5Token9TokenTypeENS_12basic_stringIcNS_11char_traitsIcEENS_9allocatorIcEEEEEC1B8ue170006IS2_RA8_KcLPv0EEEOT_OT0_, symObjAddr: 0x456C, symBinAddr: 0x100006D98, symSize: 0x3C }
  - { offsetInCU: 0x1D273, offset: 0x1D273, size: 0x8, addend: 0x0, symName: __ZNSt3__14pairIKN5Token9TokenTypeENS_12basic_stringIcNS_11char_traitsIcEENS_9allocatorIcEEEEEC1B8ue170006IS2_RA3_KcLPv0EEEOT_OT0_, symObjAddr: 0x45A8, symBinAddr: 0x100006DD4, symSize: 0x3C }
  - { offsetInCU: 0x1D2EA, offset: 0x1D2EA, size: 0x8, addend: 0x0, symName: __ZNSt3__14pairIKN5Token9TokenTypeENS_12basic_stringIcNS_11char_traitsIcEENS_9allocatorIcEEEEEC1B8ue170006IS2_RA10_KcLPv0EEEOT_OT0_, symObjAddr: 0x45E4, symBinAddr: 0x100006E10, symSize: 0x3C }
  - { offsetInCU: 0x1D348, offset: 0x1D348, size: 0x8, addend: 0x0, symName: __ZNSt3__14pairIKN5Token9TokenTypeENS_12basic_stringIcNS_11char_traitsIcEENS_9allocatorIcEEEEED1Ev, symObjAddr: 0x4620, symBinAddr: 0x100006E4C, symSize: 0x2C }
  - { offsetInCU: 0x1D374, offset: 0x1D374, size: 0x8, addend: 0x0, symName: __ZNSt3__113unordered_mapIN5Token9TokenTypeENS_12basic_stringIcNS_11char_traitsIcEENS_9allocatorIcEEEENS_4hashIS2_EENS_8equal_toIS2_EENS6_INS_4pairIKS2_S8_EEEEEC1ESt16initializer_listISF_E, symObjAddr: 0x464C, symBinAddr: 0x100006E78, symSize: 0x3C }
  - { offsetInCU: 0x1D3AF, offset: 0x1D3AF, size: 0x8, addend: 0x0, symName: __ZNSt3__113unordered_mapIN5Token9TokenTypeENS_12basic_stringIcNS_11char_traitsIcEENS_9allocatorIcEEEENS_4hashIS2_EENS_8equal_toIS2_EENS6_INS_4pairIKS2_S8_EEEEED1B8ue170006Ev, symObjAddr: 0x4688, symBinAddr: 0x100006EB4, symSize: 0x2C }
  - { offsetInCU: 0x1D3D9, offset: 0x1D3D9, size: 0x8, addend: 0x0, symName: __ZNSt3__14pairIKN5Token9TokenTypeENS_12basic_stringIcNS_11char_traitsIcEENS_9allocatorIcEEEEEC2B8ue170006IS2_RA6_KcLPv0EEEOT_OT0_, symObjAddr: 0x46B4, symBinAddr: 0x100006EE0, symSize: 0x48 }
  - { offsetInCU: 0x1D437, offset: 0x1D437, size: 0x8, addend: 0x0, symName: __ZNSt3__14pairIKN5Token9TokenTypeENS_12basic_stringIcNS_11char_traitsIcEENS_9allocatorIcEEEEEC2B8ue170006IS2_RA7_KcLPv0EEEOT_OT0_, symObjAddr: 0x46FC, symBinAddr: 0x100006F28, symSize: 0x48 }
  - { offsetInCU: 0x1D495, offset: 0x1D495, size: 0x8, addend: 0x0, symName: __ZNSt3__14pairIKN5Token9TokenTypeENS_12basic_stringIcNS_11char_traitsIcEENS_9allocatorIcEEEEEC2B8ue170006IS2_RA11_KcLPv0EEEOT_OT0_, symObjAddr: 0x4744, symBinAddr: 0x100006F70, symSize: 0x48 }
  - { offsetInCU: 0x1D4F3, offset: 0x1D4F3, size: 0x8, addend: 0x0, symName: __ZNSt3__14pairIKN5Token9TokenTypeENS_12basic_stringIcNS_11char_traitsIcEENS_9allocatorIcEEEEEC2B8ue170006IS2_RA12_KcLPv0EEEOT_OT0_, symObjAddr: 0x478C, symBinAddr: 0x100006FB8, symSize: 0x48 }
  - { offsetInCU: 0x1D551, offset: 0x1D551, size: 0x8, addend: 0x0, symName: __ZNSt3__14pairIKN5Token9TokenTypeENS_12basic_stringIcNS_11char_traitsIcEENS_9allocatorIcEEEEEC2B8ue170006IS2_RA9_KcLPv0EEEOT_OT0_, symObjAddr: 0x47D4, symBinAddr: 0x100007000, symSize: 0x48 }
  - { offsetInCU: 0x1D5AF, offset: 0x1D5AF, size: 0x8, addend: 0x0, symName: __ZNSt3__14pairIKN5Token9TokenTypeENS_12basic_stringIcNS_11char_traitsIcEENS_9allocatorIcEEEEEC2B8ue170006IS2_RA4_KcLPv0EEEOT_OT0_, symObjAddr: 0x481C, symBinAddr: 0x100007048, symSize: 0x48 }
  - { offsetInCU: 0x1D60D, offset: 0x1D60D, size: 0x8, addend: 0x0, symName: __ZNSt3__14pairIKN5Token9TokenTypeENS_12basic_stringIcNS_11char_traitsIcEENS_9allocatorIcEEEEEC2B8ue170006IS2_RA8_KcLPv0EEEOT_OT0_, symObjAddr: 0x4864, symBinAddr: 0x100007090, symSize: 0x48 }
  - { offsetInCU: 0x1D66B, offset: 0x1D66B, size: 0x8, addend: 0x0, symName: __ZNSt3__14pairIKN5Token9TokenTypeENS_12basic_stringIcNS_11char_traitsIcEENS_9allocatorIcEEEEEC2B8ue170006IS2_RA3_KcLPv0EEEOT_OT0_, symObjAddr: 0x48AC, symBinAddr: 0x1000070D8, symSize: 0x48 }
  - { offsetInCU: 0x1D6C9, offset: 0x1D6C9, size: 0x8, addend: 0x0, symName: __ZNSt3__14pairIKN5Token9TokenTypeENS_12basic_stringIcNS_11char_traitsIcEENS_9allocatorIcEEEEEC2B8ue170006IS2_RA10_KcLPv0EEEOT_OT0_, symObjAddr: 0x48F4, symBinAddr: 0x100007120, symSize: 0x48 }
  - { offsetInCU: 0x1D727, offset: 0x1D727, size: 0x8, addend: 0x0, symName: __ZNSt3__14pairIKN5Token9TokenTypeENS_12basic_stringIcNS_11char_traitsIcEENS_9allocatorIcEEEEED2Ev, symObjAddr: 0x493C, symBinAddr: 0x100007168, symSize: 0x30 }
  - { offsetInCU: 0x1D753, offset: 0x1D753, size: 0x8, addend: 0x0, symName: __ZNSt3__113unordered_mapIN5Token9TokenTypeENS_12basic_stringIcNS_11char_traitsIcEENS_9allocatorIcEEEENS_4hashIS2_EENS_8equal_toIS2_EENS6_INS_4pairIKS2_S8_EEEEEC2ESt16initializer_listISF_E, symObjAddr: 0x496C, symBinAddr: 0x100007198, symSize: 0x8C }
  - { offsetInCU: 0x1D78E, offset: 0x1D78E, size: 0x8, addend: 0x0, symName: __ZNSt3__112__hash_tableINS_17__hash_value_typeIN5Token9TokenTypeENS_12basic_stringIcNS_11char_traitsIcEENS_9allocatorIcEEEEEENS_22__unordered_map_hasherIS3_SA_NS_4hashIS3_EENS_8equal_toIS3_EELb1EEENS_21__unordered_map_equalIS3_SA_SF_SD_Lb1EEENS7_ISA_EEEC1Ev, symObjAddr: 0x49F8, symBinAddr: 0x100007224, symSize: 0x2C }
  - { offsetInCU: 0x1D7BA, offset: 0x1D7BA, size: 0x8, addend: 0x0, symName: __ZNSt3__113unordered_mapIN5Token9TokenTypeENS_12basic_stringIcNS_11char_traitsIcEENS_9allocatorIcEEEENS_4hashIS2_EENS_8equal_toIS2_EENS6_INS_4pairIKS2_S8_EEEEE6insertIPKSF_EEvT_SL_, symObjAddr: 0x4A24, symBinAddr: 0x100007250, symSize: 0x70 }
  - { offsetInCU: 0x1D809, offset: 0x1D809, size: 0x8, addend: 0x0, symName: __ZNKSt16initializer_listINSt3__14pairIKN5Token9TokenTypeENS0_12basic_stringIcNS0_11char_traitsIcEENS0_9allocatorIcEEEEEEE5beginB8ue170006Ev, symObjAddr: 0x4A94, symBinAddr: 0x1000072C0, symSize: 0x18 }
  - { offsetInCU: 0x1D82F, offset: 0x1D82F, size: 0x8, addend: 0x0, symName: __ZNKSt16initializer_listINSt3__14pairIKN5Token9TokenTypeENS0_12basic_stringIcNS0_11char_traitsIcEENS0_9allocatorIcEEEEEEE3endB8ue170006Ev, symObjAddr: 0x4AAC, symBinAddr: 0x1000072D8, symSize: 0x20 }
  - { offsetInCU: 0x1D855, offset: 0x1D855, size: 0x8, addend: 0x0, symName: __ZNSt3__112__hash_tableINS_17__hash_value_typeIN5Token9TokenTypeENS_12basic_stringIcNS_11char_traitsIcEENS_9allocatorIcEEEEEENS_22__unordered_map_hasherIS3_SA_NS_4hashIS3_EENS_8equal_toIS3_EELb1EEENS_21__unordered_map_equalIS3_SA_SF_SD_Lb1EEENS7_ISA_EEED1Ev, symObjAddr: 0x4ACC, symBinAddr: 0x1000072F8, symSize: 0x2C }
  - { offsetInCU: 0x1D881, offset: 0x1D881, size: 0x8, addend: 0x0, symName: __ZNSt3__112__hash_tableINS_17__hash_value_typeIN5Token9TokenTypeENS_12basic_stringIcNS_11char_traitsIcEENS_9allocatorIcEEEEEENS_22__unordered_map_hasherIS3_SA_NS_4hashIS3_EENS_8equal_toIS3_EELb1EEENS_21__unordered_map_equalIS3_SA_SF_SD_Lb1EEENS7_ISA_EEEC2Ev, symObjAddr: 0x4AF8, symBinAddr: 0x100007324, symSize: 0x7C }
  - { offsetInCU: 0x1D8AD, offset: 0x1D8AD, size: 0x8, addend: 0x0, symName: __ZNSt3__110unique_ptrIA_PNS_16__hash_node_baseIPNS_11__hash_nodeINS_17__hash_value_typeIN5Token9TokenTypeENS_12basic_stringIcNS_11char_traitsIcEENS_9allocatorIcEEEEEEPvEEEENS_25__bucket_list_deallocatorINS9_ISH_EEEEEC1B8ue170006ILb1EvEEv, symObjAddr: 0x4B74, symBinAddr: 0x1000073A0, symSize: 0x2C }
  - { offsetInCU: 0x1D8E2, offset: 0x1D8E2, size: 0x8, addend: 0x0, symName: __ZNSt3__117__compressed_pairINS_16__hash_node_baseIPNS_11__hash_nodeINS_17__hash_value_typeIN5Token9TokenTypeENS_12basic_stringIcNS_11char_traitsIcEENS_9allocatorIcEEEEEEPvEEEENS9_ISE_EEEC1B8ue170006ILb1EvEEv, symObjAddr: 0x4BA0, symBinAddr: 0x1000073CC, symSize: 0x2C }
  - { offsetInCU: 0x1D917, offset: 0x1D917, size: 0x8, addend: 0x0, symName: __ZNSt3__117__compressed_pairImNS_22__unordered_map_hasherIN5Token9TokenTypeENS_17__hash_value_typeIS3_NS_12basic_stringIcNS_11char_traitsIcEENS_9allocatorIcEEEEEENS_4hashIS3_EENS_8equal_toIS3_EELb1EEEEC1B8ue170006IiNS_18__default_init_tagEEEOT_OT0_, symObjAddr: 0x4BCC, symBinAddr: 0x1000073F8, symSize: 0x3C }
  - { offsetInCU: 0x1D975, offset: 0x1D975, size: 0x8, addend: 0x0, symName: __ZNSt3__117__compressed_pairIfNS_21__unordered_map_equalIN5Token9TokenTypeENS_17__hash_value_typeIS3_NS_12basic_stringIcNS_11char_traitsIcEENS_9allocatorIcEEEEEENS_8equal_toIS3_EENS_4hashIS3_EELb1EEEEC1B8ue170006IfNS_18__default_init_tagEEEOT_OT0_, symObjAddr: 0x4C08, symBinAddr: 0x100007434, symSize: 0x3C }
  - { offsetInCU: 0x1D9CD, offset: 0x1D9CD, size: 0x8, addend: 0x0, symName: __ZNSt3__110unique_ptrIA_PNS_16__hash_node_baseIPNS_11__hash_nodeINS_17__hash_value_typeIN5Token9TokenTypeENS_12basic_stringIcNS_11char_traitsIcEENS_9allocatorIcEEEEEEPvEEEENS_25__bucket_list_deallocatorINS9_ISH_EEEEEC2B8ue170006ILb1EvEEv, symObjAddr: 0x4C44, symBinAddr: 0x100007470, symSize: 0x3C }
  - { offsetInCU: 0x1DA08, offset: 0x1DA08, size: 0x8, addend: 0x0, symName: __ZNSt3__117__compressed_pairIPPNS_16__hash_node_baseIPNS_11__hash_nodeINS_17__hash_value_typeIN5Token9TokenTypeENS_12basic_stringIcNS_11char_traitsIcEENS_9allocatorIcEEEEEEPvEEEENS_25__bucket_list_deallocatorINS9_ISH_EEEEEC1B8ue170006INS_16__value_init_tagESO_EEOT_OT0_, symObjAddr: 0x4C80, symBinAddr: 0x1000074AC, symSize: 0x3C }
  - { offsetInCU: 0x1DA60, offset: 0x1DA60, size: 0x8, addend: 0x0, symName: __ZNSt3__117__compressed_pairIPPNS_16__hash_node_baseIPNS_11__hash_nodeINS_17__hash_value_typeIN5Token9TokenTypeENS_12basic_stringIcNS_11char_traitsIcEENS_9allocatorIcEEEEEEPvEEEENS_25__bucket_list_deallocatorINS9_ISH_EEEEEC2B8ue170006INS_16__value_init_tagESO_EEOT_OT0_, symObjAddr: 0x4CBC, symBinAddr: 0x1000074E8, symSize: 0x40 }
  - { offsetInCU: 0x1DAB8, offset: 0x1DAB8, size: 0x8, addend: 0x0, symName: __ZNSt3__122__compressed_pair_elemIPPNS_16__hash_node_baseIPNS_11__hash_nodeINS_17__hash_value_typeIN5Token9TokenTypeENS_12basic_stringIcNS_11char_traitsIcEENS_9allocatorIcEEEEEEPvEEEELi0ELb0EEC2B8ue170006ENS_16__value_init_tagE, symObjAddr: 0x4CFC, symBinAddr: 0x100007528, symSize: 0x18 }
  - { offsetInCU: 0x1DAED, offset: 0x1DAED, size: 0x8, addend: 0x0, symName: __ZNSt3__122__compressed_pair_elemINS_25__bucket_list_deallocatorINS_9allocatorIPNS_16__hash_node_baseIPNS_11__hash_nodeINS_17__hash_value_typeIN5Token9TokenTypeENS_12basic_stringIcNS_11char_traitsIcEENS2_IcEEEEEEPvEEEEEEEELi1ELb0EEC2B8ue170006ENS_16__value_init_tagE, symObjAddr: 0x4D14, symBinAddr: 0x100007540, symSize: 0x2C }
  - { offsetInCU: 0x1DB22, offset: 0x1DB22, size: 0x8, addend: 0x0, symName: __ZNSt3__125__bucket_list_deallocatorINS_9allocatorIPNS_16__hash_node_baseIPNS_11__hash_nodeINS_17__hash_value_typeIN5Token9TokenTypeENS_12basic_stringIcNS_11char_traitsIcEENS1_IcEEEEEEPvEEEEEEEC1B8ue170006Ev, symObjAddr: 0x4D40, symBinAddr: 0x10000756C, symSize: 0x2C }
  - { offsetInCU: 0x1DB4C, offset: 0x1DB4C, size: 0x8, addend: 0x0, symName: __ZNSt3__125__bucket_list_deallocatorINS_9allocatorIPNS_16__hash_node_baseIPNS_11__hash_nodeINS_17__hash_value_typeIN5Token9TokenTypeENS_12basic_stringIcNS_11char_traitsIcEENS1_IcEEEEEEPvEEEEEEEC2B8ue170006Ev, symObjAddr: 0x4D6C, symBinAddr: 0x100007598, symSize: 0x40 }
  - { offsetInCU: 0x1DB76, offset: 0x1DB76, size: 0x8, addend: 0x0, symName: __ZNSt3__117__compressed_pairImNS_9allocatorIPNS_16__hash_node_baseIPNS_11__hash_nodeINS_17__hash_value_typeIN5Token9TokenTypeENS_12basic_stringIcNS_11char_traitsIcEENS1_IcEEEEEEPvEEEEEEEC1B8ue170006IiNS_18__default_init_tagEEEOT_OT0_, symObjAddr: 0x4DAC, symBinAddr: 0x1000075D8, symSize: 0x3C }
  - { offsetInCU: 0x1DBCE, offset: 0x1DBCE, size: 0x8, addend: 0x0, symName: __ZNSt3__117__compressed_pairImNS_9allocatorIPNS_16__hash_node_baseIPNS_11__hash_nodeINS_17__hash_value_typeIN5Token9TokenTypeENS_12basic_stringIcNS_11char_traitsIcEENS1_IcEEEEEEPvEEEEEEEC2B8ue170006IiNS_18__default_init_tagEEEOT_OT0_, symObjAddr: 0x4DE8, symBinAddr: 0x100007614, symSize: 0x40 }
  - { offsetInCU: 0x1DC26, offset: 0x1DC26, size: 0x8, addend: 0x0, symName: __ZNSt3__122__compressed_pair_elemINS_9allocatorIPNS_16__hash_node_baseIPNS_11__hash_nodeINS_17__hash_value_typeIN5Token9TokenTypeENS_12basic_stringIcNS_11char_traitsIcEENS1_IcEEEEEEPvEEEEEELi1ELb1EEC2B8ue170006ENS_18__default_init_tagE, symObjAddr: 0x4E28, symBinAddr: 0x100007654, symSize: 0x2C }
  - { offsetInCU: 0x1DC5B, offset: 0x1DC5B, size: 0x8, addend: 0x0, symName: __ZNSt3__19allocatorIPNS_16__hash_node_baseIPNS_11__hash_nodeINS_17__hash_value_typeIN5Token9TokenTypeENS_12basic_stringIcNS_11char_traitsIcEENS0_IcEEEEEEPvEEEEEC2B8ue170006Ev, symObjAddr: 0x4E54, symBinAddr: 0x100007680, symSize: 0x2C }
  - { offsetInCU: 0x1DC85, offset: 0x1DC85, size: 0x8, addend: 0x0, symName: __ZNSt3__116__non_trivial_ifILb1ENS_9allocatorIPNS_16__hash_node_baseIPNS_11__hash_nodeINS_17__hash_value_typeIN5Token9TokenTypeENS_12basic_stringIcNS_11char_traitsIcEENS1_IcEEEEEEPvEEEEEEEC2B8ue170006Ev, symObjAddr: 0x4E80, symBinAddr: 0x1000076AC, symSize: 0x14 }
  - { offsetInCU: 0x1DCAF, offset: 0x1DCAF, size: 0x8, addend: 0x0, symName: __ZNSt3__117__compressed_pairINS_16__hash_node_baseIPNS_11__hash_nodeINS_17__hash_value_typeIN5Token9TokenTypeENS_12basic_stringIcNS_11char_traitsIcEENS_9allocatorIcEEEEEEPvEEEENS9_ISE_EEEC2B8ue170006ILb1EvEEv, symObjAddr: 0x4E94, symBinAddr: 0x1000076C0, symSize: 0x34 }
  - { offsetInCU: 0x1DCE4, offset: 0x1DCE4, size: 0x8, addend: 0x0, symName: __ZNSt3__122__compressed_pair_elemINS_16__hash_node_baseIPNS_11__hash_nodeINS_17__hash_value_typeIN5Token9TokenTypeENS_12basic_stringIcNS_11char_traitsIcEENS_9allocatorIcEEEEEEPvEEEELi0ELb0EEC2B8ue170006ENS_16__value_init_tagE, symObjAddr: 0x4EC8, symBinAddr: 0x1000076F4, symSize: 0x2C }
  - { offsetInCU: 0x1DD19, offset: 0x1DD19, size: 0x8, addend: 0x0, symName: __ZNSt3__122__compressed_pair_elemINS_9allocatorINS_11__hash_nodeINS_17__hash_value_typeIN5Token9TokenTypeENS_12basic_stringIcNS_11char_traitsIcEENS1_IcEEEEEEPvEEEELi1ELb1EEC2B8ue170006ENS_16__value_init_tagE, symObjAddr: 0x4EF4, symBinAddr: 0x100007720, symSize: 0x2C }
  - { offsetInCU: 0x1DD4E, offset: 0x1DD4E, size: 0x8, addend: 0x0, symName: __ZNSt3__116__hash_node_baseIPNS_11__hash_nodeINS_17__hash_value_typeIN5Token9TokenTypeENS_12basic_stringIcNS_11char_traitsIcEENS_9allocatorIcEEEEEEPvEEEC1B8ue170006Ev, symObjAddr: 0x4F20, symBinAddr: 0x10000774C, symSize: 0x2C }
  - { offsetInCU: 0x1DD78, offset: 0x1DD78, size: 0x8, addend: 0x0, symName: __ZNSt3__116__hash_node_baseIPNS_11__hash_nodeINS_17__hash_value_typeIN5Token9TokenTypeENS_12basic_stringIcNS_11char_traitsIcEENS_9allocatorIcEEEEEEPvEEEC2B8ue170006Ev, symObjAddr: 0x4F4C, symBinAddr: 0x100007778, symSize: 0x18 }
  - { offsetInCU: 0x1DDA2, offset: 0x1DDA2, size: 0x8, addend: 0x0, symName: __ZNSt3__19allocatorINS_11__hash_nodeINS_17__hash_value_typeIN5Token9TokenTypeENS_12basic_stringIcNS_11char_traitsIcEENS0_IcEEEEEEPvEEEC2B8ue170006Ev, symObjAddr: 0x4F64, symBinAddr: 0x100007790, symSize: 0x2C }
  - { offsetInCU: 0x1DDCC, offset: 0x1DDCC, size: 0x8, addend: 0x0, symName: __ZNSt3__116__non_trivial_ifILb1ENS_9allocatorINS_11__hash_nodeINS_17__hash_value_typeIN5Token9TokenTypeENS_12basic_stringIcNS_11char_traitsIcEENS1_IcEEEEEEPvEEEEEC2B8ue170006Ev, symObjAddr: 0x4F90, symBinAddr: 0x1000077BC, symSize: 0x14 }
  - { offsetInCU: 0x1DDF6, offset: 0x1DDF6, size: 0x8, addend: 0x0, symName: __ZNSt3__117__compressed_pairImNS_22__unordered_map_hasherIN5Token9TokenTypeENS_17__hash_value_typeIS3_NS_12basic_stringIcNS_11char_traitsIcEENS_9allocatorIcEEEEEENS_4hashIS3_EENS_8equal_toIS3_EELb1EEEEC2B8ue170006IiNS_18__default_init_tagEEEOT_OT0_, symObjAddr: 0x4FA4, symBinAddr: 0x1000077D0, symSize: 0x40 }
  - { offsetInCU: 0x1DE4E, offset: 0x1DE4E, size: 0x8, addend: 0x0, symName: __ZNSt3__122__compressed_pair_elemINS_22__unordered_map_hasherIN5Token9TokenTypeENS_17__hash_value_typeIS3_NS_12basic_stringIcNS_11char_traitsIcEENS_9allocatorIcEEEEEENS_4hashIS3_EENS_8equal_toIS3_EELb1EEELi1ELb1EEC2B8ue170006ENS_18__default_init_tagE, symObjAddr: 0x4FE4, symBinAddr: 0x100007810, symSize: 0x2C }
  - { offsetInCU: 0x1DE83, offset: 0x1DE83, size: 0x8, addend: 0x0, symName: __ZNSt3__122__unordered_map_hasherIN5Token9TokenTypeENS_17__hash_value_typeIS2_NS_12basic_stringIcNS_11char_traitsIcEENS_9allocatorIcEEEEEENS_4hashIS2_EENS_8equal_toIS2_EELb1EEC2B8ue170006Ev, symObjAddr: 0x5010, symBinAddr: 0x10000783C, symSize: 0x14 }
  - { offsetInCU: 0x1DEAD, offset: 0x1DEAD, size: 0x8, addend: 0x0, symName: __ZNSt3__117__compressed_pairIfNS_21__unordered_map_equalIN5Token9TokenTypeENS_17__hash_value_typeIS3_NS_12basic_stringIcNS_11char_traitsIcEENS_9allocatorIcEEEEEENS_8equal_toIS3_EENS_4hashIS3_EELb1EEEEC2B8ue170006IfNS_18__default_init_tagEEEOT_OT0_, symObjAddr: 0x5024, symBinAddr: 0x100007850, symSize: 0x40 }
  - { offsetInCU: 0x1DF05, offset: 0x1DF05, size: 0x8, addend: 0x0, symName: __ZNSt3__122__compressed_pair_elemIfLi0ELb0EEC2B8ue170006IfvEEOT_, symObjAddr: 0x5064, symBinAddr: 0x100007890, symSize: 0x24 }
  - { offsetInCU: 0x1DF47, offset: 0x1DF47, size: 0x8, addend: 0x0, symName: __ZNSt3__122__compressed_pair_elemINS_21__unordered_map_equalIN5Token9TokenTypeENS_17__hash_value_typeIS3_NS_12basic_stringIcNS_11char_traitsIcEENS_9allocatorIcEEEEEENS_8equal_toIS3_EENS_4hashIS3_EELb1EEELi1ELb1EEC2B8ue170006ENS_18__default_init_tagE, symObjAddr: 0x5088, symBinAddr: 0x1000078B4, symSize: 0x2C }
  - { offsetInCU: 0x1DF7C, offset: 0x1DF7C, size: 0x8, addend: 0x0, symName: __ZNSt3__121__unordered_map_equalIN5Token9TokenTypeENS_17__hash_value_typeIS2_NS_12basic_stringIcNS_11char_traitsIcEENS_9allocatorIcEEEEEENS_8equal_toIS2_EENS_4hashIS2_EELb1EEC2B8ue170006Ev, symObjAddr: 0x50B4, symBinAddr: 0x1000078E0, symSize: 0x14 }
  - { offsetInCU: 0x1DFA6, offset: 0x1DFA6, size: 0x8, addend: 0x0, symName: __ZNSt3__112__hash_tableINS_17__hash_value_typeIN5Token9TokenTypeENS_12basic_stringIcNS_11char_traitsIcEENS_9allocatorIcEEEEEENS_22__unordered_map_hasherIS3_SA_NS_4hashIS3_EENS_8equal_toIS3_EELb1EEENS_21__unordered_map_equalIS3_SA_SF_SD_Lb1EEENS7_ISA_EEE15__insert_uniqueB8ue170006ERKNS_4pairIKS3_S9_EE, symObjAddr: 0x50C8, symBinAddr: 0x1000078F4, symSize: 0x50 }
  - { offsetInCU: 0x1DFDB, offset: 0x1DFDB, size: 0x8, addend: 0x0, symName: __ZNSt3__112__hash_tableINS_17__hash_value_typeIN5Token9TokenTypeENS_12basic_stringIcNS_11char_traitsIcEENS_9allocatorIcEEEEEENS_22__unordered_map_hasherIS3_SA_NS_4hashIS3_EENS_8equal_toIS3_EELb1EEENS_21__unordered_map_equalIS3_SA_SF_SD_Lb1EEENS7_ISA_EEE25__emplace_unique_key_argsIS3_JRKNS_4pairIKS3_S9_EEEEENSM_INS_15__hash_iteratorIPNS_11__hash_nodeISA_PvEEEEbEERKT_DpOT0_, symObjAddr: 0x5118, symBinAddr: 0x100007944, symSize: 0x4D8 }
  - { offsetInCU: 0x1E0BB, offset: 0x1E0BB, size: 0x8, addend: 0x0, symName: __ZNSt3__122__hash_key_value_typesINS_17__hash_value_typeIN5Token9TokenTypeENS_12basic_stringIcNS_11char_traitsIcEENS_9allocatorIcEEEEEEE9__get_keyB8ue170006ERKNS_4pairIKS3_S9_EE, symObjAddr: 0x55F0, symBinAddr: 0x100007E1C, symSize: 0x14 }
  - { offsetInCU: 0x1E0DE, offset: 0x1E0DE, size: 0x8, addend: 0x0, symName: __ZNSt3__112__hash_tableINS_17__hash_value_typeIN5Token9TokenTypeENS_12basic_stringIcNS_11char_traitsIcEENS_9allocatorIcEEEEEENS_22__unordered_map_hasherIS3_SA_NS_4hashIS3_EENS_8equal_toIS3_EELb1EEENS_21__unordered_map_equalIS3_SA_SF_SD_Lb1EEENS7_ISA_EEE13hash_functionB8ue170006Ev, symObjAddr: 0x5604, symBinAddr: 0x100007E30, symSize: 0x28 }
  - { offsetInCU: 0x1E104, offset: 0x1E104, size: 0x8, addend: 0x0, symName: __ZNKSt3__122__unordered_map_hasherIN5Token9TokenTypeENS_17__hash_value_typeIS2_NS_12basic_stringIcNS_11char_traitsIcEENS_9allocatorIcEEEEEENS_4hashIS2_EENS_8equal_toIS2_EELb1EEclB8ue170006ERKS2_, symObjAddr: 0x562C, symBinAddr: 0x100007E58, symSize: 0x30 }
  - { offsetInCU: 0x1E139, offset: 0x1E139, size: 0x8, addend: 0x0, symName: __ZNKSt3__112__hash_tableINS_17__hash_value_typeIN5Token9TokenTypeENS_12basic_stringIcNS_11char_traitsIcEENS_9allocatorIcEEEEEENS_22__unordered_map_hasherIS3_SA_NS_4hashIS3_EENS_8equal_toIS3_EELb1EEENS_21__unordered_map_equalIS3_SA_SF_SD_Lb1EEENS7_ISA_EEE12bucket_countB8ue170006Ev, symObjAddr: 0x565C, symBinAddr: 0x100007E88, symSize: 0x28 }
  - { offsetInCU: 0x1E15F, offset: 0x1E15F, size: 0x8, addend: 0x0, symName: __ZNKSt3__110unique_ptrIA_PNS_16__hash_node_baseIPNS_11__hash_nodeINS_17__hash_value_typeIN5Token9TokenTypeENS_12basic_stringIcNS_11char_traitsIcEENS_9allocatorIcEEEEEEPvEEEENS_25__bucket_list_deallocatorINS9_ISH_EEEEEixB8ue170006Em, symObjAddr: 0x571C, symBinAddr: 0x100007F48, symSize: 0x34 }
  - { offsetInCU: 0x1E194, offset: 0x1E194, size: 0x8, addend: 0x0, symName: __ZNKSt3__116__hash_node_baseIPNS_11__hash_nodeINS_17__hash_value_typeIN5Token9TokenTypeENS_12basic_stringIcNS_11char_traitsIcEENS_9allocatorIcEEEEEEPvEEE6__hashB8ue170006Ev, symObjAddr: 0x5750, symBinAddr: 0x100007F7C, symSize: 0x18 }
  - { offsetInCU: 0x1E1BA, offset: 0x1E1BA, size: 0x8, addend: 0x0, symName: __ZNSt3__112__hash_tableINS_17__hash_value_typeIN5Token9TokenTypeENS_12basic_stringIcNS_11char_traitsIcEENS_9allocatorIcEEEEEENS_22__unordered_map_hasherIS3_SA_NS_4hashIS3_EENS_8equal_toIS3_EELb1EEENS_21__unordered_map_equalIS3_SA_SF_SD_Lb1EEENS7_ISA_EEE6key_eqB8ue170006Ev, symObjAddr: 0x5768, symBinAddr: 0x100007F94, symSize: 0x28 }
  - { offsetInCU: 0x1E1E0, offset: 0x1E1E0, size: 0x8, addend: 0x0, symName: __ZNKSt3__121__unordered_map_equalIN5Token9TokenTypeENS_17__hash_value_typeIS2_NS_12basic_stringIcNS_11char_traitsIcEENS_9allocatorIcEEEEEENS_8equal_toIS2_EENS_4hashIS2_EELb1EEclB8ue170006ERKSA_RKS2_, symObjAddr: 0x5790, symBinAddr: 0x100007FBC, symSize: 0x48 }
  - { offsetInCU: 0x1E224, offset: 0x1E224, size: 0x8, addend: 0x0, symName: __ZNSt3__116__hash_node_baseIPNS_11__hash_nodeINS_17__hash_value_typeIN5Token9TokenTypeENS_12basic_stringIcNS_11char_traitsIcEENS_9allocatorIcEEEEEEPvEEE8__upcastB8ue170006Ev, symObjAddr: 0x57D8, symBinAddr: 0x100008004, symSize: 0x24 }
  - { offsetInCU: 0x1E24A, offset: 0x1E24A, size: 0x8, addend: 0x0, symName: __ZNSt3__112__hash_tableINS_17__hash_value_typeIN5Token9TokenTypeENS_12basic_stringIcNS_11char_traitsIcEENS_9allocatorIcEEEEEENS_22__unordered_map_hasherIS3_SA_NS_4hashIS3_EENS_8equal_toIS3_EELb1EEENS_21__unordered_map_equalIS3_SA_SF_SD_Lb1EEENS7_ISA_EEE21__construct_node_hashIRKNS_4pairIKS3_S9_EEJEEENS_10unique_ptrINS_11__hash_nodeISA_PvEENS_22__hash_node_destructorINS7_ISU_EEEEEEmOT_DpOT0_, symObjAddr: 0x57FC, symBinAddr: 0x100008028, symSize: 0x140 }
  - { offsetInCU: 0x1E2BD, offset: 0x1E2BD, size: 0x8, addend: 0x0, symName: __ZNSt3__112__hash_tableINS_17__hash_value_typeIN5Token9TokenTypeENS_12basic_stringIcNS_11char_traitsIcEENS_9allocatorIcEEEEEENS_22__unordered_map_hasherIS3_SA_NS_4hashIS3_EENS_8equal_toIS3_EELb1EEENS_21__unordered_map_equalIS3_SA_SF_SD_Lb1EEENS7_ISA_EEE4sizeB8ue170006Ev, symObjAddr: 0x593C, symBinAddr: 0x100008168, symSize: 0x28 }
  - { offsetInCU: 0x1E2E3, offset: 0x1E2E3, size: 0x8, addend: 0x0, symName: __ZNSt3__112__hash_tableINS_17__hash_value_typeIN5Token9TokenTypeENS_12basic_stringIcNS_11char_traitsIcEENS_9allocatorIcEEEEEENS_22__unordered_map_hasherIS3_SA_NS_4hashIS3_EENS_8equal_toIS3_EELb1EEENS_21__unordered_map_equalIS3_SA_SF_SD_Lb1EEENS7_ISA_EEE15max_load_factorB8ue170006Ev, symObjAddr: 0x5964, symBinAddr: 0x100008190, symSize: 0x28 }
  - { offsetInCU: 0x1E309, offset: 0x1E309, size: 0x8, addend: 0x0, symName: __ZNSt3__112__hash_tableINS_17__hash_value_typeIN5Token9TokenTypeENS_12basic_stringIcNS_11char_traitsIcEENS_9allocatorIcEEEEEENS_22__unordered_map_hasherIS3_SA_NS_4hashIS3_EENS_8equal_toIS3_EELb1EEENS_21__unordered_map_equalIS3_SA_SF_SD_Lb1EEENS7_ISA_EEE15__rehash_uniqueB8ue170006Em, symObjAddr: 0x598C, symBinAddr: 0x1000081B8, symSize: 0x2C }
  - { offsetInCU: 0x1E33D, offset: 0x1E33D, size: 0x8, addend: 0x0, symName: __Z4ceilB8ue170006f, symObjAddr: 0x5A34, symBinAddr: 0x100008260, symSize: 0x18 }
  - { offsetInCU: 0x1E36C, offset: 0x1E36C, size: 0x8, addend: 0x0, symName: __ZNSt3__117__compressed_pairINS_16__hash_node_baseIPNS_11__hash_nodeINS_17__hash_value_typeIN5Token9TokenTypeENS_12basic_stringIcNS_11char_traitsIcEENS_9allocatorIcEEEEEEPvEEEENS9_ISE_EEE5firstB8ue170006Ev, symObjAddr: 0x5A4C, symBinAddr: 0x100008278, symSize: 0x24 }
  - { offsetInCU: 0x1E392, offset: 0x1E392, size: 0x8, addend: 0x0, symName: __ZNSt3__116__hash_node_baseIPNS_11__hash_nodeINS_17__hash_value_typeIN5Token9TokenTypeENS_12basic_stringIcNS_11char_traitsIcEENS_9allocatorIcEEEEEEPvEEE5__ptrB8ue170006Ev, symObjAddr: 0x5A70, symBinAddr: 0x10000829C, symSize: 0x24 }
  - { offsetInCU: 0x1E3B8, offset: 0x1E3B8, size: 0x8, addend: 0x0, symName: __ZNKSt3__110unique_ptrINS_11__hash_nodeINS_17__hash_value_typeIN5Token9TokenTypeENS_12basic_stringIcNS_11char_traitsIcEENS_9allocatorIcEEEEEEPvEENS_22__hash_node_destructorINS8_ISD_EEEEEptB8ue170006Ev, symObjAddr: 0x5A94, symBinAddr: 0x1000082C0, symSize: 0x28 }
  - { offsetInCU: 0x1E3DE, offset: 0x1E3DE, size: 0x8, addend: 0x0, symName: __ZNKSt3__110unique_ptrINS_11__hash_nodeINS_17__hash_value_typeIN5Token9TokenTypeENS_12basic_stringIcNS_11char_traitsIcEENS_9allocatorIcEEEEEEPvEENS_22__hash_node_destructorINS8_ISD_EEEEE3getB8ue170006Ev, symObjAddr: 0x5ABC, symBinAddr: 0x1000082E8, symSize: 0x28 }
  - { offsetInCU: 0x1E404, offset: 0x1E404, size: 0x8, addend: 0x0, symName: __ZNSt3__110unique_ptrINS_11__hash_nodeINS_17__hash_value_typeIN5Token9TokenTypeENS_12basic_stringIcNS_11char_traitsIcEENS_9allocatorIcEEEEEEPvEENS_22__hash_node_destructorINS8_ISD_EEEEE7releaseB8ue170006Ev, symObjAddr: 0x5AE4, symBinAddr: 0x100008310, symSize: 0x44 }
  - { offsetInCU: 0x1E439, offset: 0x1E439, size: 0x8, addend: 0x0, symName: __ZNSt3__110unique_ptrINS_11__hash_nodeINS_17__hash_value_typeIN5Token9TokenTypeENS_12basic_stringIcNS_11char_traitsIcEENS_9allocatorIcEEEEEEPvEENS_22__hash_node_destructorINS8_ISD_EEEEED1B8ue170006Ev, symObjAddr: 0x5B28, symBinAddr: 0x100008354, symSize: 0x2C }
  - { offsetInCU: 0x1E463, offset: 0x1E463, size: 0x8, addend: 0x0, symName: __ZNSt3__115__hash_iteratorIPNS_11__hash_nodeINS_17__hash_value_typeIN5Token9TokenTypeENS_12basic_stringIcNS_11char_traitsIcEENS_9allocatorIcEEEEEEPvEEEC1B8ue170006EPNS_16__hash_node_baseISE_EE, symObjAddr: 0x5B54, symBinAddr: 0x100008380, symSize: 0x34 }
  - { offsetInCU: 0x1E4A2, offset: 0x1E4A2, size: 0x8, addend: 0x0, symName: __ZNSt3__14pairINS_15__hash_iteratorIPNS_11__hash_nodeINS_17__hash_value_typeIN5Token9TokenTypeENS_12basic_stringIcNS_11char_traitsIcEENS_9allocatorIcEEEEEEPvEEEEbEC1B8ue170006ISG_RbLSD_0EEEOT_OT0_, symObjAddr: 0x5B88, symBinAddr: 0x1000083B4, symSize: 0x3C }
  - { offsetInCU: 0x1E500, offset: 0x1E500, size: 0x8, addend: 0x0, symName: __ZNSt3__117__compressed_pairImNS_22__unordered_map_hasherIN5Token9TokenTypeENS_17__hash_value_typeIS3_NS_12basic_stringIcNS_11char_traitsIcEENS_9allocatorIcEEEEEENS_4hashIS3_EENS_8equal_toIS3_EELb1EEEE6secondB8ue170006Ev, symObjAddr: 0x5BC4, symBinAddr: 0x1000083F0, symSize: 0x24 }
  - { offsetInCU: 0x1E526, offset: 0x1E526, size: 0x8, addend: 0x0, symName: __ZNSt3__122__compressed_pair_elemINS_22__unordered_map_hasherIN5Token9TokenTypeENS_17__hash_value_typeIS3_NS_12basic_stringIcNS_11char_traitsIcEENS_9allocatorIcEEEEEENS_4hashIS3_EENS_8equal_toIS3_EELb1EEELi1ELb1EE5__getB8ue170006Ev, symObjAddr: 0x5BE8, symBinAddr: 0x100008414, symSize: 0x14 }
  - { offsetInCU: 0x1E556, offset: 0x1E556, size: 0x8, addend: 0x0, symName: __ZNKSt3__14hashIjEclB8ue170006Ej, symObjAddr: 0x5C28, symBinAddr: 0x100008454, symSize: 0x1C }
  - { offsetInCU: 0x1E58B, offset: 0x1E58B, size: 0x8, addend: 0x0, symName: __ZNKSt3__110unique_ptrIA_PNS_16__hash_node_baseIPNS_11__hash_nodeINS_17__hash_value_typeIN5Token9TokenTypeENS_12basic_stringIcNS_11char_traitsIcEENS_9allocatorIcEEEEEEPvEEEENS_25__bucket_list_deallocatorINS9_ISH_EEEEE11get_deleterB8ue170006Ev, symObjAddr: 0x5C44, symBinAddr: 0x100008470, symSize: 0x24 }
  - { offsetInCU: 0x1E5B1, offset: 0x1E5B1, size: 0x8, addend: 0x0, symName: __ZNKSt3__125__bucket_list_deallocatorINS_9allocatorIPNS_16__hash_node_baseIPNS_11__hash_nodeINS_17__hash_value_typeIN5Token9TokenTypeENS_12basic_stringIcNS_11char_traitsIcEENS1_IcEEEEEEPvEEEEEEE4sizeB8ue170006Ev, symObjAddr: 0x5C68, symBinAddr: 0x100008494, symSize: 0x28 }
  - { offsetInCU: 0x1E5D7, offset: 0x1E5D7, size: 0x8, addend: 0x0, symName: __ZNKSt3__117__compressed_pairIPPNS_16__hash_node_baseIPNS_11__hash_nodeINS_17__hash_value_typeIN5Token9TokenTypeENS_12basic_stringIcNS_11char_traitsIcEENS_9allocatorIcEEEEEEPvEEEENS_25__bucket_list_deallocatorINS9_ISH_EEEEE6secondB8ue170006Ev, symObjAddr: 0x5C90, symBinAddr: 0x1000084BC, symSize: 0x28 }
  - { offsetInCU: 0x1E5FD, offset: 0x1E5FD, size: 0x8, addend: 0x0, symName: __ZNKSt3__122__compressed_pair_elemINS_25__bucket_list_deallocatorINS_9allocatorIPNS_16__hash_node_baseIPNS_11__hash_nodeINS_17__hash_value_typeIN5Token9TokenTypeENS_12basic_stringIcNS_11char_traitsIcEENS2_IcEEEEEEPvEEEEEEEELi1ELb0EE5__getB8ue170006Ev, symObjAddr: 0x5CB8, symBinAddr: 0x1000084E4, symSize: 0x14 }
  - { offsetInCU: 0x1E623, offset: 0x1E623, size: 0x8, addend: 0x0, symName: __ZNKSt3__117__compressed_pairImNS_9allocatorIPNS_16__hash_node_baseIPNS_11__hash_nodeINS_17__hash_value_typeIN5Token9TokenTypeENS_12basic_stringIcNS_11char_traitsIcEENS1_IcEEEEEEPvEEEEEEE5firstB8ue170006Ev, symObjAddr: 0x5CCC, symBinAddr: 0x1000084F8, symSize: 0x24 }
  - { offsetInCU: 0x1E649, offset: 0x1E649, size: 0x8, addend: 0x0, symName: __ZNKSt3__117__compressed_pairIPPNS_16__hash_node_baseIPNS_11__hash_nodeINS_17__hash_value_typeIN5Token9TokenTypeENS_12basic_stringIcNS_11char_traitsIcEENS_9allocatorIcEEEEEEPvEEEENS_25__bucket_list_deallocatorINS9_ISH_EEEEE5firstB8ue170006Ev, symObjAddr: 0x5CF0, symBinAddr: 0x10000851C, symSize: 0x24 }
  - { offsetInCU: 0x1E66F, offset: 0x1E66F, size: 0x8, addend: 0x0, symName: __ZNKSt3__122__compressed_pair_elemIPPNS_16__hash_node_baseIPNS_11__hash_nodeINS_17__hash_value_typeIN5Token9TokenTypeENS_12basic_stringIcNS_11char_traitsIcEENS_9allocatorIcEEEEEEPvEEEELi0ELb0EE5__getB8ue170006Ev, symObjAddr: 0x5D14, symBinAddr: 0x100008540, symSize: 0x14 }
  - { offsetInCU: 0x1E695, offset: 0x1E695, size: 0x8, addend: 0x0, symName: __ZNSt3__117__compressed_pairIfNS_21__unordered_map_equalIN5Token9TokenTypeENS_17__hash_value_typeIS3_NS_12basic_stringIcNS_11char_traitsIcEENS_9allocatorIcEEEEEENS_8equal_toIS3_EENS_4hashIS3_EELb1EEEE6secondB8ue170006Ev, symObjAddr: 0x5D28, symBinAddr: 0x100008554, symSize: 0x24 }
  - { offsetInCU: 0x1E6BB, offset: 0x1E6BB, size: 0x8, addend: 0x0, symName: __ZNSt3__122__compressed_pair_elemINS_21__unordered_map_equalIN5Token9TokenTypeENS_17__hash_value_typeIS3_NS_12basic_stringIcNS_11char_traitsIcEENS_9allocatorIcEEEEEENS_8equal_toIS3_EENS_4hashIS3_EELb1EEELi1ELb1EE5__getB8ue170006Ev, symObjAddr: 0x5D4C, symBinAddr: 0x100008578, symSize: 0x14 }
  - { offsetInCU: 0x1E6E1, offset: 0x1E6E1, size: 0x8, addend: 0x0, symName: __ZNKSt3__18equal_toIN5Token9TokenTypeEEclB8ue170006ERKS2_S5_, symObjAddr: 0x5D60, symBinAddr: 0x10000858C, symSize: 0x34 }
  - { offsetInCU: 0x1E725, offset: 0x1E725, size: 0x8, addend: 0x0, symName: __ZNKSt3__117__hash_value_typeIN5Token9TokenTypeENS_12basic_stringIcNS_11char_traitsIcEENS_9allocatorIcEEEEE11__get_valueB8ue170006Ev, symObjAddr: 0x5D94, symBinAddr: 0x1000085C0, symSize: 0x24 }
  - { offsetInCU: 0x1E74B, offset: 0x1E74B, size: 0x8, addend: 0x0, symName: __ZNSt3__114pointer_traitsIPNS_16__hash_node_baseIPNS_11__hash_nodeINS_17__hash_value_typeIN5Token9TokenTypeENS_12basic_stringIcNS_11char_traitsIcEENS_9allocatorIcEEEEEEPvEEEEE10pointer_toB8ue170006ERSG_, symObjAddr: 0x5DF0, symBinAddr: 0x10000861C, symSize: 0x14 }
  - { offsetInCU: 0x1E76E, offset: 0x1E76E, size: 0x8, addend: 0x0, symName: __ZNSt3__112__hash_tableINS_17__hash_value_typeIN5Token9TokenTypeENS_12basic_stringIcNS_11char_traitsIcEENS_9allocatorIcEEEEEENS_22__unordered_map_hasherIS3_SA_NS_4hashIS3_EENS_8equal_toIS3_EELb1EEENS_21__unordered_map_equalIS3_SA_SF_SD_Lb1EEENS7_ISA_EEE12__node_allocB8ue170006Ev, symObjAddr: 0x5E04, symBinAddr: 0x100008630, symSize: 0x28 }
  - { offsetInCU: 0x1E794, offset: 0x1E794, size: 0x8, addend: 0x0, symName: __ZNSt3__116allocator_traitsINS_9allocatorINS_11__hash_nodeINS_17__hash_value_typeIN5Token9TokenTypeENS_12basic_stringIcNS_11char_traitsIcEENS1_IcEEEEEEPvEEEEE8allocateB8ue170006ERSE_m, symObjAddr: 0x5E2C, symBinAddr: 0x100008658, symSize: 0x2C }
  - { offsetInCU: 0x1E7C7, offset: 0x1E7C7, size: 0x8, addend: 0x0, symName: __ZNSt3__122__hash_node_destructorINS_9allocatorINS_11__hash_nodeINS_17__hash_value_typeIN5Token9TokenTypeENS_12basic_stringIcNS_11char_traitsIcEENS1_IcEEEEEEPvEEEEEC1B8ue170006ERSE_b, symObjAddr: 0x5E58, symBinAddr: 0x100008684, symSize: 0x48 }
  - { offsetInCU: 0x1E815, offset: 0x1E815, size: 0x8, addend: 0x0, symName: __ZNSt3__110unique_ptrINS_11__hash_nodeINS_17__hash_value_typeIN5Token9TokenTypeENS_12basic_stringIcNS_11char_traitsIcEENS_9allocatorIcEEEEEEPvEENS_22__hash_node_destructorINS8_ISD_EEEEEC1B8ue170006ILb1EvEEPSD_NS_16__dependent_typeINS_27__unique_ptr_deleter_sfinaeISG_EEXT_EE20__good_rval_ref_typeE, symObjAddr: 0x5EA0, symBinAddr: 0x1000086CC, symSize: 0x3C }
  - { offsetInCU: 0x1E866, offset: 0x1E866, size: 0x8, addend: 0x0, symName: __ZNSt3__116allocator_traitsINS_9allocatorINS_11__hash_nodeINS_17__hash_value_typeIN5Token9TokenTypeENS_12basic_stringIcNS_11char_traitsIcEENS1_IcEEEEEEPvEEEEE9constructB8ue170006INS_4pairIKS5_SA_EEJRKSJ_EvEEvRSE_PT_DpOT0_, symObjAddr: 0x5EDC, symBinAddr: 0x100008708, symSize: 0x34 }
  - { offsetInCU: 0x1E8BD, offset: 0x1E8BD, size: 0x8, addend: 0x0, symName: __ZNSt3__122__hash_key_value_typesINS_17__hash_value_typeIN5Token9TokenTypeENS_12basic_stringIcNS_11char_traitsIcEENS_9allocatorIcEEEEEEE9__get_ptrB8ue170006ERSA_, symObjAddr: 0x5F10, symBinAddr: 0x10000873C, symSize: 0x24 }
  - { offsetInCU: 0x1E8E0, offset: 0x1E8E0, size: 0x8, addend: 0x0, symName: __ZNSt3__110unique_ptrINS_11__hash_nodeINS_17__hash_value_typeIN5Token9TokenTypeENS_12basic_stringIcNS_11char_traitsIcEENS_9allocatorIcEEEEEEPvEENS_22__hash_node_destructorINS8_ISD_EEEEE11get_deleterB8ue170006Ev, symObjAddr: 0x5F34, symBinAddr: 0x100008760, symSize: 0x24 }
  - { offsetInCU: 0x1E906, offset: 0x1E906, size: 0x8, addend: 0x0, symName: __ZNSt3__117__compressed_pairINS_16__hash_node_baseIPNS_11__hash_nodeINS_17__hash_value_typeIN5Token9TokenTypeENS_12basic_stringIcNS_11char_traitsIcEENS_9allocatorIcEEEEEEPvEEEENS9_ISE_EEE6secondB8ue170006Ev, symObjAddr: 0x5F58, symBinAddr: 0x100008784, symSize: 0x24 }
  - { offsetInCU: 0x1E92C, offset: 0x1E92C, size: 0x8, addend: 0x0, symName: __ZNSt3__122__compressed_pair_elemINS_9allocatorINS_11__hash_nodeINS_17__hash_value_typeIN5Token9TokenTypeENS_12basic_stringIcNS_11char_traitsIcEENS1_IcEEEEEEPvEEEELi1ELb1EE5__getB8ue170006Ev, symObjAddr: 0x5F7C, symBinAddr: 0x1000087A8, symSize: 0x14 }
  - { offsetInCU: 0x1E952, offset: 0x1E952, size: 0x8, addend: 0x0, symName: __ZNSt3__19allocatorINS_11__hash_nodeINS_17__hash_value_typeIN5Token9TokenTypeENS_12basic_stringIcNS_11char_traitsIcEENS0_IcEEEEEEPvEEE8allocateB8ue170006Em, symObjAddr: 0x5F90, symBinAddr: 0x1000087BC, symSize: 0x5C }
  - { offsetInCU: 0x1E991, offset: 0x1E991, size: 0x8, addend: 0x0, symName: __ZNSt3__116allocator_traitsINS_9allocatorINS_11__hash_nodeINS_17__hash_value_typeIN5Token9TokenTypeENS_12basic_stringIcNS_11char_traitsIcEENS1_IcEEEEEEPvEEEEE8max_sizeB8ue170006ISE_vEEmRKSE_, symObjAddr: 0x5FEC, symBinAddr: 0x100008818, symSize: 0x24 }
  - { offsetInCU: 0x1E9BF, offset: 0x1E9BF, size: 0x8, addend: 0x0, symName: __ZNKSt3__19allocatorINS_11__hash_nodeINS_17__hash_value_typeIN5Token9TokenTypeENS_12basic_stringIcNS_11char_traitsIcEENS0_IcEEEEEEPvEEE8max_sizeB8ue170006Ev, symObjAddr: 0x60A4, symBinAddr: 0x1000088D0, symSize: 0x18 }
  - { offsetInCU: 0x1E9E5, offset: 0x1E9E5, size: 0x8, addend: 0x0, symName: __ZNSt3__122__hash_node_destructorINS_9allocatorINS_11__hash_nodeINS_17__hash_value_typeIN5Token9TokenTypeENS_12basic_stringIcNS_11char_traitsIcEENS1_IcEEEEEEPvEEEEEC2B8ue170006ERSE_b, symObjAddr: 0x610C, symBinAddr: 0x100008938, symSize: 0x38 }
  - { offsetInCU: 0x1EA2D, offset: 0x1EA2D, size: 0x8, addend: 0x0, symName: __ZNSt3__110unique_ptrINS_11__hash_nodeINS_17__hash_value_typeIN5Token9TokenTypeENS_12basic_stringIcNS_11char_traitsIcEENS_9allocatorIcEEEEEEPvEENS_22__hash_node_destructorINS8_ISD_EEEEEC2B8ue170006ILb1EvEEPSD_NS_16__dependent_typeINS_27__unique_ptr_deleter_sfinaeISG_EEXT_EE20__good_rval_ref_typeE, symObjAddr: 0x6144, symBinAddr: 0x100008970, symSize: 0x48 }
  - { offsetInCU: 0x1EA7E, offset: 0x1EA7E, size: 0x8, addend: 0x0, symName: __ZNSt3__117__compressed_pairIPNS_11__hash_nodeINS_17__hash_value_typeIN5Token9TokenTypeENS_12basic_stringIcNS_11char_traitsIcEENS_9allocatorIcEEEEEEPvEENS_22__hash_node_destructorINS8_ISD_EEEEEC1B8ue170006IRSE_SH_EEOT_OT0_, symObjAddr: 0x618C, symBinAddr: 0x1000089B8, symSize: 0x3C }
  - { offsetInCU: 0x1EAD6, offset: 0x1EAD6, size: 0x8, addend: 0x0, symName: __ZNSt3__117__compressed_pairIPNS_11__hash_nodeINS_17__hash_value_typeIN5Token9TokenTypeENS_12basic_stringIcNS_11char_traitsIcEENS_9allocatorIcEEEEEEPvEENS_22__hash_node_destructorINS8_ISD_EEEEEC2B8ue170006IRSE_SH_EEOT_OT0_, symObjAddr: 0x61C8, symBinAddr: 0x1000089F4, symSize: 0x48 }
  - { offsetInCU: 0x1EB2E, offset: 0x1EB2E, size: 0x8, addend: 0x0, symName: __ZNSt3__122__compressed_pair_elemIPNS_11__hash_nodeINS_17__hash_value_typeIN5Token9TokenTypeENS_12basic_stringIcNS_11char_traitsIcEENS_9allocatorIcEEEEEEPvEELi0ELb0EEC2B8ue170006IRSE_vEEOT_, symObjAddr: 0x6210, symBinAddr: 0x100008A3C, symSize: 0x24 }
  - { offsetInCU: 0x1EB70, offset: 0x1EB70, size: 0x8, addend: 0x0, symName: __ZNSt3__122__compressed_pair_elemINS_22__hash_node_destructorINS_9allocatorINS_11__hash_nodeINS_17__hash_value_typeIN5Token9TokenTypeENS_12basic_stringIcNS_11char_traitsIcEENS2_IcEEEEEEPvEEEEEELi1ELb0EEC2B8ue170006ISG_vEEOT_, symObjAddr: 0x6234, symBinAddr: 0x100008A60, symSize: 0x24 }
  - { offsetInCU: 0x1EBB2, offset: 0x1EBB2, size: 0x8, addend: 0x0, symName: __ZNSt3__19allocatorINS_11__hash_nodeINS_17__hash_value_typeIN5Token9TokenTypeENS_12basic_stringIcNS_11char_traitsIcEENS0_IcEEEEEEPvEEE9constructB8ue170006INS_4pairIKS4_S9_EEJRKSH_EEEvPT_DpOT0_, symObjAddr: 0x6258, symBinAddr: 0x100008A84, symSize: 0x30 }
  - { offsetInCU: 0x1EC08, offset: 0x1EC08, size: 0x8, addend: 0x0, symName: __ZNSt3__14pairIKN5Token9TokenTypeENS_12basic_stringIcNS_11char_traitsIcEENS_9allocatorIcEEEEEC1B8ue170006ERKSA_, symObjAddr: 0x6288, symBinAddr: 0x100008AB4, symSize: 0x34 }
  - { offsetInCU: 0x1EC3D, offset: 0x1EC3D, size: 0x8, addend: 0x0, symName: __ZNSt3__14pairIKN5Token9TokenTypeENS_12basic_stringIcNS_11char_traitsIcEENS_9allocatorIcEEEEEC2B8ue170006ERKSA_, symObjAddr: 0x62BC, symBinAddr: 0x100008AE8, symSize: 0x48 }
  - { offsetInCU: 0x1EC72, offset: 0x1EC72, size: 0x8, addend: 0x0, symName: __ZNSt3__117__hash_value_typeIN5Token9TokenTypeENS_12basic_stringIcNS_11char_traitsIcEENS_9allocatorIcEEEEE11__get_valueB8ue170006Ev, symObjAddr: 0x6304, symBinAddr: 0x100008B30, symSize: 0x24 }
  - { offsetInCU: 0x1EC98, offset: 0x1EC98, size: 0x8, addend: 0x0, symName: __ZNSt3__117__compressed_pairIPNS_11__hash_nodeINS_17__hash_value_typeIN5Token9TokenTypeENS_12basic_stringIcNS_11char_traitsIcEENS_9allocatorIcEEEEEEPvEENS_22__hash_node_destructorINS8_ISD_EEEEE6secondB8ue170006Ev, symObjAddr: 0x6360, symBinAddr: 0x100008B8C, symSize: 0x28 }
  - { offsetInCU: 0x1ECBE, offset: 0x1ECBE, size: 0x8, addend: 0x0, symName: __ZNSt3__122__compressed_pair_elemINS_22__hash_node_destructorINS_9allocatorINS_11__hash_nodeINS_17__hash_value_typeIN5Token9TokenTypeENS_12basic_stringIcNS_11char_traitsIcEENS2_IcEEEEEEPvEEEEEELi1ELb0EE5__getB8ue170006Ev, symObjAddr: 0x6388, symBinAddr: 0x100008BB4, symSize: 0x14 }
  - { offsetInCU: 0x1ECE4, offset: 0x1ECE4, size: 0x8, addend: 0x0, symName: __ZNSt3__117__compressed_pairImNS_22__unordered_map_hasherIN5Token9TokenTypeENS_17__hash_value_typeIS3_NS_12basic_stringIcNS_11char_traitsIcEENS_9allocatorIcEEEEEENS_4hashIS3_EENS_8equal_toIS3_EELb1EEEE5firstB8ue170006Ev, symObjAddr: 0x639C, symBinAddr: 0x100008BC8, symSize: 0x24 }
  - { offsetInCU: 0x1ED0A, offset: 0x1ED0A, size: 0x8, addend: 0x0, symName: __ZNSt3__122__compressed_pair_elemImLi0ELb0EE5__getB8ue170006Ev, symObjAddr: 0x63C0, symBinAddr: 0x100008BEC, symSize: 0x14 }
  - { offsetInCU: 0x1ED30, offset: 0x1ED30, size: 0x8, addend: 0x0, symName: __ZNSt3__117__compressed_pairIfNS_21__unordered_map_equalIN5Token9TokenTypeENS_17__hash_value_typeIS3_NS_12basic_stringIcNS_11char_traitsIcEENS_9allocatorIcEEEEEENS_8equal_toIS3_EENS_4hashIS3_EELb1EEEE5firstB8ue170006Ev, symObjAddr: 0x63D4, symBinAddr: 0x100008C00, symSize: 0x24 }
  - { offsetInCU: 0x1ED56, offset: 0x1ED56, size: 0x8, addend: 0x0, symName: __ZNSt3__122__compressed_pair_elemIfLi0ELb0EE5__getB8ue170006Ev, symObjAddr: 0x63F8, symBinAddr: 0x100008C24, symSize: 0x14 }
  - { offsetInCU: 0x1ED7C, offset: 0x1ED7C, size: 0x8, addend: 0x0, symName: __ZNSt3__112__hash_tableINS_17__hash_value_typeIN5Token9TokenTypeENS_12basic_stringIcNS_11char_traitsIcEENS_9allocatorIcEEEEEENS_22__unordered_map_hasherIS3_SA_NS_4hashIS3_EENS_8equal_toIS3_EELb1EEENS_21__unordered_map_equalIS3_SA_SF_SD_Lb1EEENS7_ISA_EEE8__rehashILb1EEEvm, symObjAddr: 0x640C, symBinAddr: 0x100008C38, symSize: 0x1A8 }
  - { offsetInCU: 0x1EDCC, offset: 0x1EDCC, size: 0x8, addend: 0x0, symName: __ZNSt3__112__hash_tableINS_17__hash_value_typeIN5Token9TokenTypeENS_12basic_stringIcNS_11char_traitsIcEENS_9allocatorIcEEEEEENS_22__unordered_map_hasherIS3_SA_NS_4hashIS3_EENS_8equal_toIS3_EELb1EEENS_21__unordered_map_equalIS3_SA_SF_SD_Lb1EEENS7_ISA_EEE11__do_rehashILb1EEEvm, symObjAddr: 0x65B4, symBinAddr: 0x100008DE0, symSize: 0x288 }
  - { offsetInCU: 0x1EEAF, offset: 0x1EEAF, size: 0x8, addend: 0x0, symName: __ZNSt3__110unique_ptrIA_PNS_16__hash_node_baseIPNS_11__hash_nodeINS_17__hash_value_typeIN5Token9TokenTypeENS_12basic_stringIcNS_11char_traitsIcEENS_9allocatorIcEEEEEEPvEEEENS_25__bucket_list_deallocatorINS9_ISH_EEEEE11get_deleterB8ue170006Ev, symObjAddr: 0x68A8, symBinAddr: 0x1000090D4, symSize: 0x24 }
  - { offsetInCU: 0x1EED5, offset: 0x1EED5, size: 0x8, addend: 0x0, symName: __ZNSt3__125__bucket_list_deallocatorINS_9allocatorIPNS_16__hash_node_baseIPNS_11__hash_nodeINS_17__hash_value_typeIN5Token9TokenTypeENS_12basic_stringIcNS_11char_traitsIcEENS1_IcEEEEEEPvEEEEEEE7__allocB8ue170006Ev, symObjAddr: 0x68CC, symBinAddr: 0x1000090F8, symSize: 0x24 }
  - { offsetInCU: 0x1EEFB, offset: 0x1EEFB, size: 0x8, addend: 0x0, symName: __ZNSt3__110unique_ptrIA_PNS_16__hash_node_baseIPNS_11__hash_nodeINS_17__hash_value_typeIN5Token9TokenTypeENS_12basic_stringIcNS_11char_traitsIcEENS_9allocatorIcEEEEEEPvEEEENS_25__bucket_list_deallocatorINS9_ISH_EEEEE5resetB8ue170006IPSH_EENS_9enable_ifIXsr28_CheckArrayPointerConversionIT_EE5valueEvE4typeESQ_, symObjAddr: 0x68F0, symBinAddr: 0x10000911C, symSize: 0x78 }
  - { offsetInCU: 0x1EF48, offset: 0x1EF48, size: 0x8, addend: 0x0, symName: __ZNSt3__116allocator_traitsINS_9allocatorIPNS_16__hash_node_baseIPNS_11__hash_nodeINS_17__hash_value_typeIN5Token9TokenTypeENS_12basic_stringIcNS_11char_traitsIcEENS1_IcEEEEEEPvEEEEEEE8allocateB8ue170006ERSI_m, symObjAddr: 0x6968, symBinAddr: 0x100009194, symSize: 0x2C }
  - { offsetInCU: 0x1EF7B, offset: 0x1EF7B, size: 0x8, addend: 0x0, symName: __ZNSt3__125__bucket_list_deallocatorINS_9allocatorIPNS_16__hash_node_baseIPNS_11__hash_nodeINS_17__hash_value_typeIN5Token9TokenTypeENS_12basic_stringIcNS_11char_traitsIcEENS1_IcEEEEEEPvEEEEEEE4sizeB8ue170006Ev, symObjAddr: 0x6994, symBinAddr: 0x1000091C0, symSize: 0x24 }
  - { offsetInCU: 0x1EFA1, offset: 0x1EFA1, size: 0x8, addend: 0x0, symName: __ZNSt3__117__compressed_pairIPPNS_16__hash_node_baseIPNS_11__hash_nodeINS_17__hash_value_typeIN5Token9TokenTypeENS_12basic_stringIcNS_11char_traitsIcEENS_9allocatorIcEEEEEEPvEEEENS_25__bucket_list_deallocatorINS9_ISH_EEEEE6secondB8ue170006Ev, symObjAddr: 0x69B8, symBinAddr: 0x1000091E4, symSize: 0x28 }
  - { offsetInCU: 0x1EFC7, offset: 0x1EFC7, size: 0x8, addend: 0x0, symName: __ZNSt3__122__compressed_pair_elemINS_25__bucket_list_deallocatorINS_9allocatorIPNS_16__hash_node_baseIPNS_11__hash_nodeINS_17__hash_value_typeIN5Token9TokenTypeENS_12basic_stringIcNS_11char_traitsIcEENS2_IcEEEEEEPvEEEEEEEELi1ELb0EE5__getB8ue170006Ev, symObjAddr: 0x69E0, symBinAddr: 0x10000920C, symSize: 0x14 }
  - { offsetInCU: 0x1EFED, offset: 0x1EFED, size: 0x8, addend: 0x0, symName: __ZNSt3__117__compressed_pairImNS_9allocatorIPNS_16__hash_node_baseIPNS_11__hash_nodeINS_17__hash_value_typeIN5Token9TokenTypeENS_12basic_stringIcNS_11char_traitsIcEENS1_IcEEEEEEPvEEEEEEE6secondB8ue170006Ev, symObjAddr: 0x69F4, symBinAddr: 0x100009220, symSize: 0x24 }
  - { offsetInCU: 0x1F013, offset: 0x1F013, size: 0x8, addend: 0x0, symName: __ZNSt3__122__compressed_pair_elemINS_9allocatorIPNS_16__hash_node_baseIPNS_11__hash_nodeINS_17__hash_value_typeIN5Token9TokenTypeENS_12basic_stringIcNS_11char_traitsIcEENS1_IcEEEEEEPvEEEEEELi1ELb1EE5__getB8ue170006Ev, symObjAddr: 0x6A18, symBinAddr: 0x100009244, symSize: 0x14 }
  - { offsetInCU: 0x1F039, offset: 0x1F039, size: 0x8, addend: 0x0, symName: __ZNSt3__117__compressed_pairIPPNS_16__hash_node_baseIPNS_11__hash_nodeINS_17__hash_value_typeIN5Token9TokenTypeENS_12basic_stringIcNS_11char_traitsIcEENS_9allocatorIcEEEEEEPvEEEENS_25__bucket_list_deallocatorINS9_ISH_EEEEE5firstB8ue170006Ev, symObjAddr: 0x6A2C, symBinAddr: 0x100009258, symSize: 0x24 }
  - { offsetInCU: 0x1F05F, offset: 0x1F05F, size: 0x8, addend: 0x0, symName: __ZNSt3__125__bucket_list_deallocatorINS_9allocatorIPNS_16__hash_node_baseIPNS_11__hash_nodeINS_17__hash_value_typeIN5Token9TokenTypeENS_12basic_stringIcNS_11char_traitsIcEENS1_IcEEEEEEPvEEEEEEEclB8ue170006EPSH_, symObjAddr: 0x6A50, symBinAddr: 0x10000927C, symSize: 0x58 }
  - { offsetInCU: 0x1F094, offset: 0x1F094, size: 0x8, addend: 0x0, symName: __ZNSt3__122__compressed_pair_elemIPPNS_16__hash_node_baseIPNS_11__hash_nodeINS_17__hash_value_typeIN5Token9TokenTypeENS_12basic_stringIcNS_11char_traitsIcEENS_9allocatorIcEEEEEEPvEEEELi0ELb0EE5__getB8ue170006Ev, symObjAddr: 0x6AA8, symBinAddr: 0x1000092D4, symSize: 0x14 }
  - { offsetInCU: 0x1F0BA, offset: 0x1F0BA, size: 0x8, addend: 0x0, symName: __ZNSt3__116allocator_traitsINS_9allocatorIPNS_16__hash_node_baseIPNS_11__hash_nodeINS_17__hash_value_typeIN5Token9TokenTypeENS_12basic_stringIcNS_11char_traitsIcEENS1_IcEEEEEEPvEEEEEEE10deallocateB8ue170006ERSI_PSH_m, symObjAddr: 0x6ABC, symBinAddr: 0x1000092E8, symSize: 0x34 }
  - { offsetInCU: 0x1F0FC, offset: 0x1F0FC, size: 0x8, addend: 0x0, symName: __ZNSt3__19allocatorIPNS_16__hash_node_baseIPNS_11__hash_nodeINS_17__hash_value_typeIN5Token9TokenTypeENS_12basic_stringIcNS_11char_traitsIcEENS0_IcEEEEEEPvEEEEE10deallocateB8ue170006EPSG_m, symObjAddr: 0x6AF0, symBinAddr: 0x10000931C, symSize: 0x40 }
  - { offsetInCU: 0x1F13E, offset: 0x1F13E, size: 0x8, addend: 0x0, symName: __ZNSt3__19allocatorIPNS_16__hash_node_baseIPNS_11__hash_nodeINS_17__hash_value_typeIN5Token9TokenTypeENS_12basic_stringIcNS_11char_traitsIcEENS0_IcEEEEEEPvEEEEE8allocateB8ue170006Em, symObjAddr: 0x6B30, symBinAddr: 0x10000935C, symSize: 0x58 }
  - { offsetInCU: 0x1F17D, offset: 0x1F17D, size: 0x8, addend: 0x0, symName: __ZNSt3__116allocator_traitsINS_9allocatorIPNS_16__hash_node_baseIPNS_11__hash_nodeINS_17__hash_value_typeIN5Token9TokenTypeENS_12basic_stringIcNS_11char_traitsIcEENS1_IcEEEEEEPvEEEEEEE8max_sizeB8ue170006ISI_vEEmRKSI_, symObjAddr: 0x6B88, symBinAddr: 0x1000093B4, symSize: 0x24 }
  - { offsetInCU: 0x1F1AB, offset: 0x1F1AB, size: 0x8, addend: 0x0, symName: __ZNKSt3__19allocatorIPNS_16__hash_node_baseIPNS_11__hash_nodeINS_17__hash_value_typeIN5Token9TokenTypeENS_12basic_stringIcNS_11char_traitsIcEENS0_IcEEEEEEPvEEEEE8max_sizeB8ue170006Ev, symObjAddr: 0x6BAC, symBinAddr: 0x1000093D8, symSize: 0x14 }
  - { offsetInCU: 0x1F1D1, offset: 0x1F1D1, size: 0x8, addend: 0x0, symName: __ZNSt3__117__compressed_pairImNS_9allocatorIPNS_16__hash_node_baseIPNS_11__hash_nodeINS_17__hash_value_typeIN5Token9TokenTypeENS_12basic_stringIcNS_11char_traitsIcEENS1_IcEEEEEEPvEEEEEEE5firstB8ue170006Ev, symObjAddr: 0x6BC0, symBinAddr: 0x1000093EC, symSize: 0x24 }
  - { offsetInCU: 0x1F201, offset: 0x1F201, size: 0x8, addend: 0x0, symName: __ZNKSt3__16__lessIvvEclB8ue170006ImmEEbRKT_RKT0_, symObjAddr: 0x6C54, symBinAddr: 0x100009480, symSize: 0x34 }
  - { offsetInCU: 0x1F255, offset: 0x1F255, size: 0x8, addend: 0x0, symName: __ZNSt3__122__compressed_pair_elemINS_16__hash_node_baseIPNS_11__hash_nodeINS_17__hash_value_typeIN5Token9TokenTypeENS_12basic_stringIcNS_11char_traitsIcEENS_9allocatorIcEEEEEEPvEEEELi0ELb0EE5__getB8ue170006Ev, symObjAddr: 0x6C88, symBinAddr: 0x1000094B4, symSize: 0x14 }
  - { offsetInCU: 0x1F27B, offset: 0x1F27B, size: 0x8, addend: 0x0, symName: __ZNKSt3__117__compressed_pairIPNS_11__hash_nodeINS_17__hash_value_typeIN5Token9TokenTypeENS_12basic_stringIcNS_11char_traitsIcEENS_9allocatorIcEEEEEEPvEENS_22__hash_node_destructorINS8_ISD_EEEEE5firstB8ue170006Ev, symObjAddr: 0x6C9C, symBinAddr: 0x1000094C8, symSize: 0x24 }
  - { offsetInCU: 0x1F2A1, offset: 0x1F2A1, size: 0x8, addend: 0x0, symName: __ZNKSt3__122__compressed_pair_elemIPNS_11__hash_nodeINS_17__hash_value_typeIN5Token9TokenTypeENS_12basic_stringIcNS_11char_traitsIcEENS_9allocatorIcEEEEEEPvEELi0ELb0EE5__getB8ue170006Ev, symObjAddr: 0x6CC0, symBinAddr: 0x1000094EC, symSize: 0x14 }
  - { offsetInCU: 0x1F2C7, offset: 0x1F2C7, size: 0x8, addend: 0x0, symName: __ZNSt3__117__compressed_pairIPNS_11__hash_nodeINS_17__hash_value_typeIN5Token9TokenTypeENS_12basic_stringIcNS_11char_traitsIcEENS_9allocatorIcEEEEEEPvEENS_22__hash_node_destructorINS8_ISD_EEEEE5firstB8ue170006Ev, symObjAddr: 0x6CD4, symBinAddr: 0x100009500, symSize: 0x24 }
  - { offsetInCU: 0x1F2ED, offset: 0x1F2ED, size: 0x8, addend: 0x0, symName: __ZNSt3__122__compressed_pair_elemIPNS_11__hash_nodeINS_17__hash_value_typeIN5Token9TokenTypeENS_12basic_stringIcNS_11char_traitsIcEENS_9allocatorIcEEEEEEPvEELi0ELb0EE5__getB8ue170006Ev, symObjAddr: 0x6CF8, symBinAddr: 0x100009524, symSize: 0x14 }
  - { offsetInCU: 0x1F313, offset: 0x1F313, size: 0x8, addend: 0x0, symName: __ZNSt3__110unique_ptrINS_11__hash_nodeINS_17__hash_value_typeIN5Token9TokenTypeENS_12basic_stringIcNS_11char_traitsIcEENS_9allocatorIcEEEEEEPvEENS_22__hash_node_destructorINS8_ISD_EEEEED2B8ue170006Ev, symObjAddr: 0x6D0C, symBinAddr: 0x100009538, symSize: 0x30 }
  - { offsetInCU: 0x1F33D, offset: 0x1F33D, size: 0x8, addend: 0x0, symName: __ZNSt3__110unique_ptrINS_11__hash_nodeINS_17__hash_value_typeIN5Token9TokenTypeENS_12basic_stringIcNS_11char_traitsIcEENS_9allocatorIcEEEEEEPvEENS_22__hash_node_destructorINS8_ISD_EEEEE5resetB8ue170006EPSD_, symObjAddr: 0x6D3C, symBinAddr: 0x100009568, symSize: 0x78 }
  - { offsetInCU: 0x1F381, offset: 0x1F381, size: 0x8, addend: 0x0, symName: __ZNSt3__122__hash_node_destructorINS_9allocatorINS_11__hash_nodeINS_17__hash_value_typeIN5Token9TokenTypeENS_12basic_stringIcNS_11char_traitsIcEENS1_IcEEEEEEPvEEEEEclB8ue170006EPSD_, symObjAddr: 0x6DB4, symBinAddr: 0x1000095E0, symSize: 0x98 }
  - { offsetInCU: 0x1F3B6, offset: 0x1F3B6, size: 0x8, addend: 0x0, symName: __ZNSt3__116allocator_traitsINS_9allocatorINS_11__hash_nodeINS_17__hash_value_typeIN5Token9TokenTypeENS_12basic_stringIcNS_11char_traitsIcEENS1_IcEEEEEEPvEEEEE7destroyB8ue170006INS_4pairIKS5_SA_EEvvEEvRSE_PT_, symObjAddr: 0x6E4C, symBinAddr: 0x100009678, symSize: 0x28 }
  - { offsetInCU: 0x1F3F1, offset: 0x1F3F1, size: 0x8, addend: 0x0, symName: __ZNSt3__116allocator_traitsINS_9allocatorINS_11__hash_nodeINS_17__hash_value_typeIN5Token9TokenTypeENS_12basic_stringIcNS_11char_traitsIcEENS1_IcEEEEEEPvEEEEE10deallocateB8ue170006ERSE_PSD_m, symObjAddr: 0x6E74, symBinAddr: 0x1000096A0, symSize: 0x34 }
  - { offsetInCU: 0x1F433, offset: 0x1F433, size: 0x8, addend: 0x0, symName: __ZNSt3__19allocatorINS_11__hash_nodeINS_17__hash_value_typeIN5Token9TokenTypeENS_12basic_stringIcNS_11char_traitsIcEENS0_IcEEEEEEPvEEE10deallocateB8ue170006EPSC_m, symObjAddr: 0x6EA8, symBinAddr: 0x1000096D4, symSize: 0x44 }
  - { offsetInCU: 0x1F475, offset: 0x1F475, size: 0x8, addend: 0x0, symName: __ZNSt3__115__hash_iteratorIPNS_11__hash_nodeINS_17__hash_value_typeIN5Token9TokenTypeENS_12basic_stringIcNS_11char_traitsIcEENS_9allocatorIcEEEEEEPvEEEC2B8ue170006EPNS_16__hash_node_baseISE_EE, symObjAddr: 0x6EEC, symBinAddr: 0x100009718, symSize: 0x20 }
  - { offsetInCU: 0x1F4AE, offset: 0x1F4AE, size: 0x8, addend: 0x0, symName: __ZNSt3__14pairINS_15__hash_iteratorIPNS_11__hash_nodeINS_17__hash_value_typeIN5Token9TokenTypeENS_12basic_stringIcNS_11char_traitsIcEENS_9allocatorIcEEEEEEPvEEEEbEC2B8ue170006ISG_RbLSD_0EEEOT_OT0_, symObjAddr: 0x6F0C, symBinAddr: 0x100009738, symSize: 0x38 }
  - { offsetInCU: 0x1F50C, offset: 0x1F50C, size: 0x8, addend: 0x0, symName: __ZNSt3__112__hash_tableINS_17__hash_value_typeIN5Token9TokenTypeENS_12basic_stringIcNS_11char_traitsIcEENS_9allocatorIcEEEEEENS_22__unordered_map_hasherIS3_SA_NS_4hashIS3_EENS_8equal_toIS3_EELb1EEENS_21__unordered_map_equalIS3_SA_SF_SD_Lb1EEENS7_ISA_EEED2Ev, symObjAddr: 0x6F44, symBinAddr: 0x100009770, symSize: 0x48 }
  - { offsetInCU: 0x1F538, offset: 0x1F538, size: 0x8, addend: 0x0, symName: __ZNSt3__112__hash_tableINS_17__hash_value_typeIN5Token9TokenTypeENS_12basic_stringIcNS_11char_traitsIcEENS_9allocatorIcEEEEEENS_22__unordered_map_hasherIS3_SA_NS_4hashIS3_EENS_8equal_toIS3_EELb1EEENS_21__unordered_map_equalIS3_SA_SF_SD_Lb1EEENS7_ISA_EEE17__deallocate_nodeEPNS_16__hash_node_baseIPNS_11__hash_nodeISA_PvEEEE, symObjAddr: 0x6F8C, symBinAddr: 0x1000097B8, symSize: 0xA4 }
  - { offsetInCU: 0x1F5A2, offset: 0x1F5A2, size: 0x8, addend: 0x0, symName: __ZNSt3__110unique_ptrIA_PNS_16__hash_node_baseIPNS_11__hash_nodeINS_17__hash_value_typeIN5Token9TokenTypeENS_12basic_stringIcNS_11char_traitsIcEENS_9allocatorIcEEEEEEPvEEEENS_25__bucket_list_deallocatorINS9_ISH_EEEEED1B8ue170006Ev, symObjAddr: 0x7030, symBinAddr: 0x10000985C, symSize: 0x2C }
  - { offsetInCU: 0x1F5CC, offset: 0x1F5CC, size: 0x8, addend: 0x0, symName: __ZNSt3__110unique_ptrIA_PNS_16__hash_node_baseIPNS_11__hash_nodeINS_17__hash_value_typeIN5Token9TokenTypeENS_12basic_stringIcNS_11char_traitsIcEENS_9allocatorIcEEEEEEPvEEEENS_25__bucket_list_deallocatorINS9_ISH_EEEEED2B8ue170006Ev, symObjAddr: 0x705C, symBinAddr: 0x100009888, symSize: 0x30 }
  - { offsetInCU: 0x1F5F6, offset: 0x1F5F6, size: 0x8, addend: 0x0, symName: __ZNSt3__110unique_ptrIA_PNS_16__hash_node_baseIPNS_11__hash_nodeINS_17__hash_value_typeIN5Token9TokenTypeENS_12basic_stringIcNS_11char_traitsIcEENS_9allocatorIcEEEEEEPvEEEENS_25__bucket_list_deallocatorINS9_ISH_EEEEE5resetB8ue170006EDn, symObjAddr: 0x708C, symBinAddr: 0x1000098B8, symSize: 0x6C }
  - { offsetInCU: 0x1F637, offset: 0x1F637, size: 0x8, addend: 0x0, symName: __ZNSt3__113unordered_mapIN5Token9TokenTypeENS_12basic_stringIcNS_11char_traitsIcEENS_9allocatorIcEEEENS_4hashIS2_EENS_8equal_toIS2_EENS6_INS_4pairIKS2_S8_EEEEED2B8ue170006Ev, symObjAddr: 0x70F8, symBinAddr: 0x100009924, symSize: 0x2C }
  - { offsetInCU: 0x1F661, offset: 0x1F661, size: 0x8, addend: 0x0, symName: __ZNSt3__117__compressed_pairIP5TokenNS_9allocatorIS1_EEE6secondB8ue170006Ev, symObjAddr: 0x7124, symBinAddr: 0x100009950, symSize: 0x24 }
  - { offsetInCU: 0x1F687, offset: 0x1F687, size: 0x8, addend: 0x0, symName: __ZNSt3__122__compressed_pair_elemINS_9allocatorI5TokenEELi1ELb1EE5__getB8ue170006Ev, symObjAddr: 0x7148, symBinAddr: 0x100009974, symSize: 0x14 }
  - { offsetInCU: 0x1F6AD, offset: 0x1F6AD, size: 0x8, addend: 0x0, symName: __ZNSt3__16vectorI5TokenNS_9allocatorIS1_EEE21_ConstructTransactionD2B8ue170006Ev, symObjAddr: 0x715C, symBinAddr: 0x100009988, symSize: 0x20 }
  - { offsetInCU: 0x1F6D7, offset: 0x1F6D7, size: 0x8, addend: 0x0, symName: __ZNKSt3__16vectorI5TokenNS_9allocatorIS1_EEE11__recommendB8ue170006Em, symObjAddr: 0x717C, symBinAddr: 0x1000099A8, symSize: 0xB4 }
  - { offsetInCU: 0x1F72C, offset: 0x1F72C, size: 0x8, addend: 0x0, symName: __ZNSt3__114__split_bufferI5TokenRNS_9allocatorIS1_EEEC1EmmS4_, symObjAddr: 0x7230, symBinAddr: 0x100009A5C, symSize: 0x44 }
  - { offsetInCU: 0x1F782, offset: 0x1F782, size: 0x8, addend: 0x0, symName: __ZNSt3__114__split_bufferI5TokenRNS_9allocatorIS1_EEED1Ev, symObjAddr: 0x7384, symBinAddr: 0x100009BB0, symSize: 0x2C }
  - { offsetInCU: 0x1F7AE, offset: 0x1F7AE, size: 0x8, addend: 0x0, symName: __ZNKSt3__16vectorI5TokenNS_9allocatorIS1_EEE8max_sizeEv, symObjAddr: 0x73B0, symBinAddr: 0x100009BDC, symSize: 0x60 }
  - { offsetInCU: 0x1F7D6, offset: 0x1F7D6, size: 0x8, addend: 0x0, symName: __ZNKSt3__16vectorI5TokenNS_9allocatorIS1_EEE20__throw_length_errorB8ue170006Ev, symObjAddr: 0x7410, symBinAddr: 0x100009C3C, symSize: 0x1C }
  - { offsetInCU: 0x1F7FC, offset: 0x1F7FC, size: 0x8, addend: 0x0, symName: __ZNKSt3__16vectorI5TokenNS_9allocatorIS1_EEE8capacityB8ue170006Ev, symObjAddr: 0x742C, symBinAddr: 0x100009C58, symSize: 0x40 }
  - { offsetInCU: 0x1F82D, offset: 0x1F82D, size: 0x8, addend: 0x0, symName: __ZNSt3__116allocator_traitsINS_9allocatorI5TokenEEE8max_sizeB8ue170006IS3_vEEmRKS3_, symObjAddr: 0x7498, symBinAddr: 0x100009CC4, symSize: 0x24 }
  - { offsetInCU: 0x1F85B, offset: 0x1F85B, size: 0x8, addend: 0x0, symName: __ZNKSt3__16vectorI5TokenNS_9allocatorIS1_EEE7__allocB8ue170006Ev, symObjAddr: 0x74BC, symBinAddr: 0x100009CE8, symSize: 0x28 }
  - { offsetInCU: 0x1F881, offset: 0x1F881, size: 0x8, addend: 0x0, symName: __ZNSt3__114numeric_limitsIlE3maxB8ue170006Ev, symObjAddr: 0x74E4, symBinAddr: 0x100009D10, symSize: 0x14 }
  - { offsetInCU: 0x1F895, offset: 0x1F895, size: 0x8, addend: 0x0, symName: __ZNKSt3__19allocatorI5TokenE8max_sizeB8ue170006Ev, symObjAddr: 0x754C, symBinAddr: 0x100009D78, symSize: 0x18 }
  - { offsetInCU: 0x1F8BB, offset: 0x1F8BB, size: 0x8, addend: 0x0, symName: __ZNKSt3__117__compressed_pairIP5TokenNS_9allocatorIS1_EEE6secondB8ue170006Ev, symObjAddr: 0x7564, symBinAddr: 0x100009D90, symSize: 0x24 }
  - { offsetInCU: 0x1F8E1, offset: 0x1F8E1, size: 0x8, addend: 0x0, symName: __ZNKSt3__122__compressed_pair_elemINS_9allocatorI5TokenEELi1ELb1EE5__getB8ue170006Ev, symObjAddr: 0x7588, symBinAddr: 0x100009DB4, symSize: 0x14 }
  - { offsetInCU: 0x1F907, offset: 0x1F907, size: 0x8, addend: 0x0, symName: __ZNSt3__123__libcpp_numeric_limitsIlLb1EE3maxB8ue170006Ev, symObjAddr: 0x759C, symBinAddr: 0x100009DC8, symSize: 0x8 }
  - { offsetInCU: 0x1F91B, offset: 0x1F91B, size: 0x8, addend: 0x0, symName: __ZNSt12length_errorC1B8ue170006EPKc, symObjAddr: 0x7608, symBinAddr: 0x100009E34, symSize: 0x34 }
  - { offsetInCU: 0x1F953, offset: 0x1F953, size: 0x8, addend: 0x0, symName: __ZNSt12length_errorC2B8ue170006EPKc, symObjAddr: 0x763C, symBinAddr: 0x100009E68, symSize: 0x4C }
  - { offsetInCU: 0x1F98B, offset: 0x1F98B, size: 0x8, addend: 0x0, symName: __ZNKSt3__16vectorI5TokenNS_9allocatorIS1_EEE9__end_capB8ue170006Ev, symObjAddr: 0x7688, symBinAddr: 0x100009EB4, symSize: 0x28 }
  - { offsetInCU: 0x1F9B1, offset: 0x1F9B1, size: 0x8, addend: 0x0, symName: __ZNKSt3__117__compressed_pairIP5TokenNS_9allocatorIS1_EEE5firstB8ue170006Ev, symObjAddr: 0x76B0, symBinAddr: 0x100009EDC, symSize: 0x24 }
  - { offsetInCU: 0x1F9D7, offset: 0x1F9D7, size: 0x8, addend: 0x0, symName: __ZNKSt3__122__compressed_pair_elemIP5TokenLi0ELb0EE5__getB8ue170006Ev, symObjAddr: 0x76D4, symBinAddr: 0x100009F00, symSize: 0x14 }
  - { offsetInCU: 0x1F9FD, offset: 0x1F9FD, size: 0x8, addend: 0x0, symName: __ZNSt3__114__split_bufferI5TokenRNS_9allocatorIS1_EEEC2EmmS4_, symObjAddr: 0x76E8, symBinAddr: 0x100009F14, symSize: 0xE0 }
  - { offsetInCU: 0x1FA70, offset: 0x1FA70, size: 0x8, addend: 0x0, symName: __ZNSt3__117__compressed_pairIP5TokenRNS_9allocatorIS1_EEEC1B8ue170006IDnS5_EEOT_OT0_, symObjAddr: 0x77C8, symBinAddr: 0x100009FF4, symSize: 0x3C }
  - { offsetInCU: 0x1FAC8, offset: 0x1FAC8, size: 0x8, addend: 0x0, symName: __ZNSt3__114__split_bufferI5TokenRNS_9allocatorIS1_EEE7__allocB8ue170006Ev, symObjAddr: 0x7844, symBinAddr: 0x10000A070, symSize: 0x28 }
  - { offsetInCU: 0x1FAEE, offset: 0x1FAEE, size: 0x8, addend: 0x0, symName: __ZNSt3__114__split_bufferI5TokenRNS_9allocatorIS1_EEE9__end_capB8ue170006Ev, symObjAddr: 0x786C, symBinAddr: 0x10000A098, symSize: 0x28 }
  - { offsetInCU: 0x1FB14, offset: 0x1FB14, size: 0x8, addend: 0x0, symName: __ZNSt3__117__compressed_pairIP5TokenRNS_9allocatorIS1_EEEC2B8ue170006IDnS5_EEOT_OT0_, symObjAddr: 0x7894, symBinAddr: 0x10000A0C0, symSize: 0x48 }
  - { offsetInCU: 0x1FB6C, offset: 0x1FB6C, size: 0x8, addend: 0x0, symName: __ZNSt3__122__compressed_pair_elemIRNS_9allocatorI5TokenEELi1ELb0EEC2B8ue170006IS4_vEEOT_, symObjAddr: 0x78DC, symBinAddr: 0x10000A108, symSize: 0x20 }
  - { offsetInCU: 0x1FBAE, offset: 0x1FBAE, size: 0x8, addend: 0x0, symName: __ZNSt3__19allocatorI5TokenE8allocateB8ue170006Em, symObjAddr: 0x78FC, symBinAddr: 0x10000A128, symSize: 0x5C }
  - { offsetInCU: 0x1FBE2, offset: 0x1FBE2, size: 0x8, addend: 0x0, symName: __ZNSt3__117__compressed_pairIP5TokenRNS_9allocatorIS1_EEE6secondB8ue170006Ev, symObjAddr: 0x7958, symBinAddr: 0x10000A184, symSize: 0x28 }
  - { offsetInCU: 0x1FC08, offset: 0x1FC08, size: 0x8, addend: 0x0, symName: __ZNSt3__122__compressed_pair_elemIRNS_9allocatorI5TokenEELi1ELb0EE5__getB8ue170006Ev, symObjAddr: 0x7980, symBinAddr: 0x10000A1AC, symSize: 0x18 }
  - { offsetInCU: 0x1FC2E, offset: 0x1FC2E, size: 0x8, addend: 0x0, symName: __ZNSt3__117__compressed_pairIP5TokenRNS_9allocatorIS1_EEE5firstB8ue170006Ev, symObjAddr: 0x7998, symBinAddr: 0x10000A1C4, symSize: 0x24 }
  - { offsetInCU: 0x1FC54, offset: 0x1FC54, size: 0x8, addend: 0x0, symName: __ZNKSt3__16vectorI5TokenNS_9allocatorIS1_EEE17__annotate_deleteB8ue170006Ev, symObjAddr: 0x79BC, symBinAddr: 0x10000A1E8, symSize: 0xD4 }
  - { offsetInCU: 0x1FC7A, offset: 0x1FC7A, size: 0x8, addend: 0x0, symName: __ZNSt3__116reverse_iteratorIP5TokenEC1B8ue170006ES2_, symObjAddr: 0x7BBC, symBinAddr: 0x10000A3E8, symSize: 0x34 }
  - { offsetInCU: 0x1FCB2, offset: 0x1FCB2, size: 0x8, addend: 0x0, symName: __ZNKSt3__116reverse_iteratorIP5TokenE4baseB8ue170006Ev, symObjAddr: 0x7BF0, symBinAddr: 0x10000A41C, symSize: 0x18 }
  - { offsetInCU: 0x1FCD8, offset: 0x1FCD8, size: 0x8, addend: 0x0, symName: __ZNKSt3__16vectorI5TokenNS_9allocatorIS1_EEE14__annotate_newB8ue170006Em, symObjAddr: 0x7C44, symBinAddr: 0x10000A470, symSize: 0xC8 }
  - { offsetInCU: 0x1FD0D, offset: 0x1FD0D, size: 0x8, addend: 0x0, symName: __ZNKSt3__16vectorI5TokenNS_9allocatorIS1_EEE31__annotate_contiguous_containerB8ue170006EPKvS6_S6_S6_, symObjAddr: 0x7D0C, symBinAddr: 0x10000A538, symSize: 0x20 }
  - { offsetInCU: 0x1FD63, offset: 0x1FD63, size: 0x8, addend: 0x0, symName: __ZNKSt3__16vectorI5TokenNS_9allocatorIS1_EEE4dataB8ue170006Ev, symObjAddr: 0x7D2C, symBinAddr: 0x10000A558, symSize: 0x28 }
  - { offsetInCU: 0x1FD89, offset: 0x1FD89, size: 0x8, addend: 0x0, symName: __ZNSt3__129_AllocatorDestroyRangeReverseINS_9allocatorI5TokenEENS_16reverse_iteratorIPS2_EEEC1B8ue170006ERS3_RS6_S9_, symObjAddr: 0x7DA0, symBinAddr: 0x10000A5CC, symSize: 0x44 }
  - { offsetInCU: 0x1FDE0, offset: 0x1FDE0, size: 0x8, addend: 0x0, symName: __ZNSt3__116allocator_traitsINS_9allocatorI5TokenEEE9constructB8ue170006IS2_JRKS2_EvEEvRS3_PT_DpOT0_, symObjAddr: 0x7E2C, symBinAddr: 0x10000A658, symSize: 0x34 }
  - { offsetInCU: 0x1FE37, offset: 0x1FE37, size: 0x8, addend: 0x0, symName: __ZNKSt3__116reverse_iteratorIP5TokenEdeB8ue170006Ev, symObjAddr: 0x7E84, symBinAddr: 0x10000A6B0, symSize: 0x28 }
  - { offsetInCU: 0x1FE6B, offset: 0x1FE6B, size: 0x8, addend: 0x0, symName: __ZNSt3__116reverse_iteratorIP5TokenEppB8ue170006Ev, symObjAddr: 0x7EAC, symBinAddr: 0x10000A6D8, symSize: 0x20 }
  - { offsetInCU: 0x1FE91, offset: 0x1FE91, size: 0x8, addend: 0x0, symName: __ZNSt3__128__exception_guard_exceptionsINS_29_AllocatorDestroyRangeReverseINS_9allocatorI5TokenEENS_16reverse_iteratorIPS3_EEEEE10__completeB8ue170006Ev, symObjAddr: 0x7ECC, symBinAddr: 0x10000A6F8, symSize: 0x1C }
  - { offsetInCU: 0x1FEB7, offset: 0x1FEB7, size: 0x8, addend: 0x0, symName: __ZNSt3__128__exception_guard_exceptionsINS_29_AllocatorDestroyRangeReverseINS_9allocatorI5TokenEENS_16reverse_iteratorIPS3_EEEEED1B8ue170006Ev, symObjAddr: 0x7EE8, symBinAddr: 0x10000A714, symSize: 0x2C }
  - { offsetInCU: 0x1FEE1, offset: 0x1FEE1, size: 0x8, addend: 0x0, symName: __ZNSt3__128__exception_guard_exceptionsINS_29_AllocatorDestroyRangeReverseINS_9allocatorI5TokenEENS_16reverse_iteratorIPS3_EEEEEC1B8ue170006ES8_, symObjAddr: 0x7F14, symBinAddr: 0x10000A740, symSize: 0x34 }
  - { offsetInCU: 0x1FF1A, offset: 0x1FF1A, size: 0x8, addend: 0x0, symName: __ZNSt3__128__exception_guard_exceptionsINS_29_AllocatorDestroyRangeReverseINS_9allocatorI5TokenEENS_16reverse_iteratorIPS3_EEEEEC2B8ue170006ES8_, symObjAddr: 0x7F48, symBinAddr: 0x10000A774, symSize: 0x30 }
  - { offsetInCU: 0x1FF53, offset: 0x1FF53, size: 0x8, addend: 0x0, symName: __ZNSt3__129_AllocatorDestroyRangeReverseINS_9allocatorI5TokenEENS_16reverse_iteratorIPS2_EEEC2B8ue170006ERS3_RS6_S9_, symObjAddr: 0x7F78, symBinAddr: 0x10000A7A4, symSize: 0x38 }
  - { offsetInCU: 0x1FFAA, offset: 0x1FFAA, size: 0x8, addend: 0x0, symName: __ZNSt3__19allocatorI5TokenE9constructB8ue170006IS1_JRKS1_EEEvPT_DpOT0_, symObjAddr: 0x7FB0, symBinAddr: 0x10000A7DC, symSize: 0x30 }
  - { offsetInCU: 0x20000, offset: 0x20000, size: 0x8, addend: 0x0, symName: __ZN5TokenC1ERKS_, symObjAddr: 0x7FE0, symBinAddr: 0x10000A80C, symSize: 0x34 }
  - { offsetInCU: 0x20035, offset: 0x20035, size: 0x8, addend: 0x0, symName: __ZN5TokenC2ERKS_, symObjAddr: 0x8014, symBinAddr: 0x10000A840, symSize: 0x88 }
  - { offsetInCU: 0x2006A, offset: 0x2006A, size: 0x8, addend: 0x0, symName: __ZNSt3__113unordered_mapIN5Token9TokenTypeENS_12basic_stringIcNS_11char_traitsIcEENS_9allocatorIcEEEENS_4hashIS2_EENS_8equal_toIS2_EENS6_INS_4pairIKS2_S8_EEEEEC1ERKSH_, symObjAddr: 0x809C, symBinAddr: 0x10000A8C8, symSize: 0x34 }
  - { offsetInCU: 0x200A5, offset: 0x200A5, size: 0x8, addend: 0x0, symName: __ZNSt3__113unordered_mapIN5Token9TokenTypeENS_12basic_stringIcNS_11char_traitsIcEENS_9allocatorIcEEEENS_4hashIS2_EENS_8equal_toIS2_EENS6_INS_4pairIKS2_S8_EEEEEC2ERKSH_, symObjAddr: 0x80D0, symBinAddr: 0x10000A8FC, symSize: 0xA0 }
  - { offsetInCU: 0x200E0, offset: 0x200E0, size: 0x8, addend: 0x0, symName: __ZNSt3__112__hash_tableINS_17__hash_value_typeIN5Token9TokenTypeENS_12basic_stringIcNS_11char_traitsIcEENS_9allocatorIcEEEEEENS_22__unordered_map_hasherIS3_SA_NS_4hashIS3_EENS_8equal_toIS3_EELb1EEENS_21__unordered_map_equalIS3_SA_SF_SD_Lb1EEENS7_ISA_EEEC1ERKSK_, symObjAddr: 0x8170, symBinAddr: 0x10000A99C, symSize: 0x34 }
  - { offsetInCU: 0x2011B, offset: 0x2011B, size: 0x8, addend: 0x0, symName: __ZNKSt3__113unordered_mapIN5Token9TokenTypeENS_12basic_stringIcNS_11char_traitsIcEENS_9allocatorIcEEEENS_4hashIS2_EENS_8equal_toIS2_EENS6_INS_4pairIKS2_S8_EEEEE12bucket_countB8ue170006Ev, symObjAddr: 0x81A4, symBinAddr: 0x10000A9D0, symSize: 0x24 }
  - { offsetInCU: 0x20141, offset: 0x20141, size: 0x8, addend: 0x0, symName: __ZNSt3__113unordered_mapIN5Token9TokenTypeENS_12basic_stringIcNS_11char_traitsIcEENS_9allocatorIcEEEENS_4hashIS2_EENS_8equal_toIS2_EENS6_INS_4pairIKS2_S8_EEEEE6insertINS_25__hash_map_const_iteratorINS_21__hash_const_iteratorIPNS_11__hash_nodeINS_17__hash_value_typeIS2_S8_EEPvEEEEEEEEvT_ST_, symObjAddr: 0x81C8, symBinAddr: 0x10000A9F4, symSize: 0x70 }
  - { offsetInCU: 0x20190, offset: 0x20190, size: 0x8, addend: 0x0, symName: __ZNKSt3__113unordered_mapIN5Token9TokenTypeENS_12basic_stringIcNS_11char_traitsIcEENS_9allocatorIcEEEENS_4hashIS2_EENS_8equal_toIS2_EENS6_INS_4pairIKS2_S8_EEEEE5beginB8ue170006Ev, symObjAddr: 0x8238, symBinAddr: 0x10000AA64, symSize: 0x38 }
  - { offsetInCU: 0x201B6, offset: 0x201B6, size: 0x8, addend: 0x0, symName: __ZNKSt3__113unordered_mapIN5Token9TokenTypeENS_12basic_stringIcNS_11char_traitsIcEENS_9allocatorIcEEEENS_4hashIS2_EENS_8equal_toIS2_EENS6_INS_4pairIKS2_S8_EEEEE3endB8ue170006Ev, symObjAddr: 0x8270, symBinAddr: 0x10000AA9C, symSize: 0x38 }
  - { offsetInCU: 0x201DC, offset: 0x201DC, size: 0x8, addend: 0x0, symName: __ZNSt3__112__hash_tableINS_17__hash_value_typeIN5Token9TokenTypeENS_12basic_stringIcNS_11char_traitsIcEENS_9allocatorIcEEEEEENS_22__unordered_map_hasherIS3_SA_NS_4hashIS3_EENS_8equal_toIS3_EELb1EEENS_21__unordered_map_equalIS3_SA_SF_SD_Lb1EEENS7_ISA_EEEC2ERKSK_, symObjAddr: 0x82A8, symBinAddr: 0x10000AAD4, symSize: 0xEC }
  - { offsetInCU: 0x20217, offset: 0x20217, size: 0x8, addend: 0x0, symName: __ZNSt3__116allocator_traitsINS_9allocatorIPNS_16__hash_node_baseIPNS_11__hash_nodeINS_17__hash_value_typeIN5Token9TokenTypeENS_12basic_stringIcNS_11char_traitsIcEENS1_IcEEEEEEPvEEEEEEE37select_on_container_copy_constructionB8ue170006ISI_vvEESI_RKSI_, symObjAddr: 0x8394, symBinAddr: 0x10000ABC0, symSize: 0x10 }
  - { offsetInCU: 0x20246, offset: 0x20246, size: 0x8, addend: 0x0, symName: __ZNKSt3__125__bucket_list_deallocatorINS_9allocatorIPNS_16__hash_node_baseIPNS_11__hash_nodeINS_17__hash_value_typeIN5Token9TokenTypeENS_12basic_stringIcNS_11char_traitsIcEENS1_IcEEEEEEPvEEEEEEE7__allocB8ue170006Ev, symObjAddr: 0x83A4, symBinAddr: 0x10000ABD0, symSize: 0x24 }
  - { offsetInCU: 0x2026C, offset: 0x2026C, size: 0x8, addend: 0x0, symName: __ZNSt3__125__bucket_list_deallocatorINS_9allocatorIPNS_16__hash_node_baseIPNS_11__hash_nodeINS_17__hash_value_typeIN5Token9TokenTypeENS_12basic_stringIcNS_11char_traitsIcEENS1_IcEEEEEEPvEEEEEEEC1B8ue170006ERKSI_m, symObjAddr: 0x83C8, symBinAddr: 0x10000ABF4, symSize: 0x3C }
  - { offsetInCU: 0x202B4, offset: 0x202B4, size: 0x8, addend: 0x0, symName: __ZNSt3__110unique_ptrIA_PNS_16__hash_node_baseIPNS_11__hash_nodeINS_17__hash_value_typeIN5Token9TokenTypeENS_12basic_stringIcNS_11char_traitsIcEENS_9allocatorIcEEEEEEPvEEEENS_25__bucket_list_deallocatorINS9_ISH_EEEEEC1B8ue170006ILb1EvEEDnNS_16__dependent_typeINS_27__unique_ptr_deleter_sfinaeISL_EEXT_EE20__good_rval_ref_typeE, symObjAddr: 0x8404, symBinAddr: 0x10000AC30, symSize: 0x3C }
  - { offsetInCU: 0x20304, offset: 0x20304, size: 0x8, addend: 0x0, symName: __ZNSt3__116allocator_traitsINS_9allocatorINS_11__hash_nodeINS_17__hash_value_typeIN5Token9TokenTypeENS_12basic_stringIcNS_11char_traitsIcEENS1_IcEEEEEEPvEEEEE37select_on_container_copy_constructionB8ue170006ISE_vvEESE_RKSE_, symObjAddr: 0x8440, symBinAddr: 0x10000AC6C, symSize: 0x10 }
  - { offsetInCU: 0x20333, offset: 0x20333, size: 0x8, addend: 0x0, symName: __ZNKSt3__112__hash_tableINS_17__hash_value_typeIN5Token9TokenTypeENS_12basic_stringIcNS_11char_traitsIcEENS_9allocatorIcEEEEEENS_22__unordered_map_hasherIS3_SA_NS_4hashIS3_EENS_8equal_toIS3_EELb1EEENS_21__unordered_map_equalIS3_SA_SF_SD_Lb1EEENS7_ISA_EEE12__node_allocB8ue170006Ev, symObjAddr: 0x8450, symBinAddr: 0x10000AC7C, symSize: 0x28 }
  - { offsetInCU: 0x2035F, offset: 0x2035F, size: 0x8, addend: 0x0, symName: __ZNSt3__117__compressed_pairINS_16__hash_node_baseIPNS_11__hash_nodeINS_17__hash_value_typeIN5Token9TokenTypeENS_12basic_stringIcNS_11char_traitsIcEENS_9allocatorIcEEEEEEPvEEEENS9_ISE_EEEC1B8ue170006INS_18__default_init_tagESH_EEOT_OT0_, symObjAddr: 0x8478, symBinAddr: 0x10000ACA4, symSize: 0x3C }
  - { offsetInCU: 0x203B7, offset: 0x203B7, size: 0x8, addend: 0x0, symName: __ZNKSt3__112__hash_tableINS_17__hash_value_typeIN5Token9TokenTypeENS_12basic_stringIcNS_11char_traitsIcEENS_9allocatorIcEEEEEENS_22__unordered_map_hasherIS3_SA_NS_4hashIS3_EENS_8equal_toIS3_EELb1EEENS_21__unordered_map_equalIS3_SA_SF_SD_Lb1EEENS7_ISA_EEE13hash_functionB8ue170006Ev, symObjAddr: 0x84B4, symBinAddr: 0x10000ACE0, symSize: 0x28 }
  - { offsetInCU: 0x203DD, offset: 0x203DD, size: 0x8, addend: 0x0, symName: __ZNSt3__117__compressed_pairImNS_22__unordered_map_hasherIN5Token9TokenTypeENS_17__hash_value_typeIS3_NS_12basic_stringIcNS_11char_traitsIcEENS_9allocatorIcEEEEEENS_4hashIS3_EENS_8equal_toIS3_EELb1EEEEC1B8ue170006IiRKSG_EEOT_OT0_, symObjAddr: 0x84DC, symBinAddr: 0x10000AD08, symSize: 0x3C }
  - { offsetInCU: 0x20435, offset: 0x20435, size: 0x8, addend: 0x0, symName: __ZNKSt3__117__compressed_pairImNS_9allocatorIPNS_16__hash_node_baseIPNS_11__hash_nodeINS_17__hash_value_typeIN5Token9TokenTypeENS_12basic_stringIcNS_11char_traitsIcEENS1_IcEEEEEEPvEEEEEEE6secondB8ue170006Ev, symObjAddr: 0x8518, symBinAddr: 0x10000AD44, symSize: 0x24 }
  - { offsetInCU: 0x2045B, offset: 0x2045B, size: 0x8, addend: 0x0, symName: __ZNKSt3__122__compressed_pair_elemINS_9allocatorIPNS_16__hash_node_baseIPNS_11__hash_nodeINS_17__hash_value_typeIN5Token9TokenTypeENS_12basic_stringIcNS_11char_traitsIcEENS1_IcEEEEEEPvEEEEEELi1ELb1EE5__getB8ue170006Ev, symObjAddr: 0x853C, symBinAddr: 0x10000AD68, symSize: 0x14 }
  - { offsetInCU: 0x20481, offset: 0x20481, size: 0x8, addend: 0x0, symName: __ZNSt3__125__bucket_list_deallocatorINS_9allocatorIPNS_16__hash_node_baseIPNS_11__hash_nodeINS_17__hash_value_typeIN5Token9TokenTypeENS_12basic_stringIcNS_11char_traitsIcEENS1_IcEEEEEEPvEEEEEEEC2B8ue170006ERKSI_m, symObjAddr: 0x8550, symBinAddr: 0x10000AD7C, symSize: 0x44 }
  - { offsetInCU: 0x204C9, offset: 0x204C9, size: 0x8, addend: 0x0, symName: __ZNSt3__117__compressed_pairImNS_9allocatorIPNS_16__hash_node_baseIPNS_11__hash_nodeINS_17__hash_value_typeIN5Token9TokenTypeENS_12basic_stringIcNS_11char_traitsIcEENS1_IcEEEEEEPvEEEEEEEC1B8ue170006IRmRKSI_EEOT_OT0_, symObjAddr: 0x8594, symBinAddr: 0x10000ADC0, symSize: 0x3C }
  - { offsetInCU: 0x20521, offset: 0x20521, size: 0x8, addend: 0x0, symName: __ZNSt3__117__compressed_pairImNS_9allocatorIPNS_16__hash_node_baseIPNS_11__hash_nodeINS_17__hash_value_typeIN5Token9TokenTypeENS_12basic_stringIcNS_11char_traitsIcEENS1_IcEEEEEEPvEEEEEEEC2B8ue170006IRmRKSI_EEOT_OT0_, symObjAddr: 0x85D0, symBinAddr: 0x10000ADFC, symSize: 0x44 }
  - { offsetInCU: 0x20579, offset: 0x20579, size: 0x8, addend: 0x0, symName: __ZNSt3__122__compressed_pair_elemImLi0ELb0EEC2B8ue170006IRmvEEOT_, symObjAddr: 0x8614, symBinAddr: 0x10000AE40, symSize: 0x24 }
  - { offsetInCU: 0x205BB, offset: 0x205BB, size: 0x8, addend: 0x0, symName: __ZNSt3__122__compressed_pair_elemINS_9allocatorIPNS_16__hash_node_baseIPNS_11__hash_nodeINS_17__hash_value_typeIN5Token9TokenTypeENS_12basic_stringIcNS_11char_traitsIcEENS1_IcEEEEEEPvEEEEEELi1ELb1EEC2B8ue170006IRKSI_vEEOT_, symObjAddr: 0x8638, symBinAddr: 0x10000AE64, symSize: 0x18 }
  - { offsetInCU: 0x205FD, offset: 0x205FD, size: 0x8, addend: 0x0, symName: __ZNSt3__110unique_ptrIA_PNS_16__hash_node_baseIPNS_11__hash_nodeINS_17__hash_value_typeIN5Token9TokenTypeENS_12basic_stringIcNS_11char_traitsIcEENS_9allocatorIcEEEEEEPvEEEENS_25__bucket_list_deallocatorINS9_ISH_EEEEEC2B8ue170006ILb1EvEEDnNS_16__dependent_typeINS_27__unique_ptr_deleter_sfinaeISL_EEXT_EE20__good_rval_ref_typeE, symObjAddr: 0x8650, symBinAddr: 0x10000AE7C, symSize: 0x48 }
  - { offsetInCU: 0x2064D, offset: 0x2064D, size: 0x8, addend: 0x0, symName: __ZNSt3__117__compressed_pairIPPNS_16__hash_node_baseIPNS_11__hash_nodeINS_17__hash_value_typeIN5Token9TokenTypeENS_12basic_stringIcNS_11char_traitsIcEENS_9allocatorIcEEEEEEPvEEEENS_25__bucket_list_deallocatorINS9_ISH_EEEEEC1B8ue170006IDnSL_EEOT_OT0_, symObjAddr: 0x8698, symBinAddr: 0x10000AEC4, symSize: 0x3C }
  - { offsetInCU: 0x206A5, offset: 0x206A5, size: 0x8, addend: 0x0, symName: __ZNSt3__117__compressed_pairIPPNS_16__hash_node_baseIPNS_11__hash_nodeINS_17__hash_value_typeIN5Token9TokenTypeENS_12basic_stringIcNS_11char_traitsIcEENS_9allocatorIcEEEEEEPvEEEENS_25__bucket_list_deallocatorINS9_ISH_EEEEEC2B8ue170006IDnSL_EEOT_OT0_, symObjAddr: 0x86D4, symBinAddr: 0x10000AF00, symSize: 0x48 }
  - { offsetInCU: 0x206FD, offset: 0x206FD, size: 0x8, addend: 0x0, symName: __ZNSt3__122__compressed_pair_elemIPPNS_16__hash_node_baseIPNS_11__hash_nodeINS_17__hash_value_typeIN5Token9TokenTypeENS_12basic_stringIcNS_11char_traitsIcEENS_9allocatorIcEEEEEEPvEEEELi0ELb0EEC2B8ue170006IDnvEEOT_, symObjAddr: 0x871C, symBinAddr: 0x10000AF48, symSize: 0x1C }
  - { offsetInCU: 0x2073F, offset: 0x2073F, size: 0x8, addend: 0x0, symName: __ZNSt3__122__compressed_pair_elemINS_25__bucket_list_deallocatorINS_9allocatorIPNS_16__hash_node_baseIPNS_11__hash_nodeINS_17__hash_value_typeIN5Token9TokenTypeENS_12basic_stringIcNS_11char_traitsIcEENS2_IcEEEEEEPvEEEEEEEELi1ELb0EEC2B8ue170006ISK_vEEOT_, symObjAddr: 0x8738, symBinAddr: 0x10000AF64, symSize: 0x34 }
  - { offsetInCU: 0x20781, offset: 0x20781, size: 0x8, addend: 0x0, symName: __ZNSt3__125__bucket_list_deallocatorINS_9allocatorIPNS_16__hash_node_baseIPNS_11__hash_nodeINS_17__hash_value_typeIN5Token9TokenTypeENS_12basic_stringIcNS_11char_traitsIcEENS1_IcEEEEEEPvEEEEEEEC1B8ue170006EOSJ_, symObjAddr: 0x876C, symBinAddr: 0x10000AF98, symSize: 0x34 }
  - { offsetInCU: 0x207BA, offset: 0x207BA, size: 0x8, addend: 0x0, symName: __ZNSt3__125__bucket_list_deallocatorINS_9allocatorIPNS_16__hash_node_baseIPNS_11__hash_nodeINS_17__hash_value_typeIN5Token9TokenTypeENS_12basic_stringIcNS_11char_traitsIcEENS1_IcEEEEEEPvEEEEEEEC2B8ue170006EOSJ_, symObjAddr: 0x87A0, symBinAddr: 0x10000AFCC, symSize: 0x48 }
  - { offsetInCU: 0x207F3, offset: 0x207F3, size: 0x8, addend: 0x0, symName: __ZNKSt3__117__compressed_pairINS_16__hash_node_baseIPNS_11__hash_nodeINS_17__hash_value_typeIN5Token9TokenTypeENS_12basic_stringIcNS_11char_traitsIcEENS_9allocatorIcEEEEEEPvEEEENS9_ISE_EEE6secondB8ue170006Ev, symObjAddr: 0x87E8, symBinAddr: 0x10000B014, symSize: 0x24 }
  - { offsetInCU: 0x20819, offset: 0x20819, size: 0x8, addend: 0x0, symName: __ZNKSt3__122__compressed_pair_elemINS_9allocatorINS_11__hash_nodeINS_17__hash_value_typeIN5Token9TokenTypeENS_12basic_stringIcNS_11char_traitsIcEENS1_IcEEEEEEPvEEEELi1ELb1EE5__getB8ue170006Ev, symObjAddr: 0x880C, symBinAddr: 0x10000B038, symSize: 0x14 }
  - { offsetInCU: 0x2083F, offset: 0x2083F, size: 0x8, addend: 0x0, symName: __ZNSt3__117__compressed_pairINS_16__hash_node_baseIPNS_11__hash_nodeINS_17__hash_value_typeIN5Token9TokenTypeENS_12basic_stringIcNS_11char_traitsIcEENS_9allocatorIcEEEEEEPvEEEENS9_ISE_EEEC2B8ue170006INS_18__default_init_tagESH_EEOT_OT0_, symObjAddr: 0x8820, symBinAddr: 0x10000B04C, symSize: 0x40 }
  - { offsetInCU: 0x20897, offset: 0x20897, size: 0x8, addend: 0x0, symName: __ZNSt3__122__compressed_pair_elemINS_16__hash_node_baseIPNS_11__hash_nodeINS_17__hash_value_typeIN5Token9TokenTypeENS_12basic_stringIcNS_11char_traitsIcEENS_9allocatorIcEEEEEEPvEEEELi0ELb0EEC2B8ue170006ENS_18__default_init_tagE, symObjAddr: 0x8860, symBinAddr: 0x10000B08C, symSize: 0x2C }
  - { offsetInCU: 0x208CC, offset: 0x208CC, size: 0x8, addend: 0x0, symName: __ZNSt3__122__compressed_pair_elemINS_9allocatorINS_11__hash_nodeINS_17__hash_value_typeIN5Token9TokenTypeENS_12basic_stringIcNS_11char_traitsIcEENS1_IcEEEEEEPvEEEELi1ELb1EEC2B8ue170006ISE_vEEOT_, symObjAddr: 0x888C, symBinAddr: 0x10000B0B8, symSize: 0x18 }
  - { offsetInCU: 0x2090E, offset: 0x2090E, size: 0x8, addend: 0x0, symName: __ZNKSt3__117__compressed_pairImNS_22__unordered_map_hasherIN5Token9TokenTypeENS_17__hash_value_typeIS3_NS_12basic_stringIcNS_11char_traitsIcEENS_9allocatorIcEEEEEENS_4hashIS3_EENS_8equal_toIS3_EELb1EEEE6secondB8ue170006Ev, symObjAddr: 0x88A4, symBinAddr: 0x10000B0D0, symSize: 0x24 }
  - { offsetInCU: 0x20934, offset: 0x20934, size: 0x8, addend: 0x0, symName: __ZNKSt3__122__compressed_pair_elemINS_22__unordered_map_hasherIN5Token9TokenTypeENS_17__hash_value_typeIS3_NS_12basic_stringIcNS_11char_traitsIcEENS_9allocatorIcEEEEEENS_4hashIS3_EENS_8equal_toIS3_EELb1EEELi1ELb1EE5__getB8ue170006Ev, symObjAddr: 0x88C8, symBinAddr: 0x10000B0F4, symSize: 0x14 }
  - { offsetInCU: 0x2095A, offset: 0x2095A, size: 0x8, addend: 0x0, symName: __ZNSt3__117__compressed_pairImNS_22__unordered_map_hasherIN5Token9TokenTypeENS_17__hash_value_typeIS3_NS_12basic_stringIcNS_11char_traitsIcEENS_9allocatorIcEEEEEENS_4hashIS3_EENS_8equal_toIS3_EELb1EEEEC2B8ue170006IiRKSG_EEOT_OT0_, symObjAddr: 0x88DC, symBinAddr: 0x10000B108, symSize: 0x44 }
  - { offsetInCU: 0x209B2, offset: 0x209B2, size: 0x8, addend: 0x0, symName: __ZNSt3__122__compressed_pair_elemINS_22__unordered_map_hasherIN5Token9TokenTypeENS_17__hash_value_typeIS3_NS_12basic_stringIcNS_11char_traitsIcEENS_9allocatorIcEEEEEENS_4hashIS3_EENS_8equal_toIS3_EELb1EEELi1ELb1EEC2B8ue170006IRKSG_vEEOT_, symObjAddr: 0x8920, symBinAddr: 0x10000B14C, symSize: 0x18 }
  - { offsetInCU: 0x209F4, offset: 0x209F4, size: 0x8, addend: 0x0, symName: __ZNKSt3__125__hash_map_const_iteratorINS_21__hash_const_iteratorIPNS_11__hash_nodeINS_17__hash_value_typeIN5Token9TokenTypeENS_12basic_stringIcNS_11char_traitsIcEENS_9allocatorIcEEEEEEPvEEEEEdeB8ue170006Ev, symObjAddr: 0x8968, symBinAddr: 0x10000B194, symSize: 0x28 }
  - { offsetInCU: 0x20A1A, offset: 0x20A1A, size: 0x8, addend: 0x0, symName: __ZNSt3__125__hash_map_const_iteratorINS_21__hash_const_iteratorIPNS_11__hash_nodeINS_17__hash_value_typeIN5Token9TokenTypeENS_12basic_stringIcNS_11char_traitsIcEENS_9allocatorIcEEEEEEPvEEEEEppB8ue170006Ev, symObjAddr: 0x8990, symBinAddr: 0x10000B1BC, symSize: 0x2C }
  - { offsetInCU: 0x20A40, offset: 0x20A40, size: 0x8, addend: 0x0, symName: __ZNKSt3__121__hash_const_iteratorIPNS_11__hash_nodeINS_17__hash_value_typeIN5Token9TokenTypeENS_12basic_stringIcNS_11char_traitsIcEENS_9allocatorIcEEEEEEPvEEEptB8ue170006Ev, symObjAddr: 0x8A20, symBinAddr: 0x10000B24C, symSize: 0x30 }
  - { offsetInCU: 0x20A66, offset: 0x20A66, size: 0x8, addend: 0x0, symName: __ZNSt3__114pointer_traitsIPKNS_17__hash_value_typeIN5Token9TokenTypeENS_12basic_stringIcNS_11char_traitsIcEENS_9allocatorIcEEEEEEE10pointer_toB8ue170006ERSB_, symObjAddr: 0x8A50, symBinAddr: 0x10000B27C, symSize: 0x14 }
  - { offsetInCU: 0x20A89, offset: 0x20A89, size: 0x8, addend: 0x0, symName: __ZNSt3__121__hash_const_iteratorIPNS_11__hash_nodeINS_17__hash_value_typeIN5Token9TokenTypeENS_12basic_stringIcNS_11char_traitsIcEENS_9allocatorIcEEEEEEPvEEEppB8ue170006Ev, symObjAddr: 0x8A64, symBinAddr: 0x10000B290, symSize: 0x20 }
  - { offsetInCU: 0x20AAF, offset: 0x20AAF, size: 0x8, addend: 0x0, symName: __ZNKSt3__112__hash_tableINS_17__hash_value_typeIN5Token9TokenTypeENS_12basic_stringIcNS_11char_traitsIcEENS_9allocatorIcEEEEEENS_22__unordered_map_hasherIS3_SA_NS_4hashIS3_EENS_8equal_toIS3_EELb1EEENS_21__unordered_map_equalIS3_SA_SF_SD_Lb1EEENS7_ISA_EEE5beginEv, symObjAddr: 0x8A84, symBinAddr: 0x10000B2B0, symSize: 0x38 }
  - { offsetInCU: 0x20AD7, offset: 0x20AD7, size: 0x8, addend: 0x0, symName: __ZNSt3__125__hash_map_const_iteratorINS_21__hash_const_iteratorIPNS_11__hash_nodeINS_17__hash_value_typeIN5Token9TokenTypeENS_12basic_stringIcNS_11char_traitsIcEENS_9allocatorIcEEEEEEPvEEEEEC1B8ue170006ESG_, symObjAddr: 0x8ABC, symBinAddr: 0x10000B2E8, symSize: 0x34 }
  - { offsetInCU: 0x20B10, offset: 0x20B10, size: 0x8, addend: 0x0, symName: __ZNKSt3__117__compressed_pairINS_16__hash_node_baseIPNS_11__hash_nodeINS_17__hash_value_typeIN5Token9TokenTypeENS_12basic_stringIcNS_11char_traitsIcEENS_9allocatorIcEEEEEEPvEEEENS9_ISE_EEE5firstB8ue170006Ev, symObjAddr: 0x8AF0, symBinAddr: 0x10000B31C, symSize: 0x24 }
  - { offsetInCU: 0x20B36, offset: 0x20B36, size: 0x8, addend: 0x0, symName: __ZNSt3__121__hash_const_iteratorIPNS_11__hash_nodeINS_17__hash_value_typeIN5Token9TokenTypeENS_12basic_stringIcNS_11char_traitsIcEENS_9allocatorIcEEEEEEPvEEEC1B8ue170006EPNS_16__hash_node_baseISE_EE, symObjAddr: 0x8B14, symBinAddr: 0x10000B340, symSize: 0x34 }
  - { offsetInCU: 0x20B6F, offset: 0x20B6F, size: 0x8, addend: 0x0, symName: __ZNKSt3__122__compressed_pair_elemINS_16__hash_node_baseIPNS_11__hash_nodeINS_17__hash_value_typeIN5Token9TokenTypeENS_12basic_stringIcNS_11char_traitsIcEENS_9allocatorIcEEEEEEPvEEEELi0ELb0EE5__getB8ue170006Ev, symObjAddr: 0x8B48, symBinAddr: 0x10000B374, symSize: 0x14 }
  - { offsetInCU: 0x20B95, offset: 0x20B95, size: 0x8, addend: 0x0, symName: __ZNSt3__121__hash_const_iteratorIPNS_11__hash_nodeINS_17__hash_value_typeIN5Token9TokenTypeENS_12basic_stringIcNS_11char_traitsIcEENS_9allocatorIcEEEEEEPvEEEC2B8ue170006EPNS_16__hash_node_baseISE_EE, symObjAddr: 0x8B5C, symBinAddr: 0x10000B388, symSize: 0x20 }
  - { offsetInCU: 0x20BCE, offset: 0x20BCE, size: 0x8, addend: 0x0, symName: __ZNSt3__125__hash_map_const_iteratorINS_21__hash_const_iteratorIPNS_11__hash_nodeINS_17__hash_value_typeIN5Token9TokenTypeENS_12basic_stringIcNS_11char_traitsIcEENS_9allocatorIcEEEEEEPvEEEEEC2B8ue170006ESG_, symObjAddr: 0x8B7C, symBinAddr: 0x10000B3A8, symSize: 0x20 }
  - { offsetInCU: 0x20C07, offset: 0x20C07, size: 0x8, addend: 0x0, symName: __ZNKSt3__112__hash_tableINS_17__hash_value_typeIN5Token9TokenTypeENS_12basic_stringIcNS_11char_traitsIcEENS_9allocatorIcEEEEEENS_22__unordered_map_hasherIS3_SA_NS_4hashIS3_EENS_8equal_toIS3_EELb1EEENS_21__unordered_map_equalIS3_SA_SF_SD_Lb1EEENS7_ISA_EEE3endEv, symObjAddr: 0x8B9C, symBinAddr: 0x10000B3C8, symSize: 0x2C }
  - { offsetInCU: 0x20C35, offset: 0x20C35, size: 0x8, addend: 0x0, symName: __ZNSt3__119__to_address_helperINS_16reverse_iteratorIP5TokenEEvE6__callB8ue170006ERKS4_, symObjAddr: 0x8BC8, symBinAddr: 0x10000B3F4, symSize: 0x38 }
  - { offsetInCU: 0x20C58, offset: 0x20C58, size: 0x8, addend: 0x0, symName: __ZNKSt3__116reverse_iteratorIP5TokenEptB8ue170006Ev, symObjAddr: 0x8C00, symBinAddr: 0x10000B42C, symSize: 0x24 }
  - { offsetInCU: 0x20C7E, offset: 0x20C7E, size: 0x8, addend: 0x0, symName: __ZNSt3__128__exception_guard_exceptionsINS_29_AllocatorDestroyRangeReverseINS_9allocatorI5TokenEENS_16reverse_iteratorIPS3_EEEEED2B8ue170006Ev, symObjAddr: 0x8C24, symBinAddr: 0x10000B450, symSize: 0x50 }
  - { offsetInCU: 0x20CA8, offset: 0x20CA8, size: 0x8, addend: 0x0, symName: __ZNKSt3__129_AllocatorDestroyRangeReverseINS_9allocatorI5TokenEENS_16reverse_iteratorIPS2_EEEclB8ue170006Ev, symObjAddr: 0x8C74, symBinAddr: 0x10000B4A0, symSize: 0xB4 }
  - { offsetInCU: 0x20CCF, offset: 0x20CCF, size: 0x8, addend: 0x0, symName: __ZNSt3__116reverse_iteratorINS0_IP5TokenEEEC1B8ue170006ES3_, symObjAddr: 0x8D98, symBinAddr: 0x10000B5C4, symSize: 0x3C }
  - { offsetInCU: 0x20D07, offset: 0x20D07, size: 0x8, addend: 0x0, symName: __ZNSt3__116allocator_traitsINS_9allocatorI5TokenEEE7destroyB8ue170006IS2_vEEvRS3_PT_, symObjAddr: 0x8E34, symBinAddr: 0x10000B660, symSize: 0x2C }
  - { offsetInCU: 0x20D44, offset: 0x20D44, size: 0x8, addend: 0x0, symName: __ZNSt3__116reverse_iteratorINS0_IP5TokenEEEppB8ue170006Ev, symObjAddr: 0x8E84, symBinAddr: 0x10000B6B0, symSize: 0x30 }
  - { offsetInCU: 0x20D6A, offset: 0x20D6A, size: 0x8, addend: 0x0, symName: __ZNKSt3__116reverse_iteratorINS0_IP5TokenEEE4baseB8ue170006Ev, symObjAddr: 0x8EB4, symBinAddr: 0x10000B6E0, symSize: 0x24 }
  - { offsetInCU: 0x20D90, offset: 0x20D90, size: 0x8, addend: 0x0, symName: __ZNSt3__19allocatorI5TokenE7destroyB8ue170006EPS1_, symObjAddr: 0x8ED8, symBinAddr: 0x10000B704, symSize: 0x28 }
  - { offsetInCU: 0x20DC4, offset: 0x20DC4, size: 0x8, addend: 0x0, symName: __ZN5TokenD1Ev, symObjAddr: 0x8F00, symBinAddr: 0x10000B72C, symSize: 0x2C }
  - { offsetInCU: 0x20DF0, offset: 0x20DF0, size: 0x8, addend: 0x0, symName: __ZN5TokenD2Ev, symObjAddr: 0x8F2C, symBinAddr: 0x10000B758, symSize: 0x38 }
  - { offsetInCU: 0x20E22, offset: 0x20E22, size: 0x8, addend: 0x0, symName: __ZNSt3__119__to_address_helperINS_16reverse_iteratorINS1_IP5TokenEEEEvE6__callB8ue170006ERKS5_, symObjAddr: 0x8F64, symBinAddr: 0x10000B790, symSize: 0x38 }
  - { offsetInCU: 0x20E45, offset: 0x20E45, size: 0x8, addend: 0x0, symName: __ZNKSt3__116reverse_iteratorINS0_IP5TokenEEEptB8ue170006Ev, symObjAddr: 0x8F9C, symBinAddr: 0x10000B7C8, symSize: 0x24 }
  - { offsetInCU: 0x20E6B, offset: 0x20E6B, size: 0x8, addend: 0x0, symName: __ZNKSt3__116reverse_iteratorINS0_IP5TokenEEEdeB8ue170006Ev, symObjAddr: 0x8FC0, symBinAddr: 0x10000B7EC, symSize: 0x34 }
  - { offsetInCU: 0x20E9F, offset: 0x20E9F, size: 0x8, addend: 0x0, symName: __ZNSt3__116reverse_iteratorIP5TokenEmmB8ue170006Ev, symObjAddr: 0x8FF4, symBinAddr: 0x10000B820, symSize: 0x20 }
  - { offsetInCU: 0x20EC5, offset: 0x20EC5, size: 0x8, addend: 0x0, symName: __ZNSt3__116reverse_iteratorINS0_IP5TokenEEEC2B8ue170006ES3_, symObjAddr: 0x9014, symBinAddr: 0x10000B840, symSize: 0x2C }
  - { offsetInCU: 0x20EFD, offset: 0x20EFD, size: 0x8, addend: 0x0, symName: __ZNSt3__116reverse_iteratorIP5TokenEC2B8ue170006ES2_, symObjAddr: 0x9040, symBinAddr: 0x10000B86C, symSize: 0x28 }
  - { offsetInCU: 0x20F35, offset: 0x20F35, size: 0x8, addend: 0x0, symName: __ZNSt3__114__split_bufferI5TokenRNS_9allocatorIS1_EEED2Ev, symObjAddr: 0x9068, symBinAddr: 0x10000B894, symSize: 0x8C }
  - { offsetInCU: 0x20F61, offset: 0x20F61, size: 0x8, addend: 0x0, symName: __ZNSt3__114__split_bufferI5TokenRNS_9allocatorIS1_EEE5clearB8ue170006Ev, symObjAddr: 0x90F4, symBinAddr: 0x10000B920, symSize: 0x28 }
  - { offsetInCU: 0x20F87, offset: 0x20F87, size: 0x8, addend: 0x0, symName: __ZNSt3__116allocator_traitsINS_9allocatorI5TokenEEE10deallocateB8ue170006ERS3_PS2_m, symObjAddr: 0x911C, symBinAddr: 0x10000B948, symSize: 0x34 }
  - { offsetInCU: 0x20FC9, offset: 0x20FC9, size: 0x8, addend: 0x0, symName: __ZNKSt3__114__split_bufferI5TokenRNS_9allocatorIS1_EEE8capacityB8ue170006Ev, symObjAddr: 0x9150, symBinAddr: 0x10000B97C, symSize: 0x40 }
  - { offsetInCU: 0x20FEF, offset: 0x20FEF, size: 0x8, addend: 0x0, symName: __ZNSt3__114__split_bufferI5TokenRNS_9allocatorIS1_EEE17__destruct_at_endB8ue170006EPS1_, symObjAddr: 0x9190, symBinAddr: 0x10000B9BC, symSize: 0x2C }
  - { offsetInCU: 0x21023, offset: 0x21023, size: 0x8, addend: 0x0, symName: __ZNSt3__114__split_bufferI5TokenRNS_9allocatorIS1_EEE17__destruct_at_endB8ue170006EPS1_NS_17integral_constantIbLb0EEE, symObjAddr: 0x91BC, symBinAddr: 0x10000B9E8, symSize: 0x80 }
  - { offsetInCU: 0x21064, offset: 0x21064, size: 0x8, addend: 0x0, symName: __ZNSt3__19allocatorI5TokenE10deallocateB8ue170006EPS1_m, symObjAddr: 0x923C, symBinAddr: 0x10000BA68, symSize: 0x44 }
  - { offsetInCU: 0x210A6, offset: 0x210A6, size: 0x8, addend: 0x0, symName: __ZNKSt3__114__split_bufferI5TokenRNS_9allocatorIS1_EEE9__end_capB8ue170006Ev, symObjAddr: 0x9280, symBinAddr: 0x10000BAAC, symSize: 0x28 }
  - { offsetInCU: 0x210CC, offset: 0x210CC, size: 0x8, addend: 0x0, symName: __ZNKSt3__117__compressed_pairIP5TokenRNS_9allocatorIS1_EEE5firstB8ue170006Ev, symObjAddr: 0x92A8, symBinAddr: 0x10000BAD4, symSize: 0x24 }
  - { offsetInCU: 0x210F2, offset: 0x210F2, size: 0x8, addend: 0x0, symName: __ZNSt3__16vectorI5TokenNS_9allocatorIS1_EEE22__construct_one_at_endB8ue170006IJNS1_9TokenTypeERA6_KcRiEEEvDpOT_, symObjAddr: 0x92CC, symBinAddr: 0x10000BAF8, symSize: 0xA0 }
  - { offsetInCU: 0x21169, offset: 0x21169, size: 0x8, addend: 0x0, symName: __ZNSt3__16vectorI5TokenNS_9allocatorIS1_EEE24__emplace_back_slow_pathIJNS1_9TokenTypeERA6_KcRiEEEvDpOT_, symObjAddr: 0x936C, symBinAddr: 0x10000BB98, symSize: 0xE8 }
  - { offsetInCU: 0x211F1, offset: 0x211F1, size: 0x8, addend: 0x0, symName: __ZNSt3__116allocator_traitsINS_9allocatorI5TokenEEE9constructB8ue170006IS2_JNS2_9TokenTypeERA6_KcRiEvEEvRS3_PT_DpOT0_, symObjAddr: 0x9454, symBinAddr: 0x10000BC80, symSize: 0x44 }
  - { offsetInCU: 0x21270, offset: 0x21270, size: 0x8, addend: 0x0, symName: __ZNSt3__19allocatorI5TokenE9constructB8ue170006IS1_JNS1_9TokenTypeERA6_KcRiEEEvPT_DpOT0_, symObjAddr: 0x9498, symBinAddr: 0x10000BCC4, symSize: 0x94 }
  - { offsetInCU: 0x212EC, offset: 0x212EC, size: 0x8, addend: 0x0, symName: __ZNSt3__16vectorI5TokenNS_9allocatorIS1_EEE22__construct_one_at_endB8ue170006IJNS1_9TokenTypeERNS_12basic_stringIcNS_11char_traitsIcEENS2_IcEEEERiEEEvDpOT_, symObjAddr: 0x952C, symBinAddr: 0x10000BD58, symSize: 0xA0 }
  - { offsetInCU: 0x21363, offset: 0x21363, size: 0x8, addend: 0x0, symName: __ZNSt3__16vectorI5TokenNS_9allocatorIS1_EEE24__emplace_back_slow_pathIJNS1_9TokenTypeERNS_12basic_stringIcNS_11char_traitsIcEENS2_IcEEEERiEEEvDpOT_, symObjAddr: 0x95CC, symBinAddr: 0x10000BDF8, symSize: 0xE8 }
  - { offsetInCU: 0x213EB, offset: 0x213EB, size: 0x8, addend: 0x0, symName: __ZNSt3__116allocator_traitsINS_9allocatorI5TokenEEE9constructB8ue170006IS2_JNS2_9TokenTypeERNS_12basic_stringIcNS_11char_traitsIcEENS1_IcEEEERiEvEEvRS3_PT_DpOT0_, symObjAddr: 0x96B4, symBinAddr: 0x10000BEE0, symSize: 0x44 }
  - { offsetInCU: 0x2146A, offset: 0x2146A, size: 0x8, addend: 0x0, symName: __ZNSt3__19allocatorI5TokenE9constructB8ue170006IS1_JNS1_9TokenTypeERNS_12basic_stringIcNS_11char_traitsIcEENS0_IcEEEERiEEEvPT_DpOT0_, symObjAddr: 0x96F8, symBinAddr: 0x10000BF24, symSize: 0x94 }
  - { offsetInCU: 0x214EC, offset: 0x214EC, size: 0x8, addend: 0x0, symName: __ZNSt3__16vectorI5TokenNS_9allocatorIS1_EEE12emplace_backIJNS1_9TokenTypeENS_12basic_stringIcNS_11char_traitsIcEENS2_IcEEEERiEEERS1_DpOT_, symObjAddr: 0x978C, symBinAddr: 0x10000BFB8, symSize: 0x8C }
  - { offsetInCU: 0x21556, offset: 0x21556, size: 0x8, addend: 0x0, symName: __ZNSt3__16vectorI5TokenNS_9allocatorIS1_EEE22__construct_one_at_endB8ue170006IJNS1_9TokenTypeENS_12basic_stringIcNS_11char_traitsIcEENS2_IcEEEERiEEEvDpOT_, symObjAddr: 0x9818, symBinAddr: 0x10000C044, symSize: 0xA0 }
  - { offsetInCU: 0x215CD, offset: 0x215CD, size: 0x8, addend: 0x0, symName: __ZNSt3__16vectorI5TokenNS_9allocatorIS1_EEE24__emplace_back_slow_pathIJNS1_9TokenTypeENS_12basic_stringIcNS_11char_traitsIcEENS2_IcEEEERiEEEvDpOT_, symObjAddr: 0x98B8, symBinAddr: 0x10000C0E4, symSize: 0xE8 }
  - { offsetInCU: 0x21655, offset: 0x21655, size: 0x8, addend: 0x0, symName: __ZNSt3__116allocator_traitsINS_9allocatorI5TokenEEE9constructB8ue170006IS2_JNS2_9TokenTypeENS_12basic_stringIcNS_11char_traitsIcEENS1_IcEEEERiEvEEvRS3_PT_DpOT0_, symObjAddr: 0x99A0, symBinAddr: 0x10000C1CC, symSize: 0x44 }
  - { offsetInCU: 0x216D4, offset: 0x216D4, size: 0x8, addend: 0x0, symName: __ZNSt3__19allocatorI5TokenE9constructB8ue170006IS1_JNS1_9TokenTypeENS_12basic_stringIcNS_11char_traitsIcEENS0_IcEEEERiEEEvPT_DpOT0_, symObjAddr: 0x99E4, symBinAddr: 0x10000C210, symSize: 0x94 }
  - { offsetInCU: 0x21750, offset: 0x21750, size: 0x8, addend: 0x0, symName: __ZNKSt3__112basic_stringIcNS_11char_traitsIcEENS_9allocatorIcEEE15__get_long_sizeB8ue170006Ev, symObjAddr: 0x9A78, symBinAddr: 0x10000C2A4, symSize: 0x28 }
  - { offsetInCU: 0x21776, offset: 0x21776, size: 0x8, addend: 0x0, symName: __ZNKSt3__112basic_stringIcNS_11char_traitsIcEENS_9allocatorIcEEE16__get_short_sizeB8ue170006Ev, symObjAddr: 0x9AA0, symBinAddr: 0x10000C2CC, symSize: 0x34 }
  - { offsetInCU: 0x2179C, offset: 0x2179C, size: 0x8, addend: 0x0, symName: __ZNSt3__16vectorI5TokenNS_9allocatorIS1_EEE22__construct_one_at_endB8ue170006IJRNS1_9TokenTypeERNS_12basic_stringIcNS_11char_traitsIcEENS2_IcEEEERiEEEvDpOT_, symObjAddr: 0x9AD4, symBinAddr: 0x10000C300, symSize: 0xA0 }
  - { offsetInCU: 0x21813, offset: 0x21813, size: 0x8, addend: 0x0, symName: __ZNSt3__16vectorI5TokenNS_9allocatorIS1_EEE24__emplace_back_slow_pathIJRNS1_9TokenTypeERNS_12basic_stringIcNS_11char_traitsIcEENS2_IcEEEERiEEEvDpOT_, symObjAddr: 0x9B74, symBinAddr: 0x10000C3A0, symSize: 0xE8 }
  - { offsetInCU: 0x2189B, offset: 0x2189B, size: 0x8, addend: 0x0, symName: __ZNSt3__116allocator_traitsINS_9allocatorI5TokenEEE9constructB8ue170006IS2_JRNS2_9TokenTypeERNS_12basic_stringIcNS_11char_traitsIcEENS1_IcEEEERiEvEEvRS3_PT_DpOT0_, symObjAddr: 0x9C5C, symBinAddr: 0x10000C488, symSize: 0x44 }
  - { offsetInCU: 0x2191A, offset: 0x2191A, size: 0x8, addend: 0x0, symName: __ZNSt3__19allocatorI5TokenE9constructB8ue170006IS1_JRNS1_9TokenTypeERNS_12basic_stringIcNS_11char_traitsIcEENS0_IcEEEERiEEEvPT_DpOT0_, symObjAddr: 0x9CA0, symBinAddr: 0x10000C4CC, symSize: 0x94 }
  - { offsetInCU: 0x21996, offset: 0x21996, size: 0x8, addend: 0x0, symName: __ZNSt3__16vectorI5TokenNS_9allocatorIS1_EEE22__construct_one_at_endB8ue170006IJNS1_9TokenTypeERA1_KcRiEEEvDpOT_, symObjAddr: 0x9D34, symBinAddr: 0x10000C560, symSize: 0xA0 }
  - { offsetInCU: 0x21A0D, offset: 0x21A0D, size: 0x8, addend: 0x0, symName: __ZNSt3__16vectorI5TokenNS_9allocatorIS1_EEE24__emplace_back_slow_pathIJNS1_9TokenTypeERA1_KcRiEEEvDpOT_, symObjAddr: 0x9DD4, symBinAddr: 0x10000C600, symSize: 0xE8 }
  - { offsetInCU: 0x21A95, offset: 0x21A95, size: 0x8, addend: 0x0, symName: __ZNSt3__116allocator_traitsINS_9allocatorI5TokenEEE9constructB8ue170006IS2_JNS2_9TokenTypeERA1_KcRiEvEEvRS3_PT_DpOT0_, symObjAddr: 0x9EBC, symBinAddr: 0x10000C6E8, symSize: 0x44 }
  - { offsetInCU: 0x21B14, offset: 0x21B14, size: 0x8, addend: 0x0, symName: __ZNSt3__19allocatorI5TokenE9constructB8ue170006IS1_JNS1_9TokenTypeERA1_KcRiEEEvPT_DpOT0_, symObjAddr: 0x9F00, symBinAddr: 0x10000C72C, symSize: 0x94 }
  - { offsetInCU: 0x21B90, offset: 0x21B90, size: 0x8, addend: 0x0, symName: __ZNSt3__16vectorI5TokenNS_9allocatorIS1_EEEC2ERKS4_, symObjAddr: 0x9F94, symBinAddr: 0x10000C7C0, symSize: 0x94 }
  - { offsetInCU: 0x21BCB, offset: 0x21BCB, size: 0x8, addend: 0x0, symName: __ZNSt3__116allocator_traitsINS_9allocatorI5TokenEEE37select_on_container_copy_constructionB8ue170006IS3_vvEES3_RKS3_, symObjAddr: 0xA028, symBinAddr: 0x10000C854, symSize: 0x10 }
  - { offsetInCU: 0x21C00, offset: 0x21C00, size: 0x8, addend: 0x0, symName: __ZNSt3__117__compressed_pairIP5TokenNS_9allocatorIS1_EEEC1B8ue170006IDnS4_EEOT_OT0_, symObjAddr: 0xA038, symBinAddr: 0x10000C864, symSize: 0x3C }
  - { offsetInCU: 0x21C58, offset: 0x21C58, size: 0x8, addend: 0x0, symName: __ZNSt3__16vectorI5TokenNS_9allocatorIS1_EEE16__init_with_sizeB8ue170006IPS1_S6_EEvT_T0_m, symObjAddr: 0xA074, symBinAddr: 0x10000C8A0, symSize: 0xB8 }
  - { offsetInCU: 0x21CCC, offset: 0x21CCC, size: 0x8, addend: 0x0, symName: __ZNSt3__117__compressed_pairIP5TokenNS_9allocatorIS1_EEEC2B8ue170006IDnS4_EEOT_OT0_, symObjAddr: 0xA12C, symBinAddr: 0x10000C958, symSize: 0x44 }
  - { offsetInCU: 0x21D24, offset: 0x21D24, size: 0x8, addend: 0x0, symName: __ZNSt3__122__compressed_pair_elemINS_9allocatorI5TokenEELi1ELb1EEC2B8ue170006IS3_vEEOT_, symObjAddr: 0xA170, symBinAddr: 0x10000C99C, symSize: 0x18 }
  - { offsetInCU: 0x21D66, offset: 0x21D66, size: 0x8, addend: 0x0, symName: __ZNSt3__16vectorI5TokenNS_9allocatorIS1_EEE16__destroy_vectorC1B8ue170006ERS4_, symObjAddr: 0xA1C8, symBinAddr: 0x10000C9F4, symSize: 0x34 }
  - { offsetInCU: 0x21D9F, offset: 0x21D9F, size: 0x8, addend: 0x0, symName: __ZNSt3__16vectorI5TokenNS_9allocatorIS1_EEE11__vallocateB8ue170006Em, symObjAddr: 0xA1FC, symBinAddr: 0x10000CA28, symSize: 0xB4 }
  - { offsetInCU: 0x21DE3, offset: 0x21DE3, size: 0x8, addend: 0x0, symName: __ZNSt3__16vectorI5TokenNS_9allocatorIS1_EEE18__construct_at_endIPS1_S6_EEvT_T0_m, symObjAddr: 0xA2B0, symBinAddr: 0x10000CADC, symSize: 0x8C }
  - { offsetInCU: 0x21E59, offset: 0x21E59, size: 0x8, addend: 0x0, symName: __ZNSt3__128__exception_guard_exceptionsINS_6vectorI5TokenNS_9allocatorIS2_EEE16__destroy_vectorEE10__completeB8ue170006Ev, symObjAddr: 0xA33C, symBinAddr: 0x10000CB68, symSize: 0x1C }
  - { offsetInCU: 0x21E7F, offset: 0x21E7F, size: 0x8, addend: 0x0, symName: __ZNSt3__128__exception_guard_exceptionsINS_6vectorI5TokenNS_9allocatorIS2_EEE16__destroy_vectorEED1B8ue170006Ev, symObjAddr: 0xA358, symBinAddr: 0x10000CB84, symSize: 0x2C }
  - { offsetInCU: 0x21EA9, offset: 0x21EA9, size: 0x8, addend: 0x0, symName: __ZNSt3__128__exception_guard_exceptionsINS_6vectorI5TokenNS_9allocatorIS2_EEE16__destroy_vectorEEC1B8ue170006ES6_, symObjAddr: 0xA384, symBinAddr: 0x10000CBB0, symSize: 0x34 }
  - { offsetInCU: 0x21EE1, offset: 0x21EE1, size: 0x8, addend: 0x0, symName: __ZNSt3__128__exception_guard_exceptionsINS_6vectorI5TokenNS_9allocatorIS2_EEE16__destroy_vectorEEC2B8ue170006ES6_, symObjAddr: 0xA3B8, symBinAddr: 0x10000CBE4, symSize: 0x24 }
  - { offsetInCU: 0x21F19, offset: 0x21F19, size: 0x8, addend: 0x0, symName: __ZNSt3__16vectorI5TokenNS_9allocatorIS1_EEE16__destroy_vectorC2B8ue170006ERS4_, symObjAddr: 0xA3DC, symBinAddr: 0x10000CC08, symSize: 0x20 }
  - { offsetInCU: 0x21F74, offset: 0x21F74, size: 0x8, addend: 0x0, symName: __ZNSt3__14pairIP5TokenS2_EC1B8ue170006IS2_S2_LPv0EEEOT_OT0_, symObjAddr: 0xA668, symBinAddr: 0x10000CE94, symSize: 0x3C }
  - { offsetInCU: 0x21FD2, offset: 0x21FD2, size: 0x8, addend: 0x0, symName: __ZNSt3__14pairIP5TokenS2_EC2B8ue170006IS2_S2_LPv0EEEOT_OT0_, symObjAddr: 0xA6A4, symBinAddr: 0x10000CED0, symSize: 0x34 }
  - { offsetInCU: 0x22030, offset: 0x22030, size: 0x8, addend: 0x0, symName: __ZNSt3__129_AllocatorDestroyRangeReverseINS_9allocatorI5TokenEEPS2_EC1B8ue170006ERS3_RS4_S7_, symObjAddr: 0xA724, symBinAddr: 0x10000CF50, symSize: 0x44 }
  - { offsetInCU: 0x22087, offset: 0x22087, size: 0x8, addend: 0x0, symName: __ZNSt3__116allocator_traitsINS_9allocatorI5TokenEEE9constructB8ue170006IS2_JRS2_EvEEvRS3_PT_DpOT0_, symObjAddr: 0xA768, symBinAddr: 0x10000CF94, symSize: 0x34 }
  - { offsetInCU: 0x220DE, offset: 0x220DE, size: 0x8, addend: 0x0, symName: __ZNSt3__128__exception_guard_exceptionsINS_29_AllocatorDestroyRangeReverseINS_9allocatorI5TokenEEPS3_EEE10__completeB8ue170006Ev, symObjAddr: 0xA79C, symBinAddr: 0x10000CFC8, symSize: 0x1C }
  - { offsetInCU: 0x22104, offset: 0x22104, size: 0x8, addend: 0x0, symName: __ZNSt3__128__exception_guard_exceptionsINS_29_AllocatorDestroyRangeReverseINS_9allocatorI5TokenEEPS3_EEED1B8ue170006Ev, symObjAddr: 0xA7B8, symBinAddr: 0x10000CFE4, symSize: 0x2C }
  - { offsetInCU: 0x2212E, offset: 0x2212E, size: 0x8, addend: 0x0, symName: __ZNSt3__128__exception_guard_exceptionsINS_29_AllocatorDestroyRangeReverseINS_9allocatorI5TokenEEPS3_EEEC1B8ue170006ES6_, symObjAddr: 0xA7E4, symBinAddr: 0x10000D010, symSize: 0x34 }
  - { offsetInCU: 0x22167, offset: 0x22167, size: 0x8, addend: 0x0, symName: __ZNSt3__128__exception_guard_exceptionsINS_29_AllocatorDestroyRangeReverseINS_9allocatorI5TokenEEPS3_EEEC2B8ue170006ES6_, symObjAddr: 0xA818, symBinAddr: 0x10000D044, symSize: 0x30 }
  - { offsetInCU: 0x221A0, offset: 0x221A0, size: 0x8, addend: 0x0, symName: __ZNSt3__129_AllocatorDestroyRangeReverseINS_9allocatorI5TokenEEPS2_EC2B8ue170006ERS3_RS4_S7_, symObjAddr: 0xA848, symBinAddr: 0x10000D074, symSize: 0x38 }
  - { offsetInCU: 0x221F7, offset: 0x221F7, size: 0x8, addend: 0x0, symName: __ZNSt3__19allocatorI5TokenE9constructB8ue170006IS1_JRS1_EEEvPT_DpOT0_, symObjAddr: 0xA880, symBinAddr: 0x10000D0AC, symSize: 0x30 }
  - { offsetInCU: 0x2224D, offset: 0x2224D, size: 0x8, addend: 0x0, symName: __ZNSt3__128__exception_guard_exceptionsINS_29_AllocatorDestroyRangeReverseINS_9allocatorI5TokenEEPS3_EEED2B8ue170006Ev, symObjAddr: 0xA8B0, symBinAddr: 0x10000D0DC, symSize: 0x50 }
  - { offsetInCU: 0x22277, offset: 0x22277, size: 0x8, addend: 0x0, symName: __ZNKSt3__129_AllocatorDestroyRangeReverseINS_9allocatorI5TokenEEPS2_EclB8ue170006Ev, symObjAddr: 0xA900, symBinAddr: 0x10000D12C, symSize: 0x68 }
  - { offsetInCU: 0x2229D, offset: 0x2229D, size: 0x8, addend: 0x0, symName: __ZNSt3__118__unwrap_iter_implIP5TokenLb1EE8__unwrapB8ue170006ES2_, symObjAddr: 0xA9D8, symBinAddr: 0x10000D204, symSize: 0x24 }
  - { offsetInCU: 0x222C0, offset: 0x222C0, size: 0x8, addend: 0x0, symName: __ZNSt3__118__unwrap_iter_implIP5TokenLb1EE8__rewrapB8ue170006ES2_S2_, symObjAddr: 0xA9FC, symBinAddr: 0x10000D228, symSize: 0x58 }
  - { offsetInCU: 0x222F1, offset: 0x222F1, size: 0x8, addend: 0x0, symName: __ZNSt3__128__exception_guard_exceptionsINS_6vectorI5TokenNS_9allocatorIS2_EEE16__destroy_vectorEED2B8ue170006Ev, symObjAddr: 0xAA54, symBinAddr: 0x10000D280, symSize: 0x50 }
  - { offsetInCU: 0x2231B, offset: 0x2231B, size: 0x8, addend: 0x0, symName: __ZNSt3__16vectorI5TokenNS_9allocatorIS1_EEE16__destroy_vectorclB8ue170006Ev, symObjAddr: 0xAAA4, symBinAddr: 0x10000D2D0, symSize: 0x90 }
  - { offsetInCU: 0x22341, offset: 0x22341, size: 0x8, addend: 0x0, symName: __ZNSt3__16vectorI5TokenNS_9allocatorIS1_EEE7__clearB8ue170006Ev, symObjAddr: 0xAB34, symBinAddr: 0x10000D360, symSize: 0x28 }
  - { offsetInCU: 0x22367, offset: 0x22367, size: 0x8, addend: 0x0, symName: __ZNSt3__16vectorI5TokenNS_9allocatorIS1_EEE22__base_destruct_at_endB8ue170006EPS1_, symObjAddr: 0xAB5C, symBinAddr: 0x10000D388, symSize: 0x8C }
  - { offsetInCU: 0x223AB, offset: 0x223AB, size: 0x8, addend: 0x0, symName: __ZNKSt3__111__wrap_iterIP5TokenE4baseB8ue170006Ev, symObjAddr: 0xAC30, symBinAddr: 0x10000D45C, symSize: 0x18 }
  - { offsetInCU: 0x223D1, offset: 0x223D1, size: 0x8, addend: 0x0, symName: __ZNK5Token8typeNameENS_9TokenTypeE, symObjAddr: 0xAC48, symBinAddr: 0x10000D474, symSize: 0xA4 }
  - { offsetInCU: 0x22413, offset: 0x22413, size: 0x8, addend: 0x0, symName: __ZNKSt3__113unordered_mapIN5Token9TokenTypeENS_12basic_stringIcNS_11char_traitsIcEENS_9allocatorIcEEEENS_4hashIS2_EENS_8equal_toIS2_EENS6_INS_4pairIKS2_S8_EEEEE4findB8ue170006ERSE_, symObjAddr: 0xACEC, symBinAddr: 0x10000D518, symSize: 0x40 }
  - { offsetInCU: 0x22448, offset: 0x22448, size: 0x8, addend: 0x0, symName: __ZNKSt3__125__hash_map_const_iteratorINS_21__hash_const_iteratorIPNS_11__hash_nodeINS_17__hash_value_typeIN5Token9TokenTypeENS_12basic_stringIcNS_11char_traitsIcEENS_9allocatorIcEEEEEEPvEEEEEptB8ue170006Ev, symObjAddr: 0xAD2C, symBinAddr: 0x10000D558, symSize: 0x2C }
  - { offsetInCU: 0x2246E, offset: 0x2246E, size: 0x8, addend: 0x0, symName: __ZNKSt3__112__hash_tableINS_17__hash_value_typeIN5Token9TokenTypeENS_12basic_stringIcNS_11char_traitsIcEENS_9allocatorIcEEEEEENS_22__unordered_map_hasherIS3_SA_NS_4hashIS3_EENS_8equal_toIS3_EELb1EEENS_21__unordered_map_equalIS3_SA_SF_SD_Lb1EEENS7_ISA_EEE4findIS3_EENS_21__hash_const_iteratorIPNS_11__hash_nodeISA_PvEEEERKT_, symObjAddr: 0xAD58, symBinAddr: 0x10000D584, symSize: 0x1B8 }
  - { offsetInCU: 0x224F8, offset: 0x224F8, size: 0x8, addend: 0x0, symName: __ZNKSt3__112__hash_tableINS_17__hash_value_typeIN5Token9TokenTypeENS_12basic_stringIcNS_11char_traitsIcEENS_9allocatorIcEEEEEENS_22__unordered_map_hasherIS3_SA_NS_4hashIS3_EENS_8equal_toIS3_EELb1EEENS_21__unordered_map_equalIS3_SA_SF_SD_Lb1EEENS7_ISA_EEE6key_eqB8ue170006Ev, symObjAddr: 0xAF10, symBinAddr: 0x10000D73C, symSize: 0x28 }
  - { offsetInCU: 0x2251E, offset: 0x2251E, size: 0x8, addend: 0x0, symName: __ZNKSt3__117__compressed_pairIfNS_21__unordered_map_equalIN5Token9TokenTypeENS_17__hash_value_typeIS3_NS_12basic_stringIcNS_11char_traitsIcEENS_9allocatorIcEEEEEENS_8equal_toIS3_EENS_4hashIS3_EELb1EEEE6secondB8ue170006Ev, symObjAddr: 0xAF38, symBinAddr: 0x10000D764, symSize: 0x24 }
  - { offsetInCU: 0x22544, offset: 0x22544, size: 0x8, addend: 0x0, symName: __ZNKSt3__122__compressed_pair_elemINS_21__unordered_map_equalIN5Token9TokenTypeENS_17__hash_value_typeIS3_NS_12basic_stringIcNS_11char_traitsIcEENS_9allocatorIcEEEEEENS_8equal_toIS3_EENS_4hashIS3_EELb1EEELi1ELb1EE5__getB8ue170006Ev, symObjAddr: 0xAF5C, symBinAddr: 0x10000D788, symSize: 0x14 }
  - { offsetInCU: 0x2256A, offset: 0x2256A, size: 0x8, addend: 0x0, symName: __ZNSt3__114pointer_traitsIPKNS_4pairIKN5Token9TokenTypeENS_12basic_stringIcNS_11char_traitsIcEENS_9allocatorIcEEEEEEE10pointer_toB8ue170006ERSC_, symObjAddr: 0xAF70, symBinAddr: 0x10000D79C, symSize: 0x14 }
  - { offsetInCU: 0x2258D, offset: 0x2258D, size: 0x8, addend: 0x0, symName: __ZN7ScannerD2Ev, symObjAddr: 0xAF84, symBinAddr: 0x10000D7B0, symSize: 0x44 }
  - { offsetInCU: 0x225B9, offset: 0x225B9, size: 0x8, addend: 0x0, symName: __ZNSt3__15stackIcNS_5dequeIcNS_9allocatorIcEEEEED1Ev, symObjAddr: 0xAFC8, symBinAddr: 0x10000D7F4, symSize: 0x2C }
  - { offsetInCU: 0x225E5, offset: 0x225E5, size: 0x8, addend: 0x0, symName: __ZNSt3__15stackIcNS_5dequeIcNS_9allocatorIcEEEEED2Ev, symObjAddr: 0xAFF4, symBinAddr: 0x10000D820, symSize: 0x2C }
  - { offsetInCU: 0x22611, offset: 0x22611, size: 0x8, addend: 0x0, symName: __ZNSt3__15dequeIcNS_9allocatorIcEEED1B8ue170006Ev, symObjAddr: 0xB020, symBinAddr: 0x10000D84C, symSize: 0x2C }
  - { offsetInCU: 0x2263B, offset: 0x2263B, size: 0x8, addend: 0x0, symName: __ZNSt3__15dequeIcNS_9allocatorIcEEED2B8ue170006Ev, symObjAddr: 0xB04C, symBinAddr: 0x10000D878, symSize: 0xA4 }
  - { offsetInCU: 0x22691, offset: 0x22691, size: 0x8, addend: 0x0, symName: __ZNSt3__15dequeIcNS_9allocatorIcEEE5clearEv, symObjAddr: 0xB0F0, symBinAddr: 0x10000D91C, symSize: 0x180 }
  - { offsetInCU: 0x226EC, offset: 0x226EC, size: 0x8, addend: 0x0, symName: __ZNKSt3__15dequeIcNS_9allocatorIcEEE17__annotate_deleteB8ue170006Ev, symObjAddr: 0xB270, symBinAddr: 0x10000DA9C, symSize: 0xE8 }
  - { offsetInCU: 0x2272F, offset: 0x2272F, size: 0x8, addend: 0x0, symName: __ZNSt3__114__split_bufferIPcNS_9allocatorIS1_EEE5beginB8ue170006Ev, symObjAddr: 0xB358, symBinAddr: 0x10000DB84, symSize: 0x18 }
  - { offsetInCU: 0x22755, offset: 0x22755, size: 0x8, addend: 0x0, symName: __ZNSt3__114__split_bufferIPcNS_9allocatorIS1_EEE3endB8ue170006Ev, symObjAddr: 0xB370, symBinAddr: 0x10000DB9C, symSize: 0x18 }
  - { offsetInCU: 0x2277B, offset: 0x2277B, size: 0x8, addend: 0x0, symName: __ZNSt3__15dequeIcNS_9allocatorIcEEE7__allocB8ue170006Ev, symObjAddr: 0xB388, symBinAddr: 0x10000DBB4, symSize: 0x28 }
  - { offsetInCU: 0x227A1, offset: 0x227A1, size: 0x8, addend: 0x0, symName: __ZNSt3__114__split_bufferIPcNS_9allocatorIS1_EEED1Ev, symObjAddr: 0xB3B0, symBinAddr: 0x10000DBDC, symSize: 0x2C }
  - { offsetInCU: 0x227CD, offset: 0x227CD, size: 0x8, addend: 0x0, symName: __ZNSt3__15dequeIcNS_9allocatorIcEEE5beginB8ue170006Ev, symObjAddr: 0xB3DC, symBinAddr: 0x10000DC08, symSize: 0xB8 }
  - { offsetInCU: 0x22802, offset: 0x22802, size: 0x8, addend: 0x0, symName: __ZNSt3__15dequeIcNS_9allocatorIcEEE3endB8ue170006Ev, symObjAddr: 0xB494, symBinAddr: 0x10000DCC0, symSize: 0xBC }
  - { offsetInCU: 0x22846, offset: 0x22846, size: 0x8, addend: 0x0, symName: __ZNSt3__116allocator_traitsINS_9allocatorIcEEE7destroyB8ue170006IcvEEvRS2_PT_, symObjAddr: 0xB584, symBinAddr: 0x10000DDB0, symSize: 0x2C }
  - { offsetInCU: 0x22883, offset: 0x22883, size: 0x8, addend: 0x0, symName: __ZNKSt3__116__deque_iteratorIcPcRcPS1_lLl4096EEdeB8ue170006Ev, symObjAddr: 0xB5B0, symBinAddr: 0x10000DDDC, symSize: 0x18 }
  - { offsetInCU: 0x228A9, offset: 0x228A9, size: 0x8, addend: 0x0, symName: __ZNSt3__116__deque_iteratorIcPcRcPS1_lLl4096EEppB8ue170006Ev, symObjAddr: 0xB5C8, symBinAddr: 0x10000DDF4, symSize: 0x68 }
  - { offsetInCU: 0x228CF, offset: 0x228CF, size: 0x8, addend: 0x0, symName: __ZNSt3__15dequeIcNS_9allocatorIcEEE6__sizeB8ue170006Ev, symObjAddr: 0xB630, symBinAddr: 0x10000DE5C, symSize: 0x28 }
  - { offsetInCU: 0x228F5, offset: 0x228F5, size: 0x8, addend: 0x0, symName: __ZNSt3__114__split_bufferIPcNS_9allocatorIS1_EEE5frontB8ue170006Ev, symObjAddr: 0xB658, symBinAddr: 0x10000DE84, symSize: 0x18 }
  - { offsetInCU: 0x2291B, offset: 0x2291B, size: 0x8, addend: 0x0, symName: __ZNSt3__114__split_bufferIPcNS_9allocatorIS1_EEE9pop_frontB8ue170006Ev, symObjAddr: 0xB670, symBinAddr: 0x10000DE9C, symSize: 0x2C }
  - { offsetInCU: 0x22941, offset: 0x22941, size: 0x8, addend: 0x0, symName: __ZNKSt3__114__split_bufferIPcNS_9allocatorIS1_EEE5emptyB8ue170006Ev, symObjAddr: 0xB69C, symBinAddr: 0x10000DEC8, symSize: 0x28 }
  - { offsetInCU: 0x22967, offset: 0x22967, size: 0x8, addend: 0x0, symName: __ZNSt3__116__deque_iteratorIcPcRcPS1_lLl4096EEC1B8ue170006ES3_S1_, symObjAddr: 0xB6C4, symBinAddr: 0x10000DEF0, symSize: 0x3C }
  - { offsetInCU: 0x229AF, offset: 0x229AF, size: 0x8, addend: 0x0, symName: __ZNSt3__116__deque_iteratorIcPcRcPS1_lLl4096EEC2B8ue170006ES3_S1_, symObjAddr: 0xB700, symBinAddr: 0x10000DF2C, symSize: 0x2C }
  - { offsetInCU: 0x229F7, offset: 0x229F7, size: 0x8, addend: 0x0, symName: __ZNSt3__19allocatorIcE7destroyB8ue170006EPc, symObjAddr: 0xB75C, symBinAddr: 0x10000DF88, symSize: 0x14 }
  - { offsetInCU: 0x22A2B, offset: 0x22A2B, size: 0x8, addend: 0x0, symName: __ZNSt3__117__compressed_pairImNS_9allocatorIcEEE5firstB8ue170006Ev, symObjAddr: 0xB770, symBinAddr: 0x10000DF9C, symSize: 0x24 }
  - { offsetInCU: 0x22A51, offset: 0x22A51, size: 0x8, addend: 0x0, symName: __ZNSt3__114__split_bufferIPcNS_9allocatorIS1_EEE19__destruct_at_beginB8ue170006EPS1_, symObjAddr: 0xB794, symBinAddr: 0x10000DFC0, symSize: 0x2C }
  - { offsetInCU: 0x22A85, offset: 0x22A85, size: 0x8, addend: 0x0, symName: __ZNSt3__114__split_bufferIPcNS_9allocatorIS1_EEE19__destruct_at_beginEPS1_NS_17integral_constantIbLb1EEE, symObjAddr: 0xB7C0, symBinAddr: 0x10000DFEC, symSize: 0x20 }
  - { offsetInCU: 0x22AC6, offset: 0x22AC6, size: 0x8, addend: 0x0, symName: __ZNKSt3__15dequeIcNS_9allocatorIcEEE22__annotate_whole_blockB8ue170006EmNS3_22__asan_annotation_typeE, symObjAddr: 0xB7E0, symBinAddr: 0x10000E00C, symSize: 0xAC }
  - { offsetInCU: 0x22B37, offset: 0x22B37, size: 0x8, addend: 0x0, symName: __ZNKSt3__15dequeIcNS_9allocatorIcEEE23__annotate_poison_blockB8ue170006EPKvS5_, symObjAddr: 0xB88C, symBinAddr: 0x10000E0B8, symSize: 0x44 }
  - { offsetInCU: 0x22B7B, offset: 0x22B7B, size: 0x8, addend: 0x0, symName: __ZNSt3__117__compressed_pairImNS_9allocatorIcEEE6secondB8ue170006Ev, symObjAddr: 0xB8D0, symBinAddr: 0x10000E0FC, symSize: 0x24 }
  - { offsetInCU: 0x22BA1, offset: 0x22BA1, size: 0x8, addend: 0x0, symName: __ZNSt3__114__split_bufferIPcNS_9allocatorIS1_EEED2Ev, symObjAddr: 0xB8F4, symBinAddr: 0x10000E120, symSize: 0x8C }
  - { offsetInCU: 0x22BCD, offset: 0x22BCD, size: 0x8, addend: 0x0, symName: __ZNSt3__114__split_bufferIPcNS_9allocatorIS1_EEE5clearB8ue170006Ev, symObjAddr: 0xB980, symBinAddr: 0x10000E1AC, symSize: 0x28 }
  - { offsetInCU: 0x22BF3, offset: 0x22BF3, size: 0x8, addend: 0x0, symName: __ZNSt3__116allocator_traitsINS_9allocatorIPcEEE10deallocateB8ue170006ERS3_PS2_m, symObjAddr: 0xB9A8, symBinAddr: 0x10000E1D4, symSize: 0x34 }
  - { offsetInCU: 0x22C35, offset: 0x22C35, size: 0x8, addend: 0x0, symName: __ZNSt3__114__split_bufferIPcNS_9allocatorIS1_EEE7__allocB8ue170006Ev, symObjAddr: 0xB9DC, symBinAddr: 0x10000E208, symSize: 0x28 }
  - { offsetInCU: 0x22C5B, offset: 0x22C5B, size: 0x8, addend: 0x0, symName: __ZNKSt3__114__split_bufferIPcNS_9allocatorIS1_EEE8capacityB8ue170006Ev, symObjAddr: 0xBA04, symBinAddr: 0x10000E230, symSize: 0x40 }
  - { offsetInCU: 0x22C81, offset: 0x22C81, size: 0x8, addend: 0x0, symName: __ZNSt3__114__split_bufferIPcNS_9allocatorIS1_EEE17__destruct_at_endB8ue170006EPS1_, symObjAddr: 0xBA44, symBinAddr: 0x10000E270, symSize: 0x2C }
  - { offsetInCU: 0x22CB5, offset: 0x22CB5, size: 0x8, addend: 0x0, symName: __ZNSt3__114__split_bufferIPcNS_9allocatorIS1_EEE17__destruct_at_endB8ue170006EPS1_NS_17integral_constantIbLb0EEE, symObjAddr: 0xBA70, symBinAddr: 0x10000E29C, symSize: 0x80 }
  - { offsetInCU: 0x22CF6, offset: 0x22CF6, size: 0x8, addend: 0x0, symName: __ZNSt3__116allocator_traitsINS_9allocatorIPcEEE7destroyB8ue170006IS2_vEEvRS3_PT_, symObjAddr: 0xBAF0, symBinAddr: 0x10000E31C, symSize: 0x2C }
  - { offsetInCU: 0x22D33, offset: 0x22D33, size: 0x8, addend: 0x0, symName: __ZNSt3__19allocatorIPcE7destroyB8ue170006EPS1_, symObjAddr: 0xBB30, symBinAddr: 0x10000E35C, symSize: 0x14 }
  - { offsetInCU: 0x22D67, offset: 0x22D67, size: 0x8, addend: 0x0, symName: __ZNSt3__19allocatorIPcE10deallocateB8ue170006EPS1_m, symObjAddr: 0xBB44, symBinAddr: 0x10000E370, symSize: 0x40 }
  - { offsetInCU: 0x22DA9, offset: 0x22DA9, size: 0x8, addend: 0x0, symName: __ZNSt3__117__compressed_pairIPPcNS_9allocatorIS1_EEE6secondB8ue170006Ev, symObjAddr: 0xBB84, symBinAddr: 0x10000E3B0, symSize: 0x24 }
  - { offsetInCU: 0x22DCF, offset: 0x22DCF, size: 0x8, addend: 0x0, symName: __ZNSt3__122__compressed_pair_elemINS_9allocatorIPcEELi1ELb1EE5__getB8ue170006Ev, symObjAddr: 0xBBA8, symBinAddr: 0x10000E3D4, symSize: 0x14 }
  - { offsetInCU: 0x22DF5, offset: 0x22DF5, size: 0x8, addend: 0x0, symName: __ZNKSt3__114__split_bufferIPcNS_9allocatorIS1_EEE9__end_capB8ue170006Ev, symObjAddr: 0xBBBC, symBinAddr: 0x10000E3E8, symSize: 0x28 }
  - { offsetInCU: 0x22E1B, offset: 0x22E1B, size: 0x8, addend: 0x0, symName: __ZNKSt3__117__compressed_pairIPPcNS_9allocatorIS1_EEE5firstB8ue170006Ev, symObjAddr: 0xBBE4, symBinAddr: 0x10000E410, symSize: 0x24 }
  - { offsetInCU: 0x22E41, offset: 0x22E41, size: 0x8, addend: 0x0, symName: __ZNKSt3__122__compressed_pair_elemIPPcLi0ELb0EE5__getB8ue170006Ev, symObjAddr: 0xBC08, symBinAddr: 0x10000E434, symSize: 0x14 }
  - { offsetInCU: 0x22E67, offset: 0x22E67, size: 0x8, addend: 0x0, symName: __ZNSt3__118basic_stringstreamIcNS_11char_traitsIcEENS_9allocatorIcEEED2Ev, symObjAddr: 0xBC1C, symBinAddr: 0x10000E448, symSize: 0x6C }
  - { offsetInCU: 0x22EA1, offset: 0x22EA1, size: 0x8, addend: 0x0, symName: __ZThn16_NSt3__118basic_stringstreamIcNS_11char_traitsIcEENS_9allocatorIcEEED1Ev, symObjAddr: 0xBC88, symBinAddr: 0x10000E4B4, symSize: 0x1C }
  - { offsetInCU: 0x22EB8, offset: 0x22EB8, size: 0x8, addend: 0x0, symName: __ZTv0_n24_NSt3__118basic_stringstreamIcNS_11char_traitsIcEENS_9allocatorIcEEED1Ev, symObjAddr: 0xBCA4, symBinAddr: 0x10000E4D0, symSize: 0x28 }
  - { offsetInCU: 0x22ED4, offset: 0x22ED4, size: 0x8, addend: 0x0, symName: __ZNSt3__115basic_stringbufIcNS_11char_traitsIcEENS_9allocatorIcEEED1Ev, symObjAddr: 0xBCCC, symBinAddr: 0x10000E4F8, symSize: 0x2C }
  - { offsetInCU: 0x22F01, offset: 0x22F01, size: 0x8, addend: 0x0, symName: __ZNSt3__115basic_stringbufIcNS_11char_traitsIcEENS_9allocatorIcEEED2Ev, symObjAddr: 0xBCF8, symBinAddr: 0x10000E524, symSize: 0x48 }
  - { offsetInCU: 0x22F2E, offset: 0x22F2E, size: 0x8, addend: 0x0, symName: __ZNSt3__114basic_ifstreamIcNS_11char_traitsIcEEED2Ev, symObjAddr: 0xBD40, symBinAddr: 0x10000E56C, symSize: 0x64 }
  - { offsetInCU: 0x22F68, offset: 0x22F68, size: 0x8, addend: 0x0, symName: __ZTv0_n24_NSt3__114basic_ifstreamIcNS_11char_traitsIcEEED1Ev, symObjAddr: 0xBDA4, symBinAddr: 0x10000E5D0, symSize: 0x28 }
  - { offsetInCU: 0x22F7F, offset: 0x22F7F, size: 0x8, addend: 0x0, symName: __ZNSt3__112basic_stringIcNS_11char_traitsIcEENS_9allocatorIcEEEC2B8ue170006ILi0EEEPKc, symObjAddr: 0xBDCC, symBinAddr: 0x10000E5F8, symSize: 0x58 }
  - { offsetInCU: 0x22FBE, offset: 0x22FBE, size: 0x8, addend: 0x0, symName: __ZNSt3__19basic_iosIcNS_11char_traitsIcEEEC2B8ue170006Ev, symObjAddr: 0xBE24, symBinAddr: 0x10000E650, symSize: 0x44 }
  - { offsetInCU: 0x22FE8, offset: 0x22FE8, size: 0x8, addend: 0x0, symName: __ZNSt3__114basic_iostreamIcNS_11char_traitsIcEEEC2B8ue170006EPNS_15basic_streambufIcS2_EE, symObjAddr: 0xBE68, symBinAddr: 0x10000E694, symSize: 0xAC }
  - { offsetInCU: 0x2302E, offset: 0x2302E, size: 0x8, addend: 0x0, symName: __ZNSt3__115basic_stringbufIcNS_11char_traitsIcEENS_9allocatorIcEEEC1B8ue170006Ej, symObjAddr: 0xBF14, symBinAddr: 0x10000E740, symSize: 0x34 }
  - { offsetInCU: 0x23067, offset: 0x23067, size: 0x8, addend: 0x0, symName: __ZNSt3__18ios_baseC2B8ue170006Ev, symObjAddr: 0xBF48, symBinAddr: 0x10000E774, symSize: 0x24 }
  - { offsetInCU: 0x23091, offset: 0x23091, size: 0x8, addend: 0x0, symName: __ZNSt3__113basic_istreamIcNS_11char_traitsIcEEEC2B8ue170006EPNS_15basic_streambufIcS2_EE, symObjAddr: 0xBF6C, symBinAddr: 0x10000E798, symSize: 0x64 }
  - { offsetInCU: 0x230D6, offset: 0x230D6, size: 0x8, addend: 0x0, symName: __ZNSt3__113basic_ostreamIcNS_11char_traitsIcEEEC2B8ue170006Ev, symObjAddr: 0xBFD0, symBinAddr: 0x10000E7FC, symSize: 0x34 }
  - { offsetInCU: 0x2310D, offset: 0x2310D, size: 0x8, addend: 0x0, symName: __ZNSt3__19basic_iosIcNS_11char_traitsIcEEE4initB8ue170006EPNS_15basic_streambufIcS2_EE, symObjAddr: 0xC004, symBinAddr: 0x10000E830, symSize: 0x44 }
  - { offsetInCU: 0x23144, offset: 0x23144, size: 0x8, addend: 0x0, symName: __ZNSt3__115basic_stringbufIcNS_11char_traitsIcEENS_9allocatorIcEEEC2B8ue170006Ej, symObjAddr: 0xC048, symBinAddr: 0x10000E874, symSize: 0x60 }
  - { offsetInCU: 0x2317D, offset: 0x2317D, size: 0x8, addend: 0x0, symName: __ZNKSt3__112basic_stringIcNS_11char_traitsIcEENS_9allocatorIcEEE4dataB8ue170006Ev, symObjAddr: 0xC0A8, symBinAddr: 0x10000E8D4, symSize: 0x28 }
  - { offsetInCU: 0x231A3, offset: 0x231A3, size: 0x8, addend: 0x0, symName: __ZNKSt3__112basic_stringIcNS_11char_traitsIcEENS_9allocatorIcEEE13__get_pointerB8ue170006Ev, symObjAddr: 0xC0E4, symBinAddr: 0x10000E910, symSize: 0x54 }
  - { offsetInCU: 0x231C9, offset: 0x231C9, size: 0x8, addend: 0x0, symName: __ZNKSt3__112basic_stringIcNS_11char_traitsIcEENS_9allocatorIcEEE18__get_long_pointerB8ue170006Ev, symObjAddr: 0xC138, symBinAddr: 0x10000E964, symSize: 0x28 }
  - { offsetInCU: 0x231EF, offset: 0x231EF, size: 0x8, addend: 0x0, symName: __ZNKSt3__112basic_stringIcNS_11char_traitsIcEENS_9allocatorIcEEE19__get_short_pointerB8ue170006Ev, symObjAddr: 0xC160, symBinAddr: 0x10000E98C, symSize: 0x28 }
  - { offsetInCU: 0x23215, offset: 0x23215, size: 0x8, addend: 0x0, symName: __ZNSt3__114pointer_traitsIPKcE10pointer_toB8ue170006ERS1_, symObjAddr: 0xC188, symBinAddr: 0x10000E9B4, symSize: 0x14 }
  - { offsetInCU: 0x23238, offset: 0x23238, size: 0x8, addend: 0x0, symName: __ZNSt3__16vectorI5TokenNS_9allocatorIS1_EEED2B8ue170006Ev, symObjAddr: 0xC19C, symBinAddr: 0x10000E9C8, symSize: 0x40 }
  - { offsetInCU: 0x23262, offset: 0x23262, size: 0x8, addend: 0x0, symName: __ZNSt3__16vectorI5TokenNS_9allocatorIS1_EEE11__make_iterB8ue170006EPS1_, symObjAddr: 0xC1DC, symBinAddr: 0x10000EA08, symSize: 0x30 }
  - { offsetInCU: 0x23297, offset: 0x23297, size: 0x8, addend: 0x0, symName: __ZNSt3__111__wrap_iterIP5TokenEC1B8ue170006ES2_, symObjAddr: 0xC20C, symBinAddr: 0x10000EA38, symSize: 0x34 }
  - { offsetInCU: 0x232CF, offset: 0x232CF, size: 0x8, addend: 0x0, symName: __ZNSt3__111__wrap_iterIP5TokenEC2B8ue170006ES2_, symObjAddr: 0xC240, symBinAddr: 0x10000EA6C, symSize: 0x20 }
...
