---
triple:          'arm64-apple-darwin'
binary-path:     project3
relocations:
  - { offsetInCU: 0x18771, offset: 0x18771, size: 0x8, addend: 0x0, symName: __ZNSt3__124__put_character_sequenceB8ue170006IcNS_11char_traitsIcEEEERNS_13basic_ostreamIT_T0_EES7_PKS4_m, symObjAddr: 0x3CD0, symBinAddr: 0x100007338, symSize: 0x1EC }
  - { offsetInCU: 0x1F654, offset: 0x1F654, size: 0x8, addend: 0x0, symName: __ZNSt3__1lsB8ue170006IcNS_11char_traitsIcEENS_9allocatorIcEEEERNS_13basic_ostreamIT_T0_EES9_RKNS_12basic_stringIS6_S7_T1_EE, symObjAddr: 0x16CC, symBinAddr: 0x100004D34, symSize: 0x4C }
  - { offsetInCU: 0x1F6AC, offset: 0x1F6AC, size: 0x8, addend: 0x0, symName: __ZNSt3__14endlB8ue170006IcNS_11char_traitsIcEEEERNS_13basic_ostreamIT_T0_EES7_, symObjAddr: 0x18C8, symBinAddr: 0x100004F30, symSize: 0x58 }
  - { offsetInCU: 0x1F6EC, offset: 0x1F6EC, size: 0x8, addend: 0x0, symName: __ZNSt3__1lsB8ue170006INS_11char_traitsIcEEEERNS_13basic_ostreamIcT_EES6_PKc, symObjAddr: 0x1984, symBinAddr: 0x100004FEC, symSize: 0x48 }
  - { offsetInCU: 0x1F732, offset: 0x1F732, size: 0x8, addend: 0x0, symName: __ZNSt3__112__to_addressB8ue170006IcEEPT_S2_, symObjAddr: 0x29A0, symBinAddr: 0x100006008, symSize: 0x14 }
  - { offsetInCU: 0x1F767, offset: 0x1F767, size: 0x8, addend: 0x0, symName: __ZNSt3__1neB8ue170006IPcEEbRKNS_11__wrap_iterIT_EES6_, symObjAddr: 0x3778, symBinAddr: 0x100006DE0, symSize: 0x34 }
  - { offsetInCU: 0x1F7AA, offset: 0x1F7AA, size: 0x8, addend: 0x0, symName: __ZNSt3__1lsB8ue170006INS_11char_traitsIcEEEERNS_13basic_ostreamIcT_EES6_c, symObjAddr: 0x37EC, symBinAddr: 0x100006E54, symSize: 0x34 }
  - { offsetInCU: 0x1F7F0, offset: 0x1F7F0, size: 0x8, addend: 0x0, symName: __ZNSt3__1eqB8ue170006IcNS_11char_traitsIcEENS_9allocatorIcEEEEbRKNS_12basic_stringIT_T0_T1_EEPKS6_, symObjAddr: 0x3874, symBinAddr: 0x100006EDC, symSize: 0xAC }
  - { offsetInCU: 0x1F88A, offset: 0x1F88A, size: 0x8, addend: 0x0, symName: __ZNSt3__1eqB8ue170006IPcEEbRKNS_11__wrap_iterIT_EES6_, symObjAddr: 0x3C70, symBinAddr: 0x1000072D8, symSize: 0x48 }
  - { offsetInCU: 0x1F8CD, offset: 0x1F8CD, size: 0x8, addend: 0x0, symName: __ZNSt3__116__pad_and_outputB8ue170006IcNS_11char_traitsIcEEEENS_19ostreambuf_iteratorIT_T0_EES6_PKS4_S8_S8_RNS_8ios_baseES4_, symObjAddr: 0x3ED8, symBinAddr: 0x100007540, symSize: 0x240 }
  - { offsetInCU: 0x1F99C, offset: 0x1F99C, size: 0x8, addend: 0x0, symName: __ZNSt3__19use_facetB8ue170006INS_5ctypeIcEEEERKT_RKNS_6localeE, symObjAddr: 0x448C, symBinAddr: 0x100007AF4, symSize: 0x2C }
  - { offsetInCU: 0x1FE69, offset: 0x1FE69, size: 0x8, addend: 0x0, symName: __ZNSt3__119__libcpp_deallocateB8ue170006EPvmm, symObjAddr: 0x477C, symBinAddr: 0x100007DE4, symSize: 0x60 }
  - { offsetInCU: 0x1FECE, offset: 0x1FECE, size: 0x8, addend: 0x0, symName: __ZNSt3__124__is_overaligned_for_newB8ue170006Em, symObjAddr: 0x47DC, symBinAddr: 0x100007E44, symSize: 0x20 }
  - { offsetInCU: 0x1FEFC, offset: 0x1FEFC, size: 0x8, addend: 0x0, symName: __ZNSt3__127__do_deallocate_handle_sizeB8ue170006IJSt11align_val_tEEEvPvmDpT_, symObjAddr: 0x47FC, symBinAddr: 0x100007E64, symSize: 0x30 }
  - { offsetInCU: 0x1FF4F, offset: 0x1FF4F, size: 0x8, addend: 0x0, symName: __ZNSt3__127__do_deallocate_handle_sizeB8ue170006IJEEEvPvmDpT_, symObjAddr: 0x482C, symBinAddr: 0x100007E94, symSize: 0x28 }
  - { offsetInCU: 0x1FF8D, offset: 0x1FF8D, size: 0x8, addend: 0x0, symName: __ZNSt3__124__libcpp_operator_deleteB8ue170006IJPvSt11align_val_tEEEvDpT_, symObjAddr: 0x4854, symBinAddr: 0x100007EBC, symSize: 0x2C }
  - { offsetInCU: 0x1FFD6, offset: 0x1FFD6, size: 0x8, addend: 0x0, symName: __ZNSt3__124__libcpp_operator_deleteB8ue170006IJPvEEEvDpT_, symObjAddr: 0x4880, symBinAddr: 0x100007EE8, symSize: 0x24 }
  - { offsetInCU: 0x2000B, offset: 0x2000B, size: 0x8, addend: 0x0, symName: __ZNSt3__118__constexpr_strlenB8ue170006EPKc, symObjAddr: 0x4948, symBinAddr: 0x100007FB0, symSize: 0x24 }
  - { offsetInCU: 0x20037, offset: 0x20037, size: 0x8, addend: 0x0, symName: __ZNSt3__112__to_addressB8ue170006I5TokenEEPT_S3_, symObjAddr: 0x4C18, symBinAddr: 0x100008280, symSize: 0x14 }
  - { offsetInCU: 0x2006C, offset: 0x2006C, size: 0x8, addend: 0x0, symName: __ZNSt3__116__constrain_hashB8ue170006Emm, symObjAddr: 0x64DC, symBinAddr: 0x100009B44, symSize: 0x98 }
  - { offsetInCU: 0x200A6, offset: 0x200A6, size: 0x8, addend: 0x0, symName: __ZNSt3__13maxB8ue170006ImEERKT_S3_S3_, symObjAddr: 0x6810, symBinAddr: 0x100009E78, symSize: 0x2C }
  - { offsetInCU: 0x200E9, offset: 0x200E9, size: 0x8, addend: 0x0, symName: __ZNSt3__116__is_hash_power2B8ue170006Em, symObjAddr: 0x683C, symBinAddr: 0x100009EA4, symSize: 0x50 }
  - { offsetInCU: 0x2016D, offset: 0x2016D, size: 0x8, addend: 0x0, symName: __ZNSt3__17launderB8ue170006IKNS_4pairIKN5Token9TokenTypeENS_12basic_stringIcNS_11char_traitsIcEENS_9allocatorIcEEEEEEEEPT_SE_, symObjAddr: 0x6C10, symBinAddr: 0x10000A278, symSize: 0x24 }
  - { offsetInCU: 0x201A4, offset: 0x201A4, size: 0x8, addend: 0x0, symName: __ZNSt3__19__launderB8ue170006IKNS_4pairIKN5Token9TokenTypeENS_12basic_stringIcNS_11char_traitsIcEENS_9allocatorIcEEEEEEEEPT_SE_, symObjAddr: 0x6C34, symBinAddr: 0x10000A29C, symSize: 0x14 }
  - { offsetInCU: 0x2022C, offset: 0x2022C, size: 0x8, addend: 0x0, symName: __ZNSt3__117__libcpp_allocateB8ue170006Emm, symObjAddr: 0x6E9C, symBinAddr: 0x10000A504, symSize: 0x60 }
  - { offsetInCU: 0x20286, offset: 0x20286, size: 0x8, addend: 0x0, symName: __ZNSt3__121__libcpp_operator_newB8ue170006IJmSt11align_val_tEEEPvDpT_, symObjAddr: 0x6F14, symBinAddr: 0x10000A57C, symSize: 0x2C }
  - { offsetInCU: 0x202D3, offset: 0x202D3, size: 0x8, addend: 0x0, symName: __ZNSt3__121__libcpp_operator_newB8ue170006IJmEEEPvDpT_, symObjAddr: 0x6F40, symBinAddr: 0x10000A5A8, symSize: 0x24 }
  - { offsetInCU: 0x2030C, offset: 0x2030C, size: 0x8, addend: 0x0, symName: __ZNSt3__17launderB8ue170006INS_4pairIKN5Token9TokenTypeENS_12basic_stringIcNS_11char_traitsIcEENS_9allocatorIcEEEEEEEEPT_SD_, symObjAddr: 0x7180, symBinAddr: 0x10000A7E8, symSize: 0x24 }
  - { offsetInCU: 0x20343, offset: 0x20343, size: 0x8, addend: 0x0, symName: __ZNSt3__19__launderB8ue170006INS_4pairIKN5Token9TokenTypeENS_12basic_stringIcNS_11char_traitsIcEENS_9allocatorIcEEEEEEEEPT_SD_, symObjAddr: 0x71A4, symBinAddr: 0x10000A80C, symSize: 0x14 }
  - { offsetInCU: 0x2037A, offset: 0x2037A, size: 0x8, addend: 0x0, symName: __ZNSt3__116__next_hash_pow2B8ue170006Em, symObjAddr: 0x7694, symBinAddr: 0x10000ACFC, symSize: 0x6C }
  - { offsetInCU: 0x203C2, offset: 0x203C2, size: 0x8, addend: 0x0, symName: __ZNSt3__112__libcpp_clzB8ue170006Em, symObjAddr: 0x7A3C, symBinAddr: 0x10000B0A4, symSize: 0x1C }
  - { offsetInCU: 0x203EE, offset: 0x203EE, size: 0x8, addend: 0x0, symName: __ZNSt3__13maxB8ue170006ImNS_6__lessIvvEEEERKT_S5_S5_T0_, symObjAddr: 0x7A58, symBinAddr: 0x10000B0C0, symSize: 0x54 }
  - { offsetInCU: 0x204BE, offset: 0x204BE, size: 0x8, addend: 0x0, symName: __ZNSt3__13minB8ue170006ImEERKT_S3_S3_, symObjAddr: 0x82EC, symBinAddr: 0x10000B954, symSize: 0x2C }
  - { offsetInCU: 0x206EB, offset: 0x206EB, size: 0x8, addend: 0x0, symName: __ZNSt3__13minB8ue170006ImNS_6__lessIvvEEEERKT_S5_S5_T0_, symObjAddr: 0x8378, symBinAddr: 0x10000B9E0, symSize: 0x54 }
  - { offsetInCU: 0x20745, offset: 0x20745, size: 0x8, addend: 0x0, symName: __ZNSt3__120__throw_length_errorB8ue170006EPKc, symObjAddr: 0x8424, symBinAddr: 0x10000BA8C, symSize: 0x64 }
  - { offsetInCU: 0x2076F, offset: 0x2076F, size: 0x8, addend: 0x0, symName: __ZNSt3__119__allocate_at_leastB8ue170006INS_9allocatorI5TokenEEEENS_19__allocation_resultINS_16allocator_traitsIT_E7pointerEEERS6_m, symObjAddr: 0x8684, symBinAddr: 0x10000BCEC, symSize: 0x40 }
  - { offsetInCU: 0x207B2, offset: 0x207B2, size: 0x8, addend: 0x0, symName: __ZNSt3__142__uninitialized_allocator_move_if_noexceptB8ue170006INS_9allocatorI5TokenEENS_16reverse_iteratorIPS2_EES6_S6_EET2_RT_T0_T1_S7_, symObjAddr: 0x8910, symBinAddr: 0x10000BF78, symSize: 0x12C }
  - { offsetInCU: 0x20852, offset: 0x20852, size: 0x8, addend: 0x0, symName: __ZNSt3__14swapB8ue170006IP5TokenEENS_9enable_ifIXaasr21is_move_constructibleIT_EE5valuesr18is_move_assignableIS4_EE5valueEvE4typeERS4_S7_, symObjAddr: 0x8A88, symBinAddr: 0x10000C0F0, symSize: 0x3C }
  - { offsetInCU: 0x208A3, offset: 0x208A3, size: 0x8, addend: 0x0, symName: __ZNSt3__122__make_exception_guardB8ue170006INS_29_AllocatorDestroyRangeReverseINS_9allocatorI5TokenEENS_16reverse_iteratorIPS3_EEEEEENS_28__exception_guard_exceptionsIT_EESA_, symObjAddr: 0x8BD4, symBinAddr: 0x10000C23C, symSize: 0x4C }
  - { offsetInCU: 0x208D9, offset: 0x208D9, size: 0x8, addend: 0x0, symName: __ZNSt3__1neB8ue170006IP5TokenS2_EEbRKNS_16reverse_iteratorIT_EERKNS3_IT0_EE, symObjAddr: 0x8C64, symBinAddr: 0x10000C2CC, symSize: 0x48 }
  - { offsetInCU: 0x20925, offset: 0x20925, size: 0x8, addend: 0x0, symName: __ZNSt3__112__to_addressB8ue170006INS_16reverse_iteratorIP5TokenEEvEEu7__decayIDTclsr19__to_address_helperIT_EE6__callclsr3stdE7declvalIRKS5_EEEEES7_, symObjAddr: 0x8CE0, symBinAddr: 0x10000C348, symSize: 0x24 }
  - { offsetInCU: 0x20979, offset: 0x20979, size: 0x8, addend: 0x0, symName: __ZNSt3__1neB8ue170006ERKNS_25__hash_map_const_iteratorINS_21__hash_const_iteratorIPNS_11__hash_nodeINS_17__hash_value_typeIN5Token9TokenTypeENS_12basic_stringIcNS_11char_traitsIcEENS_9allocatorIcEEEEEEPvEEEEEESJ_, symObjAddr: 0x97B8, symBinAddr: 0x10000CE20, symSize: 0x30 }
  - { offsetInCU: 0x209B6, offset: 0x209B6, size: 0x8, addend: 0x0, symName: __ZNSt3__1neB8ue170006ERKNS_21__hash_const_iteratorIPNS_11__hash_nodeINS_17__hash_value_typeIN5Token9TokenTypeENS_12basic_stringIcNS_11char_traitsIcEENS_9allocatorIcEEEEEEPvEEEESH_, symObjAddr: 0x983C, symBinAddr: 0x10000CEA4, symSize: 0x34 }
  - { offsetInCU: 0x209F3, offset: 0x209F3, size: 0x8, addend: 0x0, symName: __ZNSt3__1eqB8ue170006ERKNS_21__hash_const_iteratorIPNS_11__hash_nodeINS_17__hash_value_typeIN5Token9TokenTypeENS_12basic_stringIcNS_11char_traitsIcEENS_9allocatorIcEEEEEEPvEEEESH_, symObjAddr: 0x9870, symBinAddr: 0x10000CED8, symSize: 0x30 }
  - { offsetInCU: 0x20A8C, offset: 0x20A8C, size: 0x8, addend: 0x0, symName: __ZNSt3__119__allocator_destroyB8ue170006INS_9allocatorI5TokenEENS_16reverse_iteratorINS4_IPS2_EEEES7_EEvRT_T0_T1_, symObjAddr: 0x9BA8, symBinAddr: 0x10000D210, symSize: 0x70 }
  - { offsetInCU: 0x20AF1, offset: 0x20AF1, size: 0x8, addend: 0x0, symName: __ZNSt3__1neB8ue170006INS_16reverse_iteratorIP5TokenEES4_EEbRKNS1_IT_EERKNS1_IT0_EE, symObjAddr: 0x9C54, symBinAddr: 0x10000D2BC, symSize: 0x60 }
  - { offsetInCU: 0x20B3D, offset: 0x20B3D, size: 0x8, addend: 0x0, symName: __ZNSt3__112__to_addressB8ue170006INS_16reverse_iteratorINS1_IP5TokenEEEEvEEu7__decayIDTclsr19__to_address_helperIT_EE6__callclsr3stdE7declvalIRKS6_EEEEES8_, symObjAddr: 0x9CE0, symBinAddr: 0x10000D348, symSize: 0x24 }
  - { offsetInCU: 0x20B9C, offset: 0x20B9C, size: 0x8, addend: 0x0, symName: __ZNSt3__122__make_exception_guardB8ue170006INS_6vectorI5TokenNS_9allocatorIS2_EEE16__destroy_vectorEEENS_28__exception_guard_exceptionsIT_EES8_, symObjAddr: 0xB008, symBinAddr: 0x10000E670, symSize: 0x40 }
  - { offsetInCU: 0x20BD1, offset: 0x20BD1, size: 0x8, addend: 0x0, symName: __ZNSt3__130__uninitialized_allocator_copyB8ue170006INS_9allocatorI5TokenEEPS2_S4_S4_EET2_RT_T0_T1_S5_, symObjAddr: 0xB27C, symBinAddr: 0x10000E8E4, symSize: 0x80 }
  - { offsetInCU: 0x20C6E, offset: 0x20C6E, size: 0x8, addend: 0x0, symName: __ZNSt3__114__unwrap_rangeB8ue170006IP5TokenS2_EENS_4pairIT0_S4_EET_S6_, symObjAddr: 0xB2FC, symBinAddr: 0x10000E964, symSize: 0x60 }
  - { offsetInCU: 0x20CBA, offset: 0x20CBA, size: 0x8, addend: 0x0, symName: __ZNSt3__135__uninitialized_allocator_copy_implB8ue170006INS_9allocatorI5TokenEEPS2_S4_S4_EET2_RT_T0_T1_S5_, symObjAddr: 0xB35C, symBinAddr: 0x10000E9C4, symSize: 0xF4 }
  - { offsetInCU: 0x20D58, offset: 0x20D58, size: 0x8, addend: 0x0, symName: __ZNSt3__113__unwrap_iterB8ue170006IP5TokenNS_18__unwrap_iter_implIS2_Lb1EEELi0EEEDTclsrT0_8__unwrapclsr3stdE7declvalIT_EEEES6_, symObjAddr: 0xB450, symBinAddr: 0x10000EAB8, symSize: 0x24 }
  - { offsetInCU: 0x20D9C, offset: 0x20D9C, size: 0x8, addend: 0x0, symName: __ZNSt3__113__rewrap_iterB8ue170006IP5TokenS2_NS_18__unwrap_iter_implIS2_Lb1EEEEET_S5_T0_, symObjAddr: 0xB474, symBinAddr: 0x10000EADC, symSize: 0x3C }
  - { offsetInCU: 0x20DF1, offset: 0x20DF1, size: 0x8, addend: 0x0, symName: __ZNSt3__19make_pairB8ue170006IP5TokenS2_EENS_4pairINS_18__unwrap_ref_decayIT_E4typeENS4_IT0_E4typeEEEOS5_OS8_, symObjAddr: 0xB4B0, symBinAddr: 0x10000EB18, symSize: 0x38 }
  - { offsetInCU: 0x20F14, offset: 0x20F14, size: 0x8, addend: 0x0, symName: __ZNSt3__122__make_exception_guardB8ue170006INS_29_AllocatorDestroyRangeReverseINS_9allocatorI5TokenEEPS3_EEEENS_28__exception_guard_exceptionsIT_EES8_, symObjAddr: 0xB558, symBinAddr: 0x10000EBC0, symSize: 0x4C }
  - { offsetInCU: 0x20F4A, offset: 0x20F4A, size: 0x8, addend: 0x0, symName: __ZNSt3__119__allocator_destroyB8ue170006INS_9allocatorI5TokenEENS_16reverse_iteratorIPS2_EES6_EEvRT_T0_T1_, symObjAddr: 0xB7E8, symBinAddr: 0x10000EE50, symSize: 0x70 }
  - { offsetInCU: 0x21033, offset: 0x21033, size: 0x8, addend: 0x0, symName: __ZNSt3__122__make_exception_guardB8ue170006INS_6vectorINS_12basic_stringIcNS_11char_traitsIcEENS_9allocatorIcEEEENS5_IS7_EEE16__destroy_vectorEEENS_28__exception_guard_exceptionsIT_EESC_, symObjAddr: 0xC464, symBinAddr: 0x10000FACC, symSize: 0x40 }
  - { offsetInCU: 0x21068, offset: 0x21068, size: 0x8, addend: 0x0, symName: __ZNSt3__119__allocate_at_leastB8ue170006INS_9allocatorINS_12basic_stringIcNS_11char_traitsIcEENS1_IcEEEEEEEENS_19__allocation_resultINS_16allocator_traitsIT_E7pointerEEERSA_m, symObjAddr: 0xC754, symBinAddr: 0x10000FDBC, symSize: 0x40 }
  - { offsetInCU: 0x210AB, offset: 0x210AB, size: 0x8, addend: 0x0, symName: __ZNSt3__112__to_addressB8ue170006INS_12basic_stringIcNS_11char_traitsIcEENS_9allocatorIcEEEEEEPT_S8_, symObjAddr: 0xCA3C, symBinAddr: 0x1000100A4, symSize: 0x14 }
  - { offsetInCU: 0x210E0, offset: 0x210E0, size: 0x8, addend: 0x0, symName: __ZNSt3__130__uninitialized_allocator_copyB8ue170006INS_9allocatorINS_12basic_stringIcNS_11char_traitsIcEENS1_IcEEEEEEPS6_S8_S8_EET2_RT_T0_T1_S9_, symObjAddr: 0xCAEC, symBinAddr: 0x100010154, symSize: 0x80 }
  - { offsetInCU: 0x2117D, offset: 0x2117D, size: 0x8, addend: 0x0, symName: __ZNSt3__114__unwrap_rangeB8ue170006IPNS_12basic_stringIcNS_11char_traitsIcEENS_9allocatorIcEEEES7_EENS_4pairIT0_S9_EET_SB_, symObjAddr: 0xCBE4, symBinAddr: 0x10001024C, symSize: 0x60 }
  - { offsetInCU: 0x211C9, offset: 0x211C9, size: 0x8, addend: 0x0, symName: __ZNSt3__135__uninitialized_allocator_copy_implB8ue170006INS_9allocatorINS_12basic_stringIcNS_11char_traitsIcEENS1_IcEEEEEEPS6_S8_S8_EET2_RT_T0_T1_S9_, symObjAddr: 0xCC44, symBinAddr: 0x1000102AC, symSize: 0xF4 }
  - { offsetInCU: 0x21267, offset: 0x21267, size: 0x8, addend: 0x0, symName: __ZNSt3__113__unwrap_iterB8ue170006IPNS_12basic_stringIcNS_11char_traitsIcEENS_9allocatorIcEEEENS_18__unwrap_iter_implIS7_Lb1EEELi0EEEDTclsrT0_8__unwrapclsr3stdE7declvalIT_EEEESB_, symObjAddr: 0xCD38, symBinAddr: 0x1000103A0, symSize: 0x24 }
  - { offsetInCU: 0x212AB, offset: 0x212AB, size: 0x8, addend: 0x0, symName: __ZNSt3__113__rewrap_iterB8ue170006IPNS_12basic_stringIcNS_11char_traitsIcEENS_9allocatorIcEEEES7_NS_18__unwrap_iter_implIS7_Lb1EEEEET_SA_T0_, symObjAddr: 0xCD5C, symBinAddr: 0x1000103C4, symSize: 0x3C }
  - { offsetInCU: 0x21300, offset: 0x21300, size: 0x8, addend: 0x0, symName: __ZNSt3__19make_pairB8ue170006IPNS_12basic_stringIcNS_11char_traitsIcEENS_9allocatorIcEEEES7_EENS_4pairINS_18__unwrap_ref_decayIT_E4typeENS9_IT0_E4typeEEEOSA_OSD_, symObjAddr: 0xCD98, symBinAddr: 0x100010400, symSize: 0x38 }
  - { offsetInCU: 0x21423, offset: 0x21423, size: 0x8, addend: 0x0, symName: __ZNSt3__122__make_exception_guardB8ue170006INS_29_AllocatorDestroyRangeReverseINS_9allocatorINS_12basic_stringIcNS_11char_traitsIcEENS2_IcEEEEEEPS7_EEEENS_28__exception_guard_exceptionsIT_EESC_, symObjAddr: 0xCE40, symBinAddr: 0x1000104A8, symSize: 0x4C }
  - { offsetInCU: 0x21459, offset: 0x21459, size: 0x8, addend: 0x0, symName: __ZNSt3__119__allocator_destroyB8ue170006INS_9allocatorINS_12basic_stringIcNS_11char_traitsIcEENS1_IcEEEEEENS_16reverse_iteratorIPS6_EESA_EEvRT_T0_T1_, symObjAddr: 0xD0D0, symBinAddr: 0x100010738, symSize: 0x70 }
  - { offsetInCU: 0x214BC, offset: 0x214BC, size: 0x8, addend: 0x0, symName: __ZNSt3__1neB8ue170006IPNS_12basic_stringIcNS_11char_traitsIcEENS_9allocatorIcEEEES7_EEbRKNS_16reverse_iteratorIT_EERKNS8_IT0_EE, symObjAddr: 0xD174, symBinAddr: 0x1000107DC, symSize: 0x48 }
  - { offsetInCU: 0x21508, offset: 0x21508, size: 0x8, addend: 0x0, symName: __ZNSt3__112__to_addressB8ue170006INS_16reverse_iteratorIPNS_12basic_stringIcNS_11char_traitsIcEENS_9allocatorIcEEEEEEvEEu7__decayIDTclsr19__to_address_helperIT_EE6__callclsr3stdE7declvalIRKSA_EEEEESC_, symObjAddr: 0xD1E8, symBinAddr: 0x100010850, symSize: 0x24 }
  - { offsetInCU: 0x215BA, offset: 0x215BA, size: 0x8, addend: 0x0, symName: __ZNSt3__120__throw_out_of_rangeB8ue170006EPKc, symObjAddr: 0xDE44, symBinAddr: 0x1000114AC, symSize: 0x64 }
  - { offsetInCU: 0x215E4, offset: 0x215E4, size: 0x8, addend: 0x0, symName: __ZNSt3__1ltB8ue170006INS_12basic_stringIcNS_11char_traitsIcEENS_9allocatorIcEEEENS4_IS6_EEEEbRKNS_6vectorIT_T0_EESD_, symObjAddr: 0xE644, symBinAddr: 0x100011CAC, symSize: 0x68 }
  - { offsetInCU: 0x21633, offset: 0x21633, size: 0x8, addend: 0x0, symName: __ZNSt3__123lexicographical_compareB8ue170006INS_11__wrap_iterIPKNS_12basic_stringIcNS_11char_traitsIcEENS_9allocatorIcEEEEEESA_EEbT_SB_T0_SC_, symObjAddr: 0xE6AC, symBinAddr: 0x100011D14, symSize: 0x60 }
  - { offsetInCU: 0x2169B, offset: 0x2169B, size: 0x8, addend: 0x0, symName: __ZNSt3__123lexicographical_compareB8ue170006INS_11__wrap_iterIPKNS_12basic_stringIcNS_11char_traitsIcEENS_9allocatorIcEEEEEESA_NS_6__lessIvvEEEEbT_SD_T0_SE_T1_, symObjAddr: 0xE76C, symBinAddr: 0x100011DD4, symSize: 0x64 }
  - { offsetInCU: 0x2171A, offset: 0x2171A, size: 0x8, addend: 0x0, symName: __ZNSt3__125__lexicographical_compareB8ue170006IRNS_6__lessIvvEENS_11__wrap_iterIPKNS_12basic_stringIcNS_11char_traitsIcEENS_9allocatorIcEEEEEESD_EEbT0_SE_T1_SF_T_, symObjAddr: 0xE7D0, symBinAddr: 0x100011E38, symSize: 0x11C }
  - { offsetInCU: 0x21799, offset: 0x21799, size: 0x8, addend: 0x0, symName: __ZNSt3__1neB8ue170006IPKNS_12basic_stringIcNS_11char_traitsIcEENS_9allocatorIcEEEEEEbRKNS_11__wrap_iterIT_EESD_, symObjAddr: 0xE8EC, symBinAddr: 0x100011F54, symSize: 0x34 }
  - { offsetInCU: 0x217DC, offset: 0x217DC, size: 0x8, addend: 0x0, symName: __ZNSt3__1eqB8ue170006IPKNS_12basic_stringIcNS_11char_traitsIcEENS_9allocatorIcEEEEEEbRKNS_11__wrap_iterIT_EESD_, symObjAddr: 0xE920, symBinAddr: 0x100011F88, symSize: 0x48 }
  - { offsetInCU: 0x2181F, offset: 0x2181F, size: 0x8, addend: 0x0, symName: __ZNSt3__1ltB8ue170006IcNS_11char_traitsIcEENS_9allocatorIcEEEEbRKNS_12basic_stringIT_T0_T1_EESB_, symObjAddr: 0xE9EC, symBinAddr: 0x100012054, symSize: 0x38 }
  - { offsetInCU: 0x21877, offset: 0x21877, size: 0x8, addend: 0x0, symName: __ZNSt3__112__to_addressB8ue170006IKcEEPT_S3_, symObjAddr: 0xEC78, symBinAddr: 0x1000122E0, symSize: 0x14 }
  - { offsetInCU: 0x218FD, offset: 0x218FD, size: 0x8, addend: 0x0, symName: __ZNSt3__127__tree_balance_after_insertB8ue170006IPNS_16__tree_node_baseIPvEEEEvT_S5_, symObjAddr: 0xF258, symBinAddr: 0x1000128C0, symSize: 0x32C }
  - { offsetInCU: 0x21979, offset: 0x21979, size: 0x8, addend: 0x0, symName: __ZNSt3__120__tree_is_left_childB8ue170006IPNS_16__tree_node_baseIPvEEEEbT_, symObjAddr: 0xF5C4, symBinAddr: 0x100012C2C, symSize: 0x2C }
  - { offsetInCU: 0x219AE, offset: 0x219AE, size: 0x8, addend: 0x0, symName: __ZNSt3__118__tree_left_rotateB8ue170006IPNS_16__tree_node_baseIPvEEEEvT_, symObjAddr: 0xF5F0, symBinAddr: 0x100012C58, symSize: 0xD8 }
  - { offsetInCU: 0x219F0, offset: 0x219F0, size: 0x8, addend: 0x0, symName: __ZNSt3__119__tree_right_rotateB8ue170006IPNS_16__tree_node_baseIPvEEEEvT_, symObjAddr: 0xF6C8, symBinAddr: 0x100012D30, symSize: 0xCC }
  - { offsetInCU: 0x21A32, offset: 0x21A32, size: 0x8, addend: 0x0, symName: __ZNSt3__1neB8ue170006ERKNS_21__tree_const_iteratorI5TuplePNS_11__tree_nodeIS1_PvEElEES8_, symObjAddr: 0xFAC0, symBinAddr: 0x100013128, symSize: 0x34 }
  - { offsetInCU: 0x21A6F, offset: 0x21A6F, size: 0x8, addend: 0x0, symName: __ZNSt3__1eqB8ue170006ERKNS_21__tree_const_iteratorI5TuplePNS_11__tree_nodeIS1_PvEElEES8_, symObjAddr: 0xFC24, symBinAddr: 0x10001328C, symSize: 0x30 }
  - { offsetInCU: 0x21AAC, offset: 0x21AAC, size: 0x8, addend: 0x0, symName: __ZNSt3__116__tree_next_iterB8ue170006IPNS_15__tree_end_nodeIPNS_16__tree_node_baseIPvEEEES5_EET_T0_, symObjAddr: 0xFC6C, symBinAddr: 0x1000132D4, symSize: 0x80 }
  - { offsetInCU: 0x21AEA, offset: 0x21AEA, size: 0x8, addend: 0x0, symName: __ZNSt3__110__tree_minB8ue170006IPNS_16__tree_node_baseIPvEEEET_S5_, symObjAddr: 0xFCEC, symBinAddr: 0x100013354, symSize: 0x40 }
  - { offsetInCU: 0x21B1F, offset: 0x21B1F, size: 0x8, addend: 0x0, symName: __ZNSt3__1eqB8ue170006INS_9allocatorIcEEEEbRKNS_12basic_stringIcNS_11char_traitsIcEET_EES9_, symObjAddr: 0xFD2C, symBinAddr: 0x100013394, symSize: 0x148 }
  - { offsetInCU: 0x21B92, offset: 0x21B92, size: 0x8, addend: 0x0, symName: __ZNSt3__112__to_addressB8ue170006I9PredicateEEPT_S3_, symObjAddr: 0x106A8, symBinAddr: 0x100013D10, symSize: 0x14 }
  - { offsetInCU: 0x21BC7, offset: 0x21BC7, size: 0x8, addend: 0x0, symName: __ZNSt3__112__to_addressB8ue170006I9ParameterEEPT_S3_, symObjAddr: 0x10AEC, symBinAddr: 0x100014154, symSize: 0x14 }
  - { offsetInCU: 0x21BFC, offset: 0x21BFC, size: 0x8, addend: 0x0, symName: __ZNSt3__112__to_addressB8ue170006I4RuleEEPT_S3_, symObjAddr: 0x11190, symBinAddr: 0x1000147F8, symSize: 0x14 }
  - { offsetInCU: 0x21C31, offset: 0x21C31, size: 0x8, addend: 0x0, symName: __ZNSt3__1neB8ue170006ERKNS_16__deque_iteratorIcPcRcPS1_lLl4096EEES6_, symObjAddr: 0x11948, symBinAddr: 0x100014FB0, symSize: 0x34 }
  - { offsetInCU: 0x21C6E, offset: 0x21C6E, size: 0x8, addend: 0x0, symName: __ZNSt3__1eqB8ue170006ERKNS_16__deque_iteratorIcPcRcPS1_lLl4096EEES6_, symObjAddr: 0x11B24, symBinAddr: 0x10001518C, symSize: 0x30 }
  - { offsetInCU: 0x21CAB, offset: 0x21CAB, size: 0x8, addend: 0x0, symName: __ZNSt3__112__to_addressB8ue170006IPcEEPT_S3_, symObjAddr: 0x11F14, symBinAddr: 0x10001557C, symSize: 0x14 }
  - { offsetInCU: 0x21CE0, offset: 0x21CE0, size: 0x8, addend: 0x0, symName: __ZNSt3__130__uninitialized_allocator_copyB8ue170006INS_9allocatorINS_12basic_stringIcNS_11char_traitsIcEENS1_IcEEEEEEPKS6_S9_PS6_EET2_RT_T0_T1_SB_, symObjAddr: 0x127CC, symBinAddr: 0x100015E34, symSize: 0x80 }
  - { offsetInCU: 0x21D7D, offset: 0x21D7D, size: 0x8, addend: 0x0, symName: __ZNSt3__114__unwrap_rangeB8ue170006IPKNS_12basic_stringIcNS_11char_traitsIcEENS_9allocatorIcEEEES8_EENS_4pairIT0_SA_EET_SC_, symObjAddr: 0x1284C, symBinAddr: 0x100015EB4, symSize: 0x60 }
  - { offsetInCU: 0x21DC9, offset: 0x21DC9, size: 0x8, addend: 0x0, symName: __ZNSt3__135__uninitialized_allocator_copy_implB8ue170006INS_9allocatorINS_12basic_stringIcNS_11char_traitsIcEENS1_IcEEEEEEPKS6_S9_PS6_EET2_RT_T0_T1_SB_, symObjAddr: 0x128AC, symBinAddr: 0x100015F14, symSize: 0xF4 }
  - { offsetInCU: 0x21E67, offset: 0x21E67, size: 0x8, addend: 0x0, symName: __ZNSt3__19make_pairB8ue170006IPKNS_12basic_stringIcNS_11char_traitsIcEENS_9allocatorIcEEEES8_EENS_4pairINS_18__unwrap_ref_decayIT_E4typeENSA_IT0_E4typeEEEOSB_OSE_, symObjAddr: 0x129A0, symBinAddr: 0x100016008, symSize: 0x38 }
  - { offsetInCU: 0x21EB6, offset: 0x21EB6, size: 0x8, addend: 0x0, symName: __ZNSt3__113__unwrap_iterB8ue170006IPKNS_12basic_stringIcNS_11char_traitsIcEENS_9allocatorIcEEEENS_18__unwrap_iter_implIS8_Lb1EEELi0EEEDTclsrT0_8__unwrapclsr3stdE7declvalIT_EEEESC_, symObjAddr: 0x129D8, symBinAddr: 0x100016040, symSize: 0x24 }
  - { offsetInCU: 0x22021, offset: 0x22021, size: 0x8, addend: 0x0, symName: __ZNSt3__112__to_addressB8ue170006IKNS_12basic_stringIcNS_11char_traitsIcEENS_9allocatorIcEEEEEEPT_S9_, symObjAddr: 0x12A90, symBinAddr: 0x1000160F8, symSize: 0x14 }
  - { offsetInCU: 0x228F3, offset: 0x228F3, size: 0x8, addend: 0x0, symName: __ZSt28__throw_bad_array_new_lengthB8ue170006v, symObjAddr: 0x6E68, symBinAddr: 0x10000A4D0, symSize: 0x34 }
  - { offsetInCU: 0x24C62, offset: 0x24C62, size: 0x8, addend: 0x0, symName: __ZNKSt3__111__enum_hashIN5Token9TokenTypeELb1EEclB8ue170006ES2_, symObjAddr: 0x6A54, symBinAddr: 0x10000A0BC, symSize: 0x2C }
  - { offsetInCU: 0x24CFE, offset: 0x24CFE, size: 0x8, addend: 0x0, symName: __ZNSt3__16vectorI5TokenNS_9allocatorIS1_EEE26__swap_out_circular_bufferERNS_14__split_bufferIS1_RS3_EE, symObjAddr: 0x80F4, symBinAddr: 0x10000B75C, symSize: 0x110 }
  - { offsetInCU: 0x25CB9, offset: 0x25CB9, size: 0x8, addend: 0x0, symName: __Z7isalnumi, symObjAddr: 0x37C4, symBinAddr: 0x100006E2C, symSize: 0x28 }
  - { offsetInCU: 0x25CE5, offset: 0x25CE5, size: 0x8, addend: 0x0, symName: __Z7isalphai, symObjAddr: 0x2C10, symBinAddr: 0x100006278, symSize: 0x28 }
  - { offsetInCU: 0x25DA5, offset: 0x25DA5, size: 0x8, addend: 0x0, symName: __Z7isspacei, symObjAddr: 0x2BE8, symBinAddr: 0x100006250, symSize: 0x28 }
  - { offsetInCU: 0x2782A, offset: 0x2782A, size: 0x8, addend: 0x0, symName: _main, symObjAddr: 0x0, symBinAddr: 0x100003668, symSize: 0xDD0 }
  - { offsetInCU: 0x27976, offset: 0x27976, size: 0x8, addend: 0x0, symName: __ZNSt3__112basic_stringIcNS_11char_traitsIcEENS_9allocatorIcEEEC1B8ue170006ILi0EEEPKc, symObjAddr: 0xDD0, symBinAddr: 0x100004438, symSize: 0x34 }
  - { offsetInCU: 0x279B5, offset: 0x279B5, size: 0x8, addend: 0x0, symName: __ZNSt3__114basic_ifstreamIcNS_11char_traitsIcEEEC1Ev, symObjAddr: 0xE04, symBinAddr: 0x10000446C, symSize: 0xE8 }
  - { offsetInCU: 0x279E1, offset: 0x279E1, size: 0x8, addend: 0x0, symName: __ZNSt3__118basic_stringstreamIcNS_11char_traitsIcEENS_9allocatorIcEEEC1B8ue170006Ev, symObjAddr: 0xEEC, symBinAddr: 0x100004554, symSize: 0x104 }
  - { offsetInCU: 0x27A0B, offset: 0x27A0B, size: 0x8, addend: 0x0, symName: __ZNKSt3__114basic_ifstreamIcNS_11char_traitsIcEEE5rdbufEv, symObjAddr: 0xFF0, symBinAddr: 0x100004658, symSize: 0x18 }
  - { offsetInCU: 0x27A33, offset: 0x27A33, size: 0x8, addend: 0x0, symName: __ZNKSt3__118basic_stringstreamIcNS_11char_traitsIcEENS_9allocatorIcEEE3strB8ue170006Ev, symObjAddr: 0x1008, symBinAddr: 0x100004670, symSize: 0x30 }
  - { offsetInCU: 0x27A59, offset: 0x27A59, size: 0x8, addend: 0x0, symName: __ZNSt3__114basic_ifstreamIcNS_11char_traitsIcEEE5closeEv, symObjAddr: 0x1038, symBinAddr: 0x1000046A0, symSize: 0x58 }
  - { offsetInCU: 0x27A81, offset: 0x27A81, size: 0x8, addend: 0x0, symName: __ZN7ScannerC1ENSt3__112basic_stringIcNS0_11char_traitsIcEENS0_9allocatorIcEEEE, symObjAddr: 0x1090, symBinAddr: 0x1000046F8, symSize: 0x34 }
  - { offsetInCU: 0x27ABA, offset: 0x27ABA, size: 0x8, addend: 0x0, symName: __ZN7Scanner9scanTokenEv, symObjAddr: 0x10C4, symBinAddr: 0x10000472C, symSize: 0x434 }
  - { offsetInCU: 0x27AFC, offset: 0x27AFC, size: 0x8, addend: 0x0, symName: __ZN6ParserC1ERNSt3__16vectorI5TokenNS0_9allocatorIS2_EEEE, symObjAddr: 0x1558, symBinAddr: 0x100004BC0, symSize: 0x34 }
  - { offsetInCU: 0x27B34, offset: 0x27B34, size: 0x8, addend: 0x0, symName: __ZNSt3__16vectorINS_12basic_stringIcNS_11char_traitsIcEENS_9allocatorIcEEEENS4_IS6_EEEC1B8ue170006ESt16initializer_listIS6_E, symObjAddr: 0x158C, symBinAddr: 0x100004BF4, symSize: 0x3C }
  - { offsetInCU: 0x27B6F, offset: 0x27B6F, size: 0x8, addend: 0x0, symName: __ZNSt3__16vectorINS_12basic_stringIcNS_11char_traitsIcEENS_9allocatorIcEEEENS4_IS6_EEEC1ERKS8_, symObjAddr: 0x15C8, symBinAddr: 0x100004C30, symSize: 0x34 }
  - { offsetInCU: 0x27BAA, offset: 0x27BAA, size: 0x8, addend: 0x0, symName: __ZN6SchemeC1ENSt3__16vectorINS0_12basic_stringIcNS0_11char_traitsIcEENS0_9allocatorIcEEEENS5_IS7_EEEE, symObjAddr: 0x15FC, symBinAddr: 0x100004C64, symSize: 0x34 }
  - { offsetInCU: 0x27BE3, offset: 0x27BE3, size: 0x8, addend: 0x0, symName: __ZNSt3__16vectorINS_12basic_stringIcNS_11char_traitsIcEENS_9allocatorIcEEEENS4_IS6_EEED1B8ue170006Ev, symObjAddr: 0x1630, symBinAddr: 0x100004C98, symSize: 0x2C }
  - { offsetInCU: 0x27DEE, offset: 0x27DEE, size: 0x8, addend: 0x0, symName: __ZN8RelationC1ERKNSt3__112basic_stringIcNS0_11char_traitsIcEENS0_9allocatorIcEEEERK6Scheme, symObjAddr: 0x165C, symBinAddr: 0x100004CC4, symSize: 0x3C }
  - { offsetInCU: 0x27E34, offset: 0x27E34, size: 0x8, addend: 0x0, symName: __ZN5TupleC1ENSt3__16vectorINS0_12basic_stringIcNS0_11char_traitsIcEENS0_9allocatorIcEEEENS5_IS7_EEEE, symObjAddr: 0x1698, symBinAddr: 0x100004D00, symSize: 0x34 }
  - { offsetInCU: 0x27E6D, offset: 0x27E6D, size: 0x8, addend: 0x0, symName: __ZNK5Tuple8toStringERK6Scheme, symObjAddr: 0x1718, symBinAddr: 0x100004D80, symSize: 0x184 }
  - { offsetInCU: 0x27ED3, offset: 0x27ED3, size: 0x8, addend: 0x0, symName: __ZNSt3__113basic_ostreamIcNS_11char_traitsIcEEElsB8ue170006EPFRS3_S4_E, symObjAddr: 0x189C, symBinAddr: 0x100004F04, symSize: 0x2C }
  - { offsetInCU: 0x27F07, offset: 0x27F07, size: 0x8, addend: 0x0, symName: __ZN8Relation8addTupleERK5Tuple, symObjAddr: 0x1920, symBinAddr: 0x100004F88, symSize: 0x38 }
  - { offsetInCU: 0x27F3B, offset: 0x27F3B, size: 0x8, addend: 0x0, symName: __ZN5TupleD1Ev, symObjAddr: 0x1958, symBinAddr: 0x100004FC0, symSize: 0x2C }
  - { offsetInCU: 0x27F67, offset: 0x27F67, size: 0x8, addend: 0x0, symName: __ZNK8Relation8toStringEv, symObjAddr: 0x19CC, symBinAddr: 0x100005034, symSize: 0x150 }
  - { offsetInCU: 0x27FE9, offset: 0x27FE9, size: 0x8, addend: 0x0, symName: __ZNK8Relation6selectEiRKNSt3__112basic_stringIcNS0_11char_traitsIcEENS0_9allocatorIcEEEE, symObjAddr: 0x1B1C, symBinAddr: 0x100005184, symSize: 0x154 }
  - { offsetInCU: 0x28084, offset: 0x28084, size: 0x8, addend: 0x0, symName: __ZN8RelationD1Ev, symObjAddr: 0x1C70, symBinAddr: 0x1000052D8, symSize: 0x2C }
  - { offsetInCU: 0x280B0, offset: 0x280B0, size: 0x8, addend: 0x0, symName: __ZN6SchemeD1Ev, symObjAddr: 0x1C9C, symBinAddr: 0x100005304, symSize: 0x2C }
  - { offsetInCU: 0x280DC, offset: 0x280DC, size: 0x8, addend: 0x0, symName: __ZN6ParserD1Ev, symObjAddr: 0x1CC8, symBinAddr: 0x100005330, symSize: 0x2C }
  - { offsetInCU: 0x28108, offset: 0x28108, size: 0x8, addend: 0x0, symName: __ZNSt3__16vectorI5TokenNS_9allocatorIS1_EEED1B8ue170006Ev, symObjAddr: 0x1CF4, symBinAddr: 0x10000535C, symSize: 0x2C }
  - { offsetInCU: 0x28132, offset: 0x28132, size: 0x8, addend: 0x0, symName: __ZN7ScannerD1Ev, symObjAddr: 0x1D20, symBinAddr: 0x100005388, symSize: 0x2C }
  - { offsetInCU: 0x28163, offset: 0x28163, size: 0x8, addend: 0x0, symName: __ZNSt3__118basic_stringstreamIcNS_11char_traitsIcEENS_9allocatorIcEEED1Ev, symObjAddr: 0x1D4C, symBinAddr: 0x1000053B4, symSize: 0x40 }
  - { offsetInCU: 0x28195, offset: 0x28195, size: 0x8, addend: 0x0, symName: __ZNSt3__114basic_ifstreamIcNS_11char_traitsIcEEED1Ev, symObjAddr: 0x1D8C, symBinAddr: 0x1000053F4, symSize: 0x40 }
  - { offsetInCU: 0x281C2, offset: 0x281C2, size: 0x8, addend: 0x0, symName: __ZN7ScannerC2ENSt3__112basic_stringIcNS0_11char_traitsIcEENS0_9allocatorIcEEEE, symObjAddr: 0x1DCC, symBinAddr: 0x100005434, symSize: 0x54 }
  - { offsetInCU: 0x281FB, offset: 0x281FB, size: 0x8, addend: 0x0, symName: __ZNSt3__112basic_stringIcNS_11char_traitsIcEENS_9allocatorIcEEEC1B8ue170006EOS5_, symObjAddr: 0x1E20, symBinAddr: 0x100005488, symSize: 0x34 }
  - { offsetInCU: 0x28234, offset: 0x28234, size: 0x8, addend: 0x0, symName: __ZNSt3__15stackIcNS_5dequeIcNS_9allocatorIcEEEEEC1B8ue170006Ev, symObjAddr: 0x1E54, symBinAddr: 0x1000054BC, symSize: 0x2C }
  - { offsetInCU: 0x2825E, offset: 0x2825E, size: 0x8, addend: 0x0, symName: __ZNSt3__16vectorI5TokenNS_9allocatorIS1_EEEC1B8ue170006Ev, symObjAddr: 0x1E80, symBinAddr: 0x1000054E8, symSize: 0x2C }
  - { offsetInCU: 0x28288, offset: 0x28288, size: 0x8, addend: 0x0, symName: __ZNSt3__112basic_stringIcNS_11char_traitsIcEENS_9allocatorIcEEEC2B8ue170006EOS5_, symObjAddr: 0x1EAC, symBinAddr: 0x100005514, symSize: 0x50 }
  - { offsetInCU: 0x282C1, offset: 0x282C1, size: 0x8, addend: 0x0, symName: __ZNSt3__112basic_stringIcNS_11char_traitsIcEENS_9allocatorIcEEE14__default_initB8ue170006Ev, symObjAddr: 0x1EFC, symBinAddr: 0x100005564, symSize: 0x40 }
  - { offsetInCU: 0x282E7, offset: 0x282E7, size: 0x8, addend: 0x0, symName: __ZNSt3__117__compressed_pairINS_12basic_stringIcNS_11char_traitsIcEENS_9allocatorIcEEE5__repES5_E5firstB8ue170006Ev, symObjAddr: 0x1F48, symBinAddr: 0x1000055B0, symSize: 0x24 }
  - { offsetInCU: 0x2830D, offset: 0x2830D, size: 0x8, addend: 0x0, symName: __ZNSt3__122__compressed_pair_elemINS_12basic_stringIcNS_11char_traitsIcEENS_9allocatorIcEEE5__repELi0ELb0EE5__getB8ue170006Ev, symObjAddr: 0x1F6C, symBinAddr: 0x1000055D4, symSize: 0x14 }
  - { offsetInCU: 0x28333, offset: 0x28333, size: 0x8, addend: 0x0, symName: __ZNSt3__15stackIcNS_5dequeIcNS_9allocatorIcEEEEEC2B8ue170006Ev, symObjAddr: 0x1F80, symBinAddr: 0x1000055E8, symSize: 0x2C }
  - { offsetInCU: 0x2835D, offset: 0x2835D, size: 0x8, addend: 0x0, symName: __ZNSt3__15dequeIcNS_9allocatorIcEEEC1B8ue170006Ev, symObjAddr: 0x1FAC, symBinAddr: 0x100005614, symSize: 0x2C }
  - { offsetInCU: 0x28387, offset: 0x28387, size: 0x8, addend: 0x0, symName: __ZNSt3__15dequeIcNS_9allocatorIcEEEC2B8ue170006Ev, symObjAddr: 0x1FD8, symBinAddr: 0x100005640, symSize: 0x5C }
  - { offsetInCU: 0x283B1, offset: 0x283B1, size: 0x8, addend: 0x0, symName: __ZNSt3__114__split_bufferIPcNS_9allocatorIS1_EEEC1B8ue170006Ev, symObjAddr: 0x2034, symBinAddr: 0x10000569C, symSize: 0x2C }
  - { offsetInCU: 0x283E7, offset: 0x283E7, size: 0x8, addend: 0x0, symName: __ZNSt3__117__compressed_pairImNS_9allocatorIcEEEC1B8ue170006IiNS_18__default_init_tagEEEOT_OT0_, symObjAddr: 0x2060, symBinAddr: 0x1000056C8, symSize: 0x3C }
  - { offsetInCU: 0x2843F, offset: 0x2843F, size: 0x8, addend: 0x0, symName: __ZNKSt3__15dequeIcNS_9allocatorIcEEE14__annotate_newB8ue170006Em, symObjAddr: 0x209C, symBinAddr: 0x100005704, symSize: 0xC8 }
  - { offsetInCU: 0x28474, offset: 0x28474, size: 0x8, addend: 0x0, symName: __ZNSt3__114__split_bufferIPcNS_9allocatorIS1_EEEC2B8ue170006Ev, symObjAddr: 0x2164, symBinAddr: 0x1000057CC, symSize: 0x50 }
  - { offsetInCU: 0x284A4, offset: 0x284A4, size: 0x8, addend: 0x0, symName: __ZNSt3__117__compressed_pairIPPcNS_9allocatorIS1_EEEC1B8ue170006IDnNS_18__default_init_tagEEEOT_OT0_, symObjAddr: 0x21B4, symBinAddr: 0x10000581C, symSize: 0x3C }
  - { offsetInCU: 0x284FC, offset: 0x284FC, size: 0x8, addend: 0x0, symName: __ZNSt3__117__compressed_pairIPPcNS_9allocatorIS1_EEEC2B8ue170006IDnNS_18__default_init_tagEEEOT_OT0_, symObjAddr: 0x21F0, symBinAddr: 0x100005858, symSize: 0x40 }
  - { offsetInCU: 0x28554, offset: 0x28554, size: 0x8, addend: 0x0, symName: __ZNSt3__122__compressed_pair_elemIPPcLi0ELb0EEC2B8ue170006IDnvEEOT_, symObjAddr: 0x2230, symBinAddr: 0x100005898, symSize: 0x1C }
  - { offsetInCU: 0x28596, offset: 0x28596, size: 0x8, addend: 0x0, symName: __ZNSt3__122__compressed_pair_elemINS_9allocatorIPcEELi1ELb1EEC2B8ue170006ENS_18__default_init_tagE, symObjAddr: 0x224C, symBinAddr: 0x1000058B4, symSize: 0x2C }
  - { offsetInCU: 0x285CB, offset: 0x285CB, size: 0x8, addend: 0x0, symName: __ZNSt3__19allocatorIPcEC2B8ue170006Ev, symObjAddr: 0x2278, symBinAddr: 0x1000058E0, symSize: 0x2C }
  - { offsetInCU: 0x285F5, offset: 0x285F5, size: 0x8, addend: 0x0, symName: __ZNSt3__116__non_trivial_ifILb1ENS_9allocatorIPcEEEC2B8ue170006Ev, symObjAddr: 0x22A4, symBinAddr: 0x10000590C, symSize: 0x14 }
  - { offsetInCU: 0x2861F, offset: 0x2861F, size: 0x8, addend: 0x0, symName: __ZNSt3__117__compressed_pairImNS_9allocatorIcEEEC2B8ue170006IiNS_18__default_init_tagEEEOT_OT0_, symObjAddr: 0x22B8, symBinAddr: 0x100005920, symSize: 0x40 }
  - { offsetInCU: 0x28677, offset: 0x28677, size: 0x8, addend: 0x0, symName: __ZNSt3__122__compressed_pair_elemImLi0ELb0EEC2B8ue170006IivEEOT_, symObjAddr: 0x22F8, symBinAddr: 0x100005960, symSize: 0x24 }
  - { offsetInCU: 0x286B9, offset: 0x286B9, size: 0x8, addend: 0x0, symName: __ZNSt3__122__compressed_pair_elemINS_9allocatorIcEELi1ELb1EEC2B8ue170006ENS_18__default_init_tagE, symObjAddr: 0x231C, symBinAddr: 0x100005984, symSize: 0x2C }
  - { offsetInCU: 0x286EE, offset: 0x286EE, size: 0x8, addend: 0x0, symName: __ZNSt3__19allocatorIcEC2B8ue170006Ev, symObjAddr: 0x2348, symBinAddr: 0x1000059B0, symSize: 0x2C }
  - { offsetInCU: 0x28718, offset: 0x28718, size: 0x8, addend: 0x0, symName: __ZNSt3__116__non_trivial_ifILb1ENS_9allocatorIcEEEC2B8ue170006Ev, symObjAddr: 0x2374, symBinAddr: 0x1000059DC, symSize: 0x14 }
  - { offsetInCU: 0x28742, offset: 0x28742, size: 0x8, addend: 0x0, symName: __ZNKSt3__15dequeIcNS_9allocatorIcEEE18__annotate_from_toB8ue170006EmmNS3_22__asan_annotation_typeENS3_23__asan_annotation_placeE, symObjAddr: 0x2388, symBinAddr: 0x1000059F0, symSize: 0x580 }
  - { offsetInCU: 0x288FE, offset: 0x288FE, size: 0x8, addend: 0x0, symName: __ZNKSt3__114__split_bufferIPcNS_9allocatorIS1_EEE4sizeB8ue170006Ev, symObjAddr: 0x2908, symBinAddr: 0x100005F70, symSize: 0x28 }
  - { offsetInCU: 0x28924, offset: 0x28924, size: 0x8, addend: 0x0, symName: __ZNKSt3__114__split_bufferIPcNS_9allocatorIS1_EEE5beginB8ue170006Ev, symObjAddr: 0x2930, symBinAddr: 0x100005F98, symSize: 0x18 }
  - { offsetInCU: 0x2894A, offset: 0x2894A, size: 0x8, addend: 0x0, symName: __ZNKSt3__15dequeIcNS_9allocatorIcEEE4sizeB8ue170006Ev, symObjAddr: 0x2948, symBinAddr: 0x100005FB0, symSize: 0x28 }
  - { offsetInCU: 0x28970, offset: 0x28970, size: 0x8, addend: 0x0, symName: __ZNKSt3__15dequeIcNS_9allocatorIcEEE5emptyB8ue170006Ev, symObjAddr: 0x2970, symBinAddr: 0x100005FD8, symSize: 0x30 }
  - { offsetInCU: 0x28996, offset: 0x28996, size: 0x8, addend: 0x0, symName: __ZNKSt3__15dequeIcNS_9allocatorIcEEE44__annotate_double_ended_contiguous_containerB8ue170006EPKvS5_S5_S5_S5_S5_, symObjAddr: 0x29B4, symBinAddr: 0x10000601C, symSize: 0x28 }
  - { offsetInCU: 0x28A04, offset: 0x28A04, size: 0x8, addend: 0x0, symName: __ZNKSt3__15dequeIcNS_9allocatorIcEEE6__sizeB8ue170006Ev, symObjAddr: 0x29DC, symBinAddr: 0x100006044, symSize: 0x28 }
  - { offsetInCU: 0x28A2A, offset: 0x28A2A, size: 0x8, addend: 0x0, symName: __ZNKSt3__117__compressed_pairImNS_9allocatorIcEEE5firstB8ue170006Ev, symObjAddr: 0x2A04, symBinAddr: 0x10000606C, symSize: 0x24 }
  - { offsetInCU: 0x28A50, offset: 0x28A50, size: 0x8, addend: 0x0, symName: __ZNKSt3__122__compressed_pair_elemImLi0ELb0EE5__getB8ue170006Ev, symObjAddr: 0x2A28, symBinAddr: 0x100006090, symSize: 0x14 }
  - { offsetInCU: 0x28A76, offset: 0x28A76, size: 0x8, addend: 0x0, symName: __ZNSt3__16vectorI5TokenNS_9allocatorIS1_EEEC2B8ue170006Ev, symObjAddr: 0x2A3C, symBinAddr: 0x1000060A4, symSize: 0x4C }
  - { offsetInCU: 0x28AA0, offset: 0x28AA0, size: 0x8, addend: 0x0, symName: __ZNSt3__117__compressed_pairIP5TokenNS_9allocatorIS1_EEEC1B8ue170006IDnNS_18__default_init_tagEEEOT_OT0_, symObjAddr: 0x2A88, symBinAddr: 0x1000060F0, symSize: 0x3C }
  - { offsetInCU: 0x28AF8, offset: 0x28AF8, size: 0x8, addend: 0x0, symName: __ZNSt3__117__compressed_pairIP5TokenNS_9allocatorIS1_EEEC2B8ue170006IDnNS_18__default_init_tagEEEOT_OT0_, symObjAddr: 0x2AC4, symBinAddr: 0x10000612C, symSize: 0x40 }
  - { offsetInCU: 0x28B50, offset: 0x28B50, size: 0x8, addend: 0x0, symName: __ZNSt3__122__compressed_pair_elemIP5TokenLi0ELb0EEC2B8ue170006IDnvEEOT_, symObjAddr: 0x2B04, symBinAddr: 0x10000616C, symSize: 0x1C }
  - { offsetInCU: 0x28B92, offset: 0x28B92, size: 0x8, addend: 0x0, symName: __ZNSt3__122__compressed_pair_elemINS_9allocatorI5TokenEELi1ELb1EEC2B8ue170006ENS_18__default_init_tagE, symObjAddr: 0x2B20, symBinAddr: 0x100006188, symSize: 0x2C }
  - { offsetInCU: 0x28BC7, offset: 0x28BC7, size: 0x8, addend: 0x0, symName: __ZNSt3__19allocatorI5TokenEC2B8ue170006Ev, symObjAddr: 0x2B4C, symBinAddr: 0x1000061B4, symSize: 0x2C }
  - { offsetInCU: 0x28BF1, offset: 0x28BF1, size: 0x8, addend: 0x0, symName: __ZNSt3__116__non_trivial_ifILb1ENS_9allocatorI5TokenEEEC2B8ue170006Ev, symObjAddr: 0x2B78, symBinAddr: 0x1000061E0, symSize: 0x14 }
  - { offsetInCU: 0x28C1B, offset: 0x28C1B, size: 0x8, addend: 0x0, symName: __ZNSt3__112basic_stringIcNS_11char_traitsIcEENS_9allocatorIcEEEC1B8ue170006Ev, symObjAddr: 0x2B8C, symBinAddr: 0x1000061F4, symSize: 0x2C }
  - { offsetInCU: 0x28C45, offset: 0x28C45, size: 0x8, addend: 0x0, symName: __ZNKSt3__112basic_stringIcNS_11char_traitsIcEENS_9allocatorIcEEE5emptyB8ue170006Ev, symObjAddr: 0x2BB8, symBinAddr: 0x100006220, symSize: 0x30 }
  - { offsetInCU: 0x28C6B, offset: 0x28C6B, size: 0x8, addend: 0x0, symName: __ZN7Scanner12alnumHandlerEv, symObjAddr: 0x2C38, symBinAddr: 0x1000062A0, symSize: 0x2CC }
  - { offsetInCU: 0x28CF4, offset: 0x28CF4, size: 0x8, addend: 0x0, symName: __ZN7Scanner13stringHandlerEv, symObjAddr: 0x2F04, symBinAddr: 0x10000656C, symSize: 0x2D8 }
  - { offsetInCU: 0x28D37, offset: 0x28D37, size: 0x8, addend: 0x0, symName: __ZN7Scanner14commentHandlerEv, symObjAddr: 0x31DC, symBinAddr: 0x100006844, symSize: 0x1B0 }
  - { offsetInCU: 0x28DB1, offset: 0x28DB1, size: 0x8, addend: 0x0, symName: __ZNKSt3__112basic_stringIcNS_11char_traitsIcEENS_9allocatorIcEEE4sizeB8ue170006Ev, symObjAddr: 0x338C, symBinAddr: 0x1000069F4, symSize: 0x54 }
  - { offsetInCU: 0x28DD7, offset: 0x28DD7, size: 0x8, addend: 0x0, symName: __ZNSt3__112basic_stringIcNS_11char_traitsIcEENS_9allocatorIcEEEaSB8ue170006EPKc, symObjAddr: 0x33E0, symBinAddr: 0x100006A48, symSize: 0x2C }
  - { offsetInCU: 0x28E12, offset: 0x28E12, size: 0x8, addend: 0x0, symName: __ZNSt3__16vectorI5TokenNS_9allocatorIS1_EEE12emplace_backIJRNS1_9TokenTypeERNS_12basic_stringIcNS_11char_traitsIcEENS2_IcEEEERiEEERS1_DpOT_, symObjAddr: 0x340C, symBinAddr: 0x100006A74, symSize: 0x8C }
  - { offsetInCU: 0x28E9B, offset: 0x28E9B, size: 0x8, addend: 0x0, symName: __ZNSt3__16vectorI5TokenNS_9allocatorIS1_EEE12emplace_backIJNS1_9TokenTypeERA1_KcRiEEERS1_DpOT_, symObjAddr: 0x3498, symBinAddr: 0x100006B00, symSize: 0x8C }
  - { offsetInCU: 0x28F05, offset: 0x28F05, size: 0x8, addend: 0x0, symName: __ZNSt3__16vectorI5TokenNS_9allocatorIS1_EEEC1ERKS4_, symObjAddr: 0x3524, symBinAddr: 0x100006B8C, symSize: 0x34 }
  - { offsetInCU: 0x28F40, offset: 0x28F40, size: 0x8, addend: 0x0, symName: __ZNSt3__112basic_stringIcNS_11char_traitsIcEENS_9allocatorIcEEEC2B8ue170006Ev, symObjAddr: 0x3558, symBinAddr: 0x100006BC0, symSize: 0x44 }
  - { offsetInCU: 0x28F6A, offset: 0x28F6A, size: 0x8, addend: 0x0, symName: __ZNSt3__117__compressed_pairINS_12basic_stringIcNS_11char_traitsIcEENS_9allocatorIcEEE5__repES5_EC1B8ue170006INS_18__default_init_tagESA_EEOT_OT0_, symObjAddr: 0x359C, symBinAddr: 0x100006C04, symSize: 0x3C }
  - { offsetInCU: 0x28FC2, offset: 0x28FC2, size: 0x8, addend: 0x0, symName: __ZNSt3__117__compressed_pairINS_12basic_stringIcNS_11char_traitsIcEENS_9allocatorIcEEE5__repES5_EC2B8ue170006INS_18__default_init_tagESA_EEOT_OT0_, symObjAddr: 0x35D8, symBinAddr: 0x100006C40, symSize: 0x3C }
  - { offsetInCU: 0x2901A, offset: 0x2901A, size: 0x8, addend: 0x0, symName: __ZNSt3__122__compressed_pair_elemINS_12basic_stringIcNS_11char_traitsIcEENS_9allocatorIcEEE5__repELi0ELb0EEC2B8ue170006ENS_18__default_init_tagE, symObjAddr: 0x3614, symBinAddr: 0x100006C7C, symSize: 0x14 }
  - { offsetInCU: 0x2904E, offset: 0x2904E, size: 0x8, addend: 0x0, symName: __Z8__istypeim, symObjAddr: 0x3628, symBinAddr: 0x100006C90, symSize: 0x8C }
  - { offsetInCU: 0x29088, offset: 0x29088, size: 0x8, addend: 0x0, symName: __Z7isasciii, symObjAddr: 0x36B4, symBinAddr: 0x100006D1C, symSize: 0x24 }
  - { offsetInCU: 0x290B5, offset: 0x290B5, size: 0x8, addend: 0x0, symName: __ZNSt3__112basic_stringIcNS_11char_traitsIcEENS_9allocatorIcEEE5beginB8ue170006Ev, symObjAddr: 0x36D8, symBinAddr: 0x100006D40, symSize: 0x4C }
  - { offsetInCU: 0x290DB, offset: 0x290DB, size: 0x8, addend: 0x0, symName: __ZNSt3__112basic_stringIcNS_11char_traitsIcEENS_9allocatorIcEEE3endB8ue170006Ev, symObjAddr: 0x3724, symBinAddr: 0x100006D8C, symSize: 0x54 }
  - { offsetInCU: 0x29101, offset: 0x29101, size: 0x8, addend: 0x0, symName: __ZNKSt3__111__wrap_iterIPcEdeB8ue170006Ev, symObjAddr: 0x37AC, symBinAddr: 0x100006E14, symSize: 0x18 }
  - { offsetInCU: 0x29127, offset: 0x29127, size: 0x8, addend: 0x0, symName: __ZNSt3__111__wrap_iterIPcEppB8ue170006Ev, symObjAddr: 0x3820, symBinAddr: 0x100006E88, symSize: 0x20 }
  - { offsetInCU: 0x2914D, offset: 0x2914D, size: 0x8, addend: 0x0, symName: __ZNSt3__112basic_stringIcNS_11char_traitsIcEENS_9allocatorIcEEEaSB8ue170006EOS5_, symObjAddr: 0x3840, symBinAddr: 0x100006EA8, symSize: 0x34 }
  - { offsetInCU: 0x2918D, offset: 0x2918D, size: 0x8, addend: 0x0, symName: __ZNSt3__16vectorI5TokenNS_9allocatorIS1_EEE12emplace_backIJNS1_9TokenTypeERA8_KcRiEEERS1_DpOT_, symObjAddr: 0x3920, symBinAddr: 0x100006F88, symSize: 0x8C }
  - { offsetInCU: 0x29210, offset: 0x29210, size: 0x8, addend: 0x0, symName: __ZNSt3__16vectorI5TokenNS_9allocatorIS1_EEE12emplace_backIJNS1_9TokenTypeERA6_KcRiEEERS1_DpOT_, symObjAddr: 0x39AC, symBinAddr: 0x100007014, symSize: 0x8C }
  - { offsetInCU: 0x2927A, offset: 0x2927A, size: 0x8, addend: 0x0, symName: __ZNSt3__16vectorI5TokenNS_9allocatorIS1_EEE12emplace_backIJNS1_9TokenTypeERNS_12basic_stringIcNS_11char_traitsIcEENS2_IcEEEERiEEERS1_DpOT_, symObjAddr: 0x3A38, symBinAddr: 0x1000070A0, symSize: 0x8C }
  - { offsetInCU: 0x292E4, offset: 0x292E4, size: 0x8, addend: 0x0, symName: __ZNSt3__112basic_stringIcNS_11char_traitsIcEENS_9allocatorIcEEE15__make_iteratorB8ue170006EPc, symObjAddr: 0x3AC4, symBinAddr: 0x10000712C, symSize: 0x30 }
  - { offsetInCU: 0x29319, offset: 0x29319, size: 0x8, addend: 0x0, symName: __ZNSt3__112basic_stringIcNS_11char_traitsIcEENS_9allocatorIcEEE13__get_pointerB8ue170006Ev, symObjAddr: 0x3AF4, symBinAddr: 0x10000715C, symSize: 0x54 }
  - { offsetInCU: 0x2933F, offset: 0x2933F, size: 0x8, addend: 0x0, symName: __ZNSt3__111__wrap_iterIPcEC1B8ue170006ES1_, symObjAddr: 0x3B48, symBinAddr: 0x1000071B0, symSize: 0x34 }
  - { offsetInCU: 0x29377, offset: 0x29377, size: 0x8, addend: 0x0, symName: __ZNSt3__111__wrap_iterIPcEC2B8ue170006ES1_, symObjAddr: 0x3B7C, symBinAddr: 0x1000071E4, symSize: 0x20 }
  - { offsetInCU: 0x293AF, offset: 0x293AF, size: 0x8, addend: 0x0, symName: __ZNKSt3__112basic_stringIcNS_11char_traitsIcEENS_9allocatorIcEEE9__is_longB8ue170006Ev, symObjAddr: 0x3B9C, symBinAddr: 0x100007204, symSize: 0x38 }
  - { offsetInCU: 0x293D5, offset: 0x293D5, size: 0x8, addend: 0x0, symName: __ZNSt3__112basic_stringIcNS_11char_traitsIcEENS_9allocatorIcEEE18__get_long_pointerB8ue170006Ev, symObjAddr: 0x3BD4, symBinAddr: 0x10000723C, symSize: 0x28 }
  - { offsetInCU: 0x293FB, offset: 0x293FB, size: 0x8, addend: 0x0, symName: __ZNSt3__112basic_stringIcNS_11char_traitsIcEENS_9allocatorIcEEE19__get_short_pointerB8ue170006Ev, symObjAddr: 0x3BFC, symBinAddr: 0x100007264, symSize: 0x28 }
  - { offsetInCU: 0x29421, offset: 0x29421, size: 0x8, addend: 0x0, symName: __ZNKSt3__117__compressed_pairINS_12basic_stringIcNS_11char_traitsIcEENS_9allocatorIcEEE5__repES5_E5firstB8ue170006Ev, symObjAddr: 0x3C24, symBinAddr: 0x10000728C, symSize: 0x24 }
  - { offsetInCU: 0x29447, offset: 0x29447, size: 0x8, addend: 0x0, symName: __ZNKSt3__122__compressed_pair_elemINS_12basic_stringIcNS_11char_traitsIcEENS_9allocatorIcEEE5__repELi0ELb0EE5__getB8ue170006Ev, symObjAddr: 0x3C48, symBinAddr: 0x1000072B0, symSize: 0x14 }
  - { offsetInCU: 0x2946D, offset: 0x2946D, size: 0x8, addend: 0x0, symName: __ZNSt3__114pointer_traitsIPcE10pointer_toB8ue170006ERc, symObjAddr: 0x3C5C, symBinAddr: 0x1000072C4, symSize: 0x14 }
  - { offsetInCU: 0x29490, offset: 0x29490, size: 0x8, addend: 0x0, symName: __ZNKSt3__111__wrap_iterIPcE4baseB8ue170006Ev, symObjAddr: 0x3CB8, symBinAddr: 0x100007320, symSize: 0x18 }
  - { offsetInCU: 0x294D7, offset: 0x294D7, size: 0x8, addend: 0x0, symName: __ZNKSt3__113basic_ostreamIcNS_11char_traitsIcEEE6sentrycvbB8ue170006Ev, symObjAddr: 0x3EBC, symBinAddr: 0x100007524, symSize: 0x1C }
  - { offsetInCU: 0x294FD, offset: 0x294FD, size: 0x8, addend: 0x0, symName: __ZNSt3__119ostreambuf_iteratorIcNS_11char_traitsIcEEEC1B8ue170006ERNS_13basic_ostreamIcS2_EE, symObjAddr: 0x4118, symBinAddr: 0x100007780, symSize: 0x34 }
  - { offsetInCU: 0x29535, offset: 0x29535, size: 0x8, addend: 0x0, symName: __ZNKSt3__18ios_base5flagsB8ue170006Ev, symObjAddr: 0x414C, symBinAddr: 0x1000077B4, symSize: 0x18 }
  - { offsetInCU: 0x2955D, offset: 0x2955D, size: 0x8, addend: 0x0, symName: __ZNKSt3__19basic_iosIcNS_11char_traitsIcEEE4fillB8ue170006Ev, symObjAddr: 0x4164, symBinAddr: 0x1000077CC, symSize: 0x64 }
  - { offsetInCU: 0x29585, offset: 0x29585, size: 0x8, addend: 0x0, symName: __ZNKSt3__119ostreambuf_iteratorIcNS_11char_traitsIcEEE6failedB8ue170006Ev, symObjAddr: 0x41C8, symBinAddr: 0x100007830, symSize: 0x24 }
  - { offsetInCU: 0x295AB, offset: 0x295AB, size: 0x8, addend: 0x0, symName: __ZNSt3__19basic_iosIcNS_11char_traitsIcEEE8setstateB8ue170006Ej, symObjAddr: 0x41EC, symBinAddr: 0x100007854, symSize: 0x2C }
  - { offsetInCU: 0x295E0, offset: 0x295E0, size: 0x8, addend: 0x0, symName: __ZNKSt3__18ios_base5widthB8ue170006Ev, symObjAddr: 0x4218, symBinAddr: 0x100007880, symSize: 0x18 }
  - { offsetInCU: 0x29608, offset: 0x29608, size: 0x8, addend: 0x0, symName: __ZNSt3__115basic_streambufIcNS_11char_traitsIcEEE5sputnB8ue170006EPKcl, symObjAddr: 0x4230, symBinAddr: 0x100007898, symSize: 0x3C }
  - { offsetInCU: 0x2964A, offset: 0x2964A, size: 0x8, addend: 0x0, symName: __ZNSt3__112basic_stringIcNS_11char_traitsIcEENS_9allocatorIcEEEC1B8ue170006Emc, symObjAddr: 0x426C, symBinAddr: 0x1000078D4, symSize: 0x3C }
  - { offsetInCU: 0x29692, offset: 0x29692, size: 0x8, addend: 0x0, symName: __ZNSt3__112basic_stringIcNS_11char_traitsIcEENS_9allocatorIcEEE4dataB8ue170006Ev, symObjAddr: 0x42A8, symBinAddr: 0x100007910, symSize: 0x28 }
  - { offsetInCU: 0x296B8, offset: 0x296B8, size: 0x8, addend: 0x0, symName: __ZNSt3__18ios_base5widthB8ue170006El, symObjAddr: 0x42D0, symBinAddr: 0x100007938, symSize: 0x2C }
  - { offsetInCU: 0x296FE, offset: 0x296FE, size: 0x8, addend: 0x0, symName: __ZNSt3__112basic_stringIcNS_11char_traitsIcEENS_9allocatorIcEEEC2B8ue170006Emc, symObjAddr: 0x42FC, symBinAddr: 0x100007964, symSize: 0x4C }
  - { offsetInCU: 0x29746, offset: 0x29746, size: 0x8, addend: 0x0, symName: __ZNSt3__119ostreambuf_iteratorIcNS_11char_traitsIcEEEC2B8ue170006ERNS_13basic_ostreamIcS2_EE, symObjAddr: 0x4348, symBinAddr: 0x1000079B0, symSize: 0x54 }
  - { offsetInCU: 0x2977E, offset: 0x2977E, size: 0x8, addend: 0x0, symName: __ZNKSt3__19basic_iosIcNS_11char_traitsIcEEE5rdbufB8ue170006Ev, symObjAddr: 0x439C, symBinAddr: 0x100007A04, symSize: 0x24 }
  - { offsetInCU: 0x297A6, offset: 0x297A6, size: 0x8, addend: 0x0, symName: __ZNKSt3__18ios_base5rdbufB8ue170006Ev, symObjAddr: 0x43C0, symBinAddr: 0x100007A28, symSize: 0x18 }
  - { offsetInCU: 0x297CC, offset: 0x297CC, size: 0x8, addend: 0x0, symName: __ZNSt3__111char_traitsIcE11eq_int_typeB8ue170006Eii, symObjAddr: 0x43D8, symBinAddr: 0x100007A40, symSize: 0x28 }
  - { offsetInCU: 0x297FF, offset: 0x297FF, size: 0x8, addend: 0x0, symName: __ZNSt3__111char_traitsIcE3eofB8ue170006Ev, symObjAddr: 0x4400, symBinAddr: 0x100007A68, symSize: 0x8 }
  - { offsetInCU: 0x29813, offset: 0x29813, size: 0x8, addend: 0x0, symName: __ZNKSt3__19basic_iosIcNS_11char_traitsIcEEE5widenB8ue170006Ec, symObjAddr: 0x4408, symBinAddr: 0x100007A70, symSize: 0x84 }
  - { offsetInCU: 0x29881, offset: 0x29881, size: 0x8, addend: 0x0, symName: __ZNKSt3__15ctypeIcE5widenB8ue170006Ec, symObjAddr: 0x44B8, symBinAddr: 0x100007B20, symSize: 0x38 }
  - { offsetInCU: 0x298B6, offset: 0x298B6, size: 0x8, addend: 0x0, symName: __ZNSt3__18ios_base8setstateB8ue170006Ej, symObjAddr: 0x44F0, symBinAddr: 0x100007B58, symSize: 0x34 }
  - { offsetInCU: 0x298ED, offset: 0x298ED, size: 0x8, addend: 0x0, symName: __ZNSt3__112basic_stringIcNS_11char_traitsIcEENS_9allocatorIcEEE13__move_assignB8ue170006ERS5_NS_17integral_constantIbLb1EEE, symObjAddr: 0x4524, symBinAddr: 0x100007B8C, symSize: 0xC8 }
  - { offsetInCU: 0x29930, offset: 0x29930, size: 0x8, addend: 0x0, symName: __ZNSt3__116allocator_traitsINS_9allocatorIcEEE10deallocateB8ue170006ERS2_Pcm, symObjAddr: 0x45EC, symBinAddr: 0x100007C54, symSize: 0x34 }
  - { offsetInCU: 0x29972, offset: 0x29972, size: 0x8, addend: 0x0, symName: __ZNSt3__112basic_stringIcNS_11char_traitsIcEENS_9allocatorIcEEE7__allocB8ue170006Ev, symObjAddr: 0x4620, symBinAddr: 0x100007C88, symSize: 0x24 }
  - { offsetInCU: 0x29998, offset: 0x29998, size: 0x8, addend: 0x0, symName: __ZNKSt3__112basic_stringIcNS_11char_traitsIcEENS_9allocatorIcEEE14__get_long_capB8ue170006Ev, symObjAddr: 0x4644, symBinAddr: 0x100007CAC, symSize: 0x30 }
  - { offsetInCU: 0x299BE, offset: 0x299BE, size: 0x8, addend: 0x0, symName: __ZNSt3__112basic_stringIcNS_11char_traitsIcEENS_9allocatorIcEEE19__move_assign_allocB8ue170006ERS5_, symObjAddr: 0x4674, symBinAddr: 0x100007CDC, symSize: 0x2C }
  - { offsetInCU: 0x299F3, offset: 0x299F3, size: 0x8, addend: 0x0, symName: __ZNSt3__112basic_stringIcNS_11char_traitsIcEENS_9allocatorIcEEE16__set_short_sizeB8ue170006Em, symObjAddr: 0x46A0, symBinAddr: 0x100007D08, symSize: 0x78 }
  - { offsetInCU: 0x29A28, offset: 0x29A28, size: 0x8, addend: 0x0, symName: __ZNSt3__111char_traitsIcE6assignB8ue170006ERcRKc, symObjAddr: 0x4718, symBinAddr: 0x100007D80, symSize: 0x24 }
  - { offsetInCU: 0x29A59, offset: 0x29A59, size: 0x8, addend: 0x0, symName: __ZNSt3__19allocatorIcE10deallocateB8ue170006EPcm, symObjAddr: 0x473C, symBinAddr: 0x100007DA4, symSize: 0x40 }
  - { offsetInCU: 0x29A9B, offset: 0x29A9B, size: 0x8, addend: 0x0, symName: __ZNSt3__117__compressed_pairINS_12basic_stringIcNS_11char_traitsIcEENS_9allocatorIcEEE5__repES5_E6secondB8ue170006Ev, symObjAddr: 0x48A4, symBinAddr: 0x100007F0C, symSize: 0x24 }
  - { offsetInCU: 0x29AC1, offset: 0x29AC1, size: 0x8, addend: 0x0, symName: __ZNSt3__122__compressed_pair_elemINS_9allocatorIcEELi1ELb1EE5__getB8ue170006Ev, symObjAddr: 0x48C8, symBinAddr: 0x100007F30, symSize: 0x14 }
  - { offsetInCU: 0x29AE7, offset: 0x29AE7, size: 0x8, addend: 0x0, symName: __ZNSt3__112basic_stringIcNS_11char_traitsIcEENS_9allocatorIcEEE19__move_assign_allocB8ue170006ERS5_NS_17integral_constantIbLb1EEE, symObjAddr: 0x48DC, symBinAddr: 0x100007F44, symSize: 0x38 }
  - { offsetInCU: 0x29B28, offset: 0x29B28, size: 0x8, addend: 0x0, symName: __ZNSt3__111char_traitsIcE6lengthB8ue170006EPKc, symObjAddr: 0x4914, symBinAddr: 0x100007F7C, symSize: 0x34 }
  - { offsetInCU: 0x29B4B, offset: 0x29B4B, size: 0x8, addend: 0x0, symName: __ZNSt3__16vectorI5TokenNS_9allocatorIS1_EEE9__end_capB8ue170006Ev, symObjAddr: 0x496C, symBinAddr: 0x100007FD4, symSize: 0x28 }
  - { offsetInCU: 0x29B71, offset: 0x29B71, size: 0x8, addend: 0x0, symName: __ZNSt3__16vectorI5TokenNS_9allocatorIS1_EEE22__construct_one_at_endB8ue170006IJNS1_9TokenTypeERA8_KcRiEEEvDpOT_, symObjAddr: 0x4994, symBinAddr: 0x100007FFC, symSize: 0xA0 }
  - { offsetInCU: 0x29BE8, offset: 0x29BE8, size: 0x8, addend: 0x0, symName: __ZNSt3__16vectorI5TokenNS_9allocatorIS1_EEE24__emplace_back_slow_pathIJNS1_9TokenTypeERA8_KcRiEEEvDpOT_, symObjAddr: 0x4A34, symBinAddr: 0x10000809C, symSize: 0xE8 }
  - { offsetInCU: 0x29C70, offset: 0x29C70, size: 0x8, addend: 0x0, symName: __ZNSt3__16vectorI5TokenNS_9allocatorIS1_EEE4backB8ue170006Ev, symObjAddr: 0x4B1C, symBinAddr: 0x100008184, symSize: 0x1C }
  - { offsetInCU: 0x29C96, offset: 0x29C96, size: 0x8, addend: 0x0, symName: __ZNSt3__117__compressed_pairIP5TokenNS_9allocatorIS1_EEE5firstB8ue170006Ev, symObjAddr: 0x4B38, symBinAddr: 0x1000081A0, symSize: 0x24 }
  - { offsetInCU: 0x29CBC, offset: 0x29CBC, size: 0x8, addend: 0x0, symName: __ZNSt3__122__compressed_pair_elemIP5TokenLi0ELb0EE5__getB8ue170006Ev, symObjAddr: 0x4B5C, symBinAddr: 0x1000081C4, symSize: 0x14 }
  - { offsetInCU: 0x29CFD, offset: 0x29CFD, size: 0x8, addend: 0x0, symName: __ZNSt3__16vectorI5TokenNS_9allocatorIS1_EEE21_ConstructTransactionC1B8ue170006ERS4_m, symObjAddr: 0x4B70, symBinAddr: 0x1000081D8, symSize: 0x3C }
  - { offsetInCU: 0x29D45, offset: 0x29D45, size: 0x8, addend: 0x0, symName: __ZNSt3__116allocator_traitsINS_9allocatorI5TokenEEE9constructB8ue170006IS2_JNS2_9TokenTypeERA8_KcRiEvEEvRS3_PT_DpOT0_, symObjAddr: 0x4BAC, symBinAddr: 0x100008214, symSize: 0x44 }
  - { offsetInCU: 0x29DC4, offset: 0x29DC4, size: 0x8, addend: 0x0, symName: __ZNSt3__16vectorI5TokenNS_9allocatorIS1_EEE7__allocB8ue170006Ev, symObjAddr: 0x4BF0, symBinAddr: 0x100008258, symSize: 0x28 }
  - { offsetInCU: 0x29DEA, offset: 0x29DEA, size: 0x8, addend: 0x0, symName: __ZNSt3__16vectorI5TokenNS_9allocatorIS1_EEE21_ConstructTransactionD1B8ue170006Ev, symObjAddr: 0x4C2C, symBinAddr: 0x100008294, symSize: 0x2C }
  - { offsetInCU: 0x29E14, offset: 0x29E14, size: 0x8, addend: 0x0, symName: __ZNSt3__16vectorI5TokenNS_9allocatorIS1_EEE21_ConstructTransactionC2B8ue170006ERS4_m, symObjAddr: 0x4C58, symBinAddr: 0x1000082C0, symSize: 0x4C }
  - { offsetInCU: 0x29E5C, offset: 0x29E5C, size: 0x8, addend: 0x0, symName: __ZNSt3__19allocatorI5TokenE9constructB8ue170006IS1_JNS1_9TokenTypeERA8_KcRiEEEvPT_DpOT0_, symObjAddr: 0x4CA4, symBinAddr: 0x10000830C, symSize: 0x94 }
  - { offsetInCU: 0x29ED8, offset: 0x29ED8, size: 0x8, addend: 0x0, symName: __ZN5TokenC1ENS_9TokenTypeENSt3__112basic_stringIcNS1_11char_traitsIcEENS1_9allocatorIcEEEEi, symObjAddr: 0x4D38, symBinAddr: 0x1000083A0, symSize: 0x44 }
  - { offsetInCU: 0x29F2D, offset: 0x29F2D, size: 0x8, addend: 0x0, symName: __ZN5TokenC2ENS_9TokenTypeENSt3__112basic_stringIcNS1_11char_traitsIcEENS1_9allocatorIcEEEEi, symObjAddr: 0x4D7C, symBinAddr: 0x1000083E4, symSize: 0x4E0 }
  - { offsetInCU: 0x29F86, offset: 0x29F86, size: 0x8, addend: 0x0, symName: __ZNSt3__14pairIKN5Token9TokenTypeENS_12basic_stringIcNS_11char_traitsIcEENS_9allocatorIcEEEEEC1B8ue170006IS2_RA6_KcLPv0EEEOT_OT0_, symObjAddr: 0x525C, symBinAddr: 0x1000088C4, symSize: 0x3C }
  - { offsetInCU: 0x29FFD, offset: 0x29FFD, size: 0x8, addend: 0x0, symName: __ZNSt3__14pairIKN5Token9TokenTypeENS_12basic_stringIcNS_11char_traitsIcEENS_9allocatorIcEEEEEC1B8ue170006IS2_RA7_KcLPv0EEEOT_OT0_, symObjAddr: 0x5298, symBinAddr: 0x100008900, symSize: 0x3C }
  - { offsetInCU: 0x2A074, offset: 0x2A074, size: 0x8, addend: 0x0, symName: __ZNSt3__14pairIKN5Token9TokenTypeENS_12basic_stringIcNS_11char_traitsIcEENS_9allocatorIcEEEEEC1B8ue170006IS2_RA11_KcLPv0EEEOT_OT0_, symObjAddr: 0x52D4, symBinAddr: 0x10000893C, symSize: 0x3C }
  - { offsetInCU: 0x2A0EB, offset: 0x2A0EB, size: 0x8, addend: 0x0, symName: __ZNSt3__14pairIKN5Token9TokenTypeENS_12basic_stringIcNS_11char_traitsIcEENS_9allocatorIcEEEEEC1B8ue170006IS2_RA12_KcLPv0EEEOT_OT0_, symObjAddr: 0x5310, symBinAddr: 0x100008978, symSize: 0x3C }
  - { offsetInCU: 0x2A162, offset: 0x2A162, size: 0x8, addend: 0x0, symName: __ZNSt3__14pairIKN5Token9TokenTypeENS_12basic_stringIcNS_11char_traitsIcEENS_9allocatorIcEEEEEC1B8ue170006IS2_RA9_KcLPv0EEEOT_OT0_, symObjAddr: 0x534C, symBinAddr: 0x1000089B4, symSize: 0x3C }
  - { offsetInCU: 0x2A1D9, offset: 0x2A1D9, size: 0x8, addend: 0x0, symName: __ZNSt3__14pairIKN5Token9TokenTypeENS_12basic_stringIcNS_11char_traitsIcEENS_9allocatorIcEEEEEC1B8ue170006IS2_RA4_KcLPv0EEEOT_OT0_, symObjAddr: 0x5388, symBinAddr: 0x1000089F0, symSize: 0x3C }
  - { offsetInCU: 0x2A237, offset: 0x2A237, size: 0x8, addend: 0x0, symName: __ZNSt3__14pairIKN5Token9TokenTypeENS_12basic_stringIcNS_11char_traitsIcEENS_9allocatorIcEEEEEC1B8ue170006IS2_RA8_KcLPv0EEEOT_OT0_, symObjAddr: 0x53C4, symBinAddr: 0x100008A2C, symSize: 0x3C }
  - { offsetInCU: 0x2A2AE, offset: 0x2A2AE, size: 0x8, addend: 0x0, symName: __ZNSt3__14pairIKN5Token9TokenTypeENS_12basic_stringIcNS_11char_traitsIcEENS_9allocatorIcEEEEEC1B8ue170006IS2_RA3_KcLPv0EEEOT_OT0_, symObjAddr: 0x5400, symBinAddr: 0x100008A68, symSize: 0x3C }
  - { offsetInCU: 0x2A325, offset: 0x2A325, size: 0x8, addend: 0x0, symName: __ZNSt3__14pairIKN5Token9TokenTypeENS_12basic_stringIcNS_11char_traitsIcEENS_9allocatorIcEEEEEC1B8ue170006IS2_RA10_KcLPv0EEEOT_OT0_, symObjAddr: 0x543C, symBinAddr: 0x100008AA4, symSize: 0x3C }
  - { offsetInCU: 0x2A383, offset: 0x2A383, size: 0x8, addend: 0x0, symName: __ZNSt3__14pairIKN5Token9TokenTypeENS_12basic_stringIcNS_11char_traitsIcEENS_9allocatorIcEEEEED1Ev, symObjAddr: 0x5478, symBinAddr: 0x100008AE0, symSize: 0x2C }
  - { offsetInCU: 0x2A3AF, offset: 0x2A3AF, size: 0x8, addend: 0x0, symName: __ZNSt3__113unordered_mapIN5Token9TokenTypeENS_12basic_stringIcNS_11char_traitsIcEENS_9allocatorIcEEEENS_4hashIS2_EENS_8equal_toIS2_EENS6_INS_4pairIKS2_S8_EEEEEC1ESt16initializer_listISF_E, symObjAddr: 0x54A4, symBinAddr: 0x100008B0C, symSize: 0x3C }
  - { offsetInCU: 0x2A3EA, offset: 0x2A3EA, size: 0x8, addend: 0x0, symName: __ZNSt3__113unordered_mapIN5Token9TokenTypeENS_12basic_stringIcNS_11char_traitsIcEENS_9allocatorIcEEEENS_4hashIS2_EENS_8equal_toIS2_EENS6_INS_4pairIKS2_S8_EEEEED1B8ue170006Ev, symObjAddr: 0x54E0, symBinAddr: 0x100008B48, symSize: 0x2C }
  - { offsetInCU: 0x2A414, offset: 0x2A414, size: 0x8, addend: 0x0, symName: __ZNSt3__14pairIKN5Token9TokenTypeENS_12basic_stringIcNS_11char_traitsIcEENS_9allocatorIcEEEEEC2B8ue170006IS2_RA6_KcLPv0EEEOT_OT0_, symObjAddr: 0x550C, symBinAddr: 0x100008B74, symSize: 0x48 }
  - { offsetInCU: 0x2A472, offset: 0x2A472, size: 0x8, addend: 0x0, symName: __ZNSt3__14pairIKN5Token9TokenTypeENS_12basic_stringIcNS_11char_traitsIcEENS_9allocatorIcEEEEEC2B8ue170006IS2_RA7_KcLPv0EEEOT_OT0_, symObjAddr: 0x5554, symBinAddr: 0x100008BBC, symSize: 0x48 }
  - { offsetInCU: 0x2A4D0, offset: 0x2A4D0, size: 0x8, addend: 0x0, symName: __ZNSt3__14pairIKN5Token9TokenTypeENS_12basic_stringIcNS_11char_traitsIcEENS_9allocatorIcEEEEEC2B8ue170006IS2_RA11_KcLPv0EEEOT_OT0_, symObjAddr: 0x559C, symBinAddr: 0x100008C04, symSize: 0x48 }
  - { offsetInCU: 0x2A52E, offset: 0x2A52E, size: 0x8, addend: 0x0, symName: __ZNSt3__14pairIKN5Token9TokenTypeENS_12basic_stringIcNS_11char_traitsIcEENS_9allocatorIcEEEEEC2B8ue170006IS2_RA12_KcLPv0EEEOT_OT0_, symObjAddr: 0x55E4, symBinAddr: 0x100008C4C, symSize: 0x48 }
  - { offsetInCU: 0x2A58C, offset: 0x2A58C, size: 0x8, addend: 0x0, symName: __ZNSt3__14pairIKN5Token9TokenTypeENS_12basic_stringIcNS_11char_traitsIcEENS_9allocatorIcEEEEEC2B8ue170006IS2_RA9_KcLPv0EEEOT_OT0_, symObjAddr: 0x562C, symBinAddr: 0x100008C94, symSize: 0x48 }
  - { offsetInCU: 0x2A5EA, offset: 0x2A5EA, size: 0x8, addend: 0x0, symName: __ZNSt3__14pairIKN5Token9TokenTypeENS_12basic_stringIcNS_11char_traitsIcEENS_9allocatorIcEEEEEC2B8ue170006IS2_RA4_KcLPv0EEEOT_OT0_, symObjAddr: 0x5674, symBinAddr: 0x100008CDC, symSize: 0x48 }
  - { offsetInCU: 0x2A648, offset: 0x2A648, size: 0x8, addend: 0x0, symName: __ZNSt3__14pairIKN5Token9TokenTypeENS_12basic_stringIcNS_11char_traitsIcEENS_9allocatorIcEEEEEC2B8ue170006IS2_RA8_KcLPv0EEEOT_OT0_, symObjAddr: 0x56BC, symBinAddr: 0x100008D24, symSize: 0x48 }
  - { offsetInCU: 0x2A6A6, offset: 0x2A6A6, size: 0x8, addend: 0x0, symName: __ZNSt3__14pairIKN5Token9TokenTypeENS_12basic_stringIcNS_11char_traitsIcEENS_9allocatorIcEEEEEC2B8ue170006IS2_RA3_KcLPv0EEEOT_OT0_, symObjAddr: 0x5704, symBinAddr: 0x100008D6C, symSize: 0x48 }
  - { offsetInCU: 0x2A704, offset: 0x2A704, size: 0x8, addend: 0x0, symName: __ZNSt3__14pairIKN5Token9TokenTypeENS_12basic_stringIcNS_11char_traitsIcEENS_9allocatorIcEEEEEC2B8ue170006IS2_RA10_KcLPv0EEEOT_OT0_, symObjAddr: 0x574C, symBinAddr: 0x100008DB4, symSize: 0x48 }
  - { offsetInCU: 0x2A762, offset: 0x2A762, size: 0x8, addend: 0x0, symName: __ZNSt3__14pairIKN5Token9TokenTypeENS_12basic_stringIcNS_11char_traitsIcEENS_9allocatorIcEEEEED2Ev, symObjAddr: 0x5794, symBinAddr: 0x100008DFC, symSize: 0x30 }
  - { offsetInCU: 0x2A78E, offset: 0x2A78E, size: 0x8, addend: 0x0, symName: __ZNSt3__113unordered_mapIN5Token9TokenTypeENS_12basic_stringIcNS_11char_traitsIcEENS_9allocatorIcEEEENS_4hashIS2_EENS_8equal_toIS2_EENS6_INS_4pairIKS2_S8_EEEEEC2ESt16initializer_listISF_E, symObjAddr: 0x57C4, symBinAddr: 0x100008E2C, symSize: 0x8C }
  - { offsetInCU: 0x2A7C9, offset: 0x2A7C9, size: 0x8, addend: 0x0, symName: __ZNSt3__112__hash_tableINS_17__hash_value_typeIN5Token9TokenTypeENS_12basic_stringIcNS_11char_traitsIcEENS_9allocatorIcEEEEEENS_22__unordered_map_hasherIS3_SA_NS_4hashIS3_EENS_8equal_toIS3_EELb1EEENS_21__unordered_map_equalIS3_SA_SF_SD_Lb1EEENS7_ISA_EEEC1Ev, symObjAddr: 0x5850, symBinAddr: 0x100008EB8, symSize: 0x2C }
  - { offsetInCU: 0x2A7F5, offset: 0x2A7F5, size: 0x8, addend: 0x0, symName: __ZNSt3__113unordered_mapIN5Token9TokenTypeENS_12basic_stringIcNS_11char_traitsIcEENS_9allocatorIcEEEENS_4hashIS2_EENS_8equal_toIS2_EENS6_INS_4pairIKS2_S8_EEEEE6insertIPKSF_EEvT_SL_, symObjAddr: 0x587C, symBinAddr: 0x100008EE4, symSize: 0x70 }
  - { offsetInCU: 0x2A844, offset: 0x2A844, size: 0x8, addend: 0x0, symName: __ZNKSt16initializer_listINSt3__14pairIKN5Token9TokenTypeENS0_12basic_stringIcNS0_11char_traitsIcEENS0_9allocatorIcEEEEEEE5beginB8ue170006Ev, symObjAddr: 0x58EC, symBinAddr: 0x100008F54, symSize: 0x18 }
  - { offsetInCU: 0x2A86A, offset: 0x2A86A, size: 0x8, addend: 0x0, symName: __ZNKSt16initializer_listINSt3__14pairIKN5Token9TokenTypeENS0_12basic_stringIcNS0_11char_traitsIcEENS0_9allocatorIcEEEEEEE3endB8ue170006Ev, symObjAddr: 0x5904, symBinAddr: 0x100008F6C, symSize: 0x20 }
  - { offsetInCU: 0x2A890, offset: 0x2A890, size: 0x8, addend: 0x0, symName: __ZNSt3__112__hash_tableINS_17__hash_value_typeIN5Token9TokenTypeENS_12basic_stringIcNS_11char_traitsIcEENS_9allocatorIcEEEEEENS_22__unordered_map_hasherIS3_SA_NS_4hashIS3_EENS_8equal_toIS3_EELb1EEENS_21__unordered_map_equalIS3_SA_SF_SD_Lb1EEENS7_ISA_EEED1Ev, symObjAddr: 0x5924, symBinAddr: 0x100008F8C, symSize: 0x2C }
  - { offsetInCU: 0x2A8BC, offset: 0x2A8BC, size: 0x8, addend: 0x0, symName: __ZNSt3__112__hash_tableINS_17__hash_value_typeIN5Token9TokenTypeENS_12basic_stringIcNS_11char_traitsIcEENS_9allocatorIcEEEEEENS_22__unordered_map_hasherIS3_SA_NS_4hashIS3_EENS_8equal_toIS3_EELb1EEENS_21__unordered_map_equalIS3_SA_SF_SD_Lb1EEENS7_ISA_EEEC2Ev, symObjAddr: 0x5950, symBinAddr: 0x100008FB8, symSize: 0x7C }
  - { offsetInCU: 0x2A8E8, offset: 0x2A8E8, size: 0x8, addend: 0x0, symName: __ZNSt3__110unique_ptrIA_PNS_16__hash_node_baseIPNS_11__hash_nodeINS_17__hash_value_typeIN5Token9TokenTypeENS_12basic_stringIcNS_11char_traitsIcEENS_9allocatorIcEEEEEEPvEEEENS_25__bucket_list_deallocatorINS9_ISH_EEEEEC1B8ue170006ILb1EvEEv, symObjAddr: 0x59CC, symBinAddr: 0x100009034, symSize: 0x2C }
  - { offsetInCU: 0x2A91D, offset: 0x2A91D, size: 0x8, addend: 0x0, symName: __ZNSt3__117__compressed_pairINS_16__hash_node_baseIPNS_11__hash_nodeINS_17__hash_value_typeIN5Token9TokenTypeENS_12basic_stringIcNS_11char_traitsIcEENS_9allocatorIcEEEEEEPvEEEENS9_ISE_EEEC1B8ue170006ILb1EvEEv, symObjAddr: 0x59F8, symBinAddr: 0x100009060, symSize: 0x2C }
  - { offsetInCU: 0x2A952, offset: 0x2A952, size: 0x8, addend: 0x0, symName: __ZNSt3__117__compressed_pairImNS_22__unordered_map_hasherIN5Token9TokenTypeENS_17__hash_value_typeIS3_NS_12basic_stringIcNS_11char_traitsIcEENS_9allocatorIcEEEEEENS_4hashIS3_EENS_8equal_toIS3_EELb1EEEEC1B8ue170006IiNS_18__default_init_tagEEEOT_OT0_, symObjAddr: 0x5A24, symBinAddr: 0x10000908C, symSize: 0x3C }
  - { offsetInCU: 0x2A9B0, offset: 0x2A9B0, size: 0x8, addend: 0x0, symName: __ZNSt3__117__compressed_pairIfNS_21__unordered_map_equalIN5Token9TokenTypeENS_17__hash_value_typeIS3_NS_12basic_stringIcNS_11char_traitsIcEENS_9allocatorIcEEEEEENS_8equal_toIS3_EENS_4hashIS3_EELb1EEEEC1B8ue170006IfNS_18__default_init_tagEEEOT_OT0_, symObjAddr: 0x5A60, symBinAddr: 0x1000090C8, symSize: 0x3C }
  - { offsetInCU: 0x2AA08, offset: 0x2AA08, size: 0x8, addend: 0x0, symName: __ZNSt3__110unique_ptrIA_PNS_16__hash_node_baseIPNS_11__hash_nodeINS_17__hash_value_typeIN5Token9TokenTypeENS_12basic_stringIcNS_11char_traitsIcEENS_9allocatorIcEEEEEEPvEEEENS_25__bucket_list_deallocatorINS9_ISH_EEEEEC2B8ue170006ILb1EvEEv, symObjAddr: 0x5A9C, symBinAddr: 0x100009104, symSize: 0x3C }
  - { offsetInCU: 0x2AA43, offset: 0x2AA43, size: 0x8, addend: 0x0, symName: __ZNSt3__117__compressed_pairIPPNS_16__hash_node_baseIPNS_11__hash_nodeINS_17__hash_value_typeIN5Token9TokenTypeENS_12basic_stringIcNS_11char_traitsIcEENS_9allocatorIcEEEEEEPvEEEENS_25__bucket_list_deallocatorINS9_ISH_EEEEEC1B8ue170006INS_16__value_init_tagESO_EEOT_OT0_, symObjAddr: 0x5AD8, symBinAddr: 0x100009140, symSize: 0x3C }
  - { offsetInCU: 0x2AA9B, offset: 0x2AA9B, size: 0x8, addend: 0x0, symName: __ZNSt3__117__compressed_pairIPPNS_16__hash_node_baseIPNS_11__hash_nodeINS_17__hash_value_typeIN5Token9TokenTypeENS_12basic_stringIcNS_11char_traitsIcEENS_9allocatorIcEEEEEEPvEEEENS_25__bucket_list_deallocatorINS9_ISH_EEEEEC2B8ue170006INS_16__value_init_tagESO_EEOT_OT0_, symObjAddr: 0x5B14, symBinAddr: 0x10000917C, symSize: 0x40 }
  - { offsetInCU: 0x2AAF3, offset: 0x2AAF3, size: 0x8, addend: 0x0, symName: __ZNSt3__122__compressed_pair_elemIPPNS_16__hash_node_baseIPNS_11__hash_nodeINS_17__hash_value_typeIN5Token9TokenTypeENS_12basic_stringIcNS_11char_traitsIcEENS_9allocatorIcEEEEEEPvEEEELi0ELb0EEC2B8ue170006ENS_16__value_init_tagE, symObjAddr: 0x5B54, symBinAddr: 0x1000091BC, symSize: 0x18 }
  - { offsetInCU: 0x2AB28, offset: 0x2AB28, size: 0x8, addend: 0x0, symName: __ZNSt3__122__compressed_pair_elemINS_25__bucket_list_deallocatorINS_9allocatorIPNS_16__hash_node_baseIPNS_11__hash_nodeINS_17__hash_value_typeIN5Token9TokenTypeENS_12basic_stringIcNS_11char_traitsIcEENS2_IcEEEEEEPvEEEEEEEELi1ELb0EEC2B8ue170006ENS_16__value_init_tagE, symObjAddr: 0x5B6C, symBinAddr: 0x1000091D4, symSize: 0x2C }
  - { offsetInCU: 0x2AB5D, offset: 0x2AB5D, size: 0x8, addend: 0x0, symName: __ZNSt3__125__bucket_list_deallocatorINS_9allocatorIPNS_16__hash_node_baseIPNS_11__hash_nodeINS_17__hash_value_typeIN5Token9TokenTypeENS_12basic_stringIcNS_11char_traitsIcEENS1_IcEEEEEEPvEEEEEEEC1B8ue170006Ev, symObjAddr: 0x5B98, symBinAddr: 0x100009200, symSize: 0x2C }
  - { offsetInCU: 0x2AB87, offset: 0x2AB87, size: 0x8, addend: 0x0, symName: __ZNSt3__125__bucket_list_deallocatorINS_9allocatorIPNS_16__hash_node_baseIPNS_11__hash_nodeINS_17__hash_value_typeIN5Token9TokenTypeENS_12basic_stringIcNS_11char_traitsIcEENS1_IcEEEEEEPvEEEEEEEC2B8ue170006Ev, symObjAddr: 0x5BC4, symBinAddr: 0x10000922C, symSize: 0x40 }
  - { offsetInCU: 0x2ABB1, offset: 0x2ABB1, size: 0x8, addend: 0x0, symName: __ZNSt3__117__compressed_pairImNS_9allocatorIPNS_16__hash_node_baseIPNS_11__hash_nodeINS_17__hash_value_typeIN5Token9TokenTypeENS_12basic_stringIcNS_11char_traitsIcEENS1_IcEEEEEEPvEEEEEEEC1B8ue170006IiNS_18__default_init_tagEEEOT_OT0_, symObjAddr: 0x5C04, symBinAddr: 0x10000926C, symSize: 0x3C }
  - { offsetInCU: 0x2AC09, offset: 0x2AC09, size: 0x8, addend: 0x0, symName: __ZNSt3__117__compressed_pairImNS_9allocatorIPNS_16__hash_node_baseIPNS_11__hash_nodeINS_17__hash_value_typeIN5Token9TokenTypeENS_12basic_stringIcNS_11char_traitsIcEENS1_IcEEEEEEPvEEEEEEEC2B8ue170006IiNS_18__default_init_tagEEEOT_OT0_, symObjAddr: 0x5C40, symBinAddr: 0x1000092A8, symSize: 0x40 }
  - { offsetInCU: 0x2AC61, offset: 0x2AC61, size: 0x8, addend: 0x0, symName: __ZNSt3__122__compressed_pair_elemINS_9allocatorIPNS_16__hash_node_baseIPNS_11__hash_nodeINS_17__hash_value_typeIN5Token9TokenTypeENS_12basic_stringIcNS_11char_traitsIcEENS1_IcEEEEEEPvEEEEEELi1ELb1EEC2B8ue170006ENS_18__default_init_tagE, symObjAddr: 0x5C80, symBinAddr: 0x1000092E8, symSize: 0x2C }
  - { offsetInCU: 0x2AC96, offset: 0x2AC96, size: 0x8, addend: 0x0, symName: __ZNSt3__19allocatorIPNS_16__hash_node_baseIPNS_11__hash_nodeINS_17__hash_value_typeIN5Token9TokenTypeENS_12basic_stringIcNS_11char_traitsIcEENS0_IcEEEEEEPvEEEEEC2B8ue170006Ev, symObjAddr: 0x5CAC, symBinAddr: 0x100009314, symSize: 0x2C }
  - { offsetInCU: 0x2ACC0, offset: 0x2ACC0, size: 0x8, addend: 0x0, symName: __ZNSt3__116__non_trivial_ifILb1ENS_9allocatorIPNS_16__hash_node_baseIPNS_11__hash_nodeINS_17__hash_value_typeIN5Token9TokenTypeENS_12basic_stringIcNS_11char_traitsIcEENS1_IcEEEEEEPvEEEEEEEC2B8ue170006Ev, symObjAddr: 0x5CD8, symBinAddr: 0x100009340, symSize: 0x14 }
  - { offsetInCU: 0x2ACEA, offset: 0x2ACEA, size: 0x8, addend: 0x0, symName: __ZNSt3__117__compressed_pairINS_16__hash_node_baseIPNS_11__hash_nodeINS_17__hash_value_typeIN5Token9TokenTypeENS_12basic_stringIcNS_11char_traitsIcEENS_9allocatorIcEEEEEEPvEEEENS9_ISE_EEEC2B8ue170006ILb1EvEEv, symObjAddr: 0x5CEC, symBinAddr: 0x100009354, symSize: 0x34 }
  - { offsetInCU: 0x2AD1F, offset: 0x2AD1F, size: 0x8, addend: 0x0, symName: __ZNSt3__122__compressed_pair_elemINS_16__hash_node_baseIPNS_11__hash_nodeINS_17__hash_value_typeIN5Token9TokenTypeENS_12basic_stringIcNS_11char_traitsIcEENS_9allocatorIcEEEEEEPvEEEELi0ELb0EEC2B8ue170006ENS_16__value_init_tagE, symObjAddr: 0x5D20, symBinAddr: 0x100009388, symSize: 0x2C }
  - { offsetInCU: 0x2AD54, offset: 0x2AD54, size: 0x8, addend: 0x0, symName: __ZNSt3__122__compressed_pair_elemINS_9allocatorINS_11__hash_nodeINS_17__hash_value_typeIN5Token9TokenTypeENS_12basic_stringIcNS_11char_traitsIcEENS1_IcEEEEEEPvEEEELi1ELb1EEC2B8ue170006ENS_16__value_init_tagE, symObjAddr: 0x5D4C, symBinAddr: 0x1000093B4, symSize: 0x2C }
  - { offsetInCU: 0x2AD89, offset: 0x2AD89, size: 0x8, addend: 0x0, symName: __ZNSt3__116__hash_node_baseIPNS_11__hash_nodeINS_17__hash_value_typeIN5Token9TokenTypeENS_12basic_stringIcNS_11char_traitsIcEENS_9allocatorIcEEEEEEPvEEEC1B8ue170006Ev, symObjAddr: 0x5D78, symBinAddr: 0x1000093E0, symSize: 0x2C }
  - { offsetInCU: 0x2ADB3, offset: 0x2ADB3, size: 0x8, addend: 0x0, symName: __ZNSt3__116__hash_node_baseIPNS_11__hash_nodeINS_17__hash_value_typeIN5Token9TokenTypeENS_12basic_stringIcNS_11char_traitsIcEENS_9allocatorIcEEEEEEPvEEEC2B8ue170006Ev, symObjAddr: 0x5DA4, symBinAddr: 0x10000940C, symSize: 0x18 }
  - { offsetInCU: 0x2ADDD, offset: 0x2ADDD, size: 0x8, addend: 0x0, symName: __ZNSt3__19allocatorINS_11__hash_nodeINS_17__hash_value_typeIN5Token9TokenTypeENS_12basic_stringIcNS_11char_traitsIcEENS0_IcEEEEEEPvEEEC2B8ue170006Ev, symObjAddr: 0x5DBC, symBinAddr: 0x100009424, symSize: 0x2C }
  - { offsetInCU: 0x2AE07, offset: 0x2AE07, size: 0x8, addend: 0x0, symName: __ZNSt3__116__non_trivial_ifILb1ENS_9allocatorINS_11__hash_nodeINS_17__hash_value_typeIN5Token9TokenTypeENS_12basic_stringIcNS_11char_traitsIcEENS1_IcEEEEEEPvEEEEEC2B8ue170006Ev, symObjAddr: 0x5DE8, symBinAddr: 0x100009450, symSize: 0x14 }
  - { offsetInCU: 0x2AE31, offset: 0x2AE31, size: 0x8, addend: 0x0, symName: __ZNSt3__117__compressed_pairImNS_22__unordered_map_hasherIN5Token9TokenTypeENS_17__hash_value_typeIS3_NS_12basic_stringIcNS_11char_traitsIcEENS_9allocatorIcEEEEEENS_4hashIS3_EENS_8equal_toIS3_EELb1EEEEC2B8ue170006IiNS_18__default_init_tagEEEOT_OT0_, symObjAddr: 0x5DFC, symBinAddr: 0x100009464, symSize: 0x40 }
  - { offsetInCU: 0x2AE89, offset: 0x2AE89, size: 0x8, addend: 0x0, symName: __ZNSt3__122__compressed_pair_elemINS_22__unordered_map_hasherIN5Token9TokenTypeENS_17__hash_value_typeIS3_NS_12basic_stringIcNS_11char_traitsIcEENS_9allocatorIcEEEEEENS_4hashIS3_EENS_8equal_toIS3_EELb1EEELi1ELb1EEC2B8ue170006ENS_18__default_init_tagE, symObjAddr: 0x5E3C, symBinAddr: 0x1000094A4, symSize: 0x2C }
  - { offsetInCU: 0x2AEBE, offset: 0x2AEBE, size: 0x8, addend: 0x0, symName: __ZNSt3__122__unordered_map_hasherIN5Token9TokenTypeENS_17__hash_value_typeIS2_NS_12basic_stringIcNS_11char_traitsIcEENS_9allocatorIcEEEEEENS_4hashIS2_EENS_8equal_toIS2_EELb1EEC2B8ue170006Ev, symObjAddr: 0x5E68, symBinAddr: 0x1000094D0, symSize: 0x14 }
  - { offsetInCU: 0x2AEE8, offset: 0x2AEE8, size: 0x8, addend: 0x0, symName: __ZNSt3__117__compressed_pairIfNS_21__unordered_map_equalIN5Token9TokenTypeENS_17__hash_value_typeIS3_NS_12basic_stringIcNS_11char_traitsIcEENS_9allocatorIcEEEEEENS_8equal_toIS3_EENS_4hashIS3_EELb1EEEEC2B8ue170006IfNS_18__default_init_tagEEEOT_OT0_, symObjAddr: 0x5E7C, symBinAddr: 0x1000094E4, symSize: 0x40 }
  - { offsetInCU: 0x2AF40, offset: 0x2AF40, size: 0x8, addend: 0x0, symName: __ZNSt3__122__compressed_pair_elemIfLi0ELb0EEC2B8ue170006IfvEEOT_, symObjAddr: 0x5EBC, symBinAddr: 0x100009524, symSize: 0x24 }
  - { offsetInCU: 0x2AF82, offset: 0x2AF82, size: 0x8, addend: 0x0, symName: __ZNSt3__122__compressed_pair_elemINS_21__unordered_map_equalIN5Token9TokenTypeENS_17__hash_value_typeIS3_NS_12basic_stringIcNS_11char_traitsIcEENS_9allocatorIcEEEEEENS_8equal_toIS3_EENS_4hashIS3_EELb1EEELi1ELb1EEC2B8ue170006ENS_18__default_init_tagE, symObjAddr: 0x5EE0, symBinAddr: 0x100009548, symSize: 0x2C }
  - { offsetInCU: 0x2AFB7, offset: 0x2AFB7, size: 0x8, addend: 0x0, symName: __ZNSt3__121__unordered_map_equalIN5Token9TokenTypeENS_17__hash_value_typeIS2_NS_12basic_stringIcNS_11char_traitsIcEENS_9allocatorIcEEEEEENS_8equal_toIS2_EENS_4hashIS2_EELb1EEC2B8ue170006Ev, symObjAddr: 0x5F0C, symBinAddr: 0x100009574, symSize: 0x14 }
  - { offsetInCU: 0x2AFE1, offset: 0x2AFE1, size: 0x8, addend: 0x0, symName: __ZNSt3__112__hash_tableINS_17__hash_value_typeIN5Token9TokenTypeENS_12basic_stringIcNS_11char_traitsIcEENS_9allocatorIcEEEEEENS_22__unordered_map_hasherIS3_SA_NS_4hashIS3_EENS_8equal_toIS3_EELb1EEENS_21__unordered_map_equalIS3_SA_SF_SD_Lb1EEENS7_ISA_EEE15__insert_uniqueB8ue170006ERKNS_4pairIKS3_S9_EE, symObjAddr: 0x5F20, symBinAddr: 0x100009588, symSize: 0x50 }
  - { offsetInCU: 0x2B016, offset: 0x2B016, size: 0x8, addend: 0x0, symName: __ZNSt3__112__hash_tableINS_17__hash_value_typeIN5Token9TokenTypeENS_12basic_stringIcNS_11char_traitsIcEENS_9allocatorIcEEEEEENS_22__unordered_map_hasherIS3_SA_NS_4hashIS3_EENS_8equal_toIS3_EELb1EEENS_21__unordered_map_equalIS3_SA_SF_SD_Lb1EEENS7_ISA_EEE25__emplace_unique_key_argsIS3_JRKNS_4pairIKS3_S9_EEEEENSM_INS_15__hash_iteratorIPNS_11__hash_nodeISA_PvEEEEbEERKT_DpOT0_, symObjAddr: 0x5F70, symBinAddr: 0x1000095D8, symSize: 0x4D8 }
  - { offsetInCU: 0x2B0F6, offset: 0x2B0F6, size: 0x8, addend: 0x0, symName: __ZNSt3__122__hash_key_value_typesINS_17__hash_value_typeIN5Token9TokenTypeENS_12basic_stringIcNS_11char_traitsIcEENS_9allocatorIcEEEEEEE9__get_keyB8ue170006ERKNS_4pairIKS3_S9_EE, symObjAddr: 0x6448, symBinAddr: 0x100009AB0, symSize: 0x14 }
  - { offsetInCU: 0x2B119, offset: 0x2B119, size: 0x8, addend: 0x0, symName: __ZNSt3__112__hash_tableINS_17__hash_value_typeIN5Token9TokenTypeENS_12basic_stringIcNS_11char_traitsIcEENS_9allocatorIcEEEEEENS_22__unordered_map_hasherIS3_SA_NS_4hashIS3_EENS_8equal_toIS3_EELb1EEENS_21__unordered_map_equalIS3_SA_SF_SD_Lb1EEENS7_ISA_EEE13hash_functionB8ue170006Ev, symObjAddr: 0x645C, symBinAddr: 0x100009AC4, symSize: 0x28 }
  - { offsetInCU: 0x2B13F, offset: 0x2B13F, size: 0x8, addend: 0x0, symName: __ZNKSt3__122__unordered_map_hasherIN5Token9TokenTypeENS_17__hash_value_typeIS2_NS_12basic_stringIcNS_11char_traitsIcEENS_9allocatorIcEEEEEENS_4hashIS2_EENS_8equal_toIS2_EELb1EEclB8ue170006ERKS2_, symObjAddr: 0x6484, symBinAddr: 0x100009AEC, symSize: 0x30 }
  - { offsetInCU: 0x2B174, offset: 0x2B174, size: 0x8, addend: 0x0, symName: __ZNKSt3__112__hash_tableINS_17__hash_value_typeIN5Token9TokenTypeENS_12basic_stringIcNS_11char_traitsIcEENS_9allocatorIcEEEEEENS_22__unordered_map_hasherIS3_SA_NS_4hashIS3_EENS_8equal_toIS3_EELb1EEENS_21__unordered_map_equalIS3_SA_SF_SD_Lb1EEENS7_ISA_EEE12bucket_countB8ue170006Ev, symObjAddr: 0x64B4, symBinAddr: 0x100009B1C, symSize: 0x28 }
  - { offsetInCU: 0x2B19A, offset: 0x2B19A, size: 0x8, addend: 0x0, symName: __ZNKSt3__110unique_ptrIA_PNS_16__hash_node_baseIPNS_11__hash_nodeINS_17__hash_value_typeIN5Token9TokenTypeENS_12basic_stringIcNS_11char_traitsIcEENS_9allocatorIcEEEEEEPvEEEENS_25__bucket_list_deallocatorINS9_ISH_EEEEEixB8ue170006Em, symObjAddr: 0x6574, symBinAddr: 0x100009BDC, symSize: 0x34 }
  - { offsetInCU: 0x2B1CF, offset: 0x2B1CF, size: 0x8, addend: 0x0, symName: __ZNKSt3__116__hash_node_baseIPNS_11__hash_nodeINS_17__hash_value_typeIN5Token9TokenTypeENS_12basic_stringIcNS_11char_traitsIcEENS_9allocatorIcEEEEEEPvEEE6__hashB8ue170006Ev, symObjAddr: 0x65A8, symBinAddr: 0x100009C10, symSize: 0x18 }
  - { offsetInCU: 0x2B1F5, offset: 0x2B1F5, size: 0x8, addend: 0x0, symName: __ZNSt3__112__hash_tableINS_17__hash_value_typeIN5Token9TokenTypeENS_12basic_stringIcNS_11char_traitsIcEENS_9allocatorIcEEEEEENS_22__unordered_map_hasherIS3_SA_NS_4hashIS3_EENS_8equal_toIS3_EELb1EEENS_21__unordered_map_equalIS3_SA_SF_SD_Lb1EEENS7_ISA_EEE6key_eqB8ue170006Ev, symObjAddr: 0x65C0, symBinAddr: 0x100009C28, symSize: 0x28 }
  - { offsetInCU: 0x2B21B, offset: 0x2B21B, size: 0x8, addend: 0x0, symName: __ZNKSt3__121__unordered_map_equalIN5Token9TokenTypeENS_17__hash_value_typeIS2_NS_12basic_stringIcNS_11char_traitsIcEENS_9allocatorIcEEEEEENS_8equal_toIS2_EENS_4hashIS2_EELb1EEclB8ue170006ERKSA_RKS2_, symObjAddr: 0x65E8, symBinAddr: 0x100009C50, symSize: 0x48 }
  - { offsetInCU: 0x2B25F, offset: 0x2B25F, size: 0x8, addend: 0x0, symName: __ZNSt3__116__hash_node_baseIPNS_11__hash_nodeINS_17__hash_value_typeIN5Token9TokenTypeENS_12basic_stringIcNS_11char_traitsIcEENS_9allocatorIcEEEEEEPvEEE8__upcastB8ue170006Ev, symObjAddr: 0x6630, symBinAddr: 0x100009C98, symSize: 0x24 }
  - { offsetInCU: 0x2B285, offset: 0x2B285, size: 0x8, addend: 0x0, symName: __ZNSt3__112__hash_tableINS_17__hash_value_typeIN5Token9TokenTypeENS_12basic_stringIcNS_11char_traitsIcEENS_9allocatorIcEEEEEENS_22__unordered_map_hasherIS3_SA_NS_4hashIS3_EENS_8equal_toIS3_EELb1EEENS_21__unordered_map_equalIS3_SA_SF_SD_Lb1EEENS7_ISA_EEE21__construct_node_hashIRKNS_4pairIKS3_S9_EEJEEENS_10unique_ptrINS_11__hash_nodeISA_PvEENS_22__hash_node_destructorINS7_ISU_EEEEEEmOT_DpOT0_, symObjAddr: 0x6654, symBinAddr: 0x100009CBC, symSize: 0x140 }
  - { offsetInCU: 0x2B2F8, offset: 0x2B2F8, size: 0x8, addend: 0x0, symName: __ZNSt3__112__hash_tableINS_17__hash_value_typeIN5Token9TokenTypeENS_12basic_stringIcNS_11char_traitsIcEENS_9allocatorIcEEEEEENS_22__unordered_map_hasherIS3_SA_NS_4hashIS3_EENS_8equal_toIS3_EELb1EEENS_21__unordered_map_equalIS3_SA_SF_SD_Lb1EEENS7_ISA_EEE4sizeB8ue170006Ev, symObjAddr: 0x6794, symBinAddr: 0x100009DFC, symSize: 0x28 }
  - { offsetInCU: 0x2B31E, offset: 0x2B31E, size: 0x8, addend: 0x0, symName: __ZNSt3__112__hash_tableINS_17__hash_value_typeIN5Token9TokenTypeENS_12basic_stringIcNS_11char_traitsIcEENS_9allocatorIcEEEEEENS_22__unordered_map_hasherIS3_SA_NS_4hashIS3_EENS_8equal_toIS3_EELb1EEENS_21__unordered_map_equalIS3_SA_SF_SD_Lb1EEENS7_ISA_EEE15max_load_factorB8ue170006Ev, symObjAddr: 0x67BC, symBinAddr: 0x100009E24, symSize: 0x28 }
  - { offsetInCU: 0x2B344, offset: 0x2B344, size: 0x8, addend: 0x0, symName: __ZNSt3__112__hash_tableINS_17__hash_value_typeIN5Token9TokenTypeENS_12basic_stringIcNS_11char_traitsIcEENS_9allocatorIcEEEEEENS_22__unordered_map_hasherIS3_SA_NS_4hashIS3_EENS_8equal_toIS3_EELb1EEENS_21__unordered_map_equalIS3_SA_SF_SD_Lb1EEENS7_ISA_EEE15__rehash_uniqueB8ue170006Em, symObjAddr: 0x67E4, symBinAddr: 0x100009E4C, symSize: 0x2C }
  - { offsetInCU: 0x2B378, offset: 0x2B378, size: 0x8, addend: 0x0, symName: __Z4ceilB8ue170006f, symObjAddr: 0x688C, symBinAddr: 0x100009EF4, symSize: 0x18 }
  - { offsetInCU: 0x2B3A7, offset: 0x2B3A7, size: 0x8, addend: 0x0, symName: __ZNSt3__117__compressed_pairINS_16__hash_node_baseIPNS_11__hash_nodeINS_17__hash_value_typeIN5Token9TokenTypeENS_12basic_stringIcNS_11char_traitsIcEENS_9allocatorIcEEEEEEPvEEEENS9_ISE_EEE5firstB8ue170006Ev, symObjAddr: 0x68A4, symBinAddr: 0x100009F0C, symSize: 0x24 }
  - { offsetInCU: 0x2B3CD, offset: 0x2B3CD, size: 0x8, addend: 0x0, symName: __ZNSt3__116__hash_node_baseIPNS_11__hash_nodeINS_17__hash_value_typeIN5Token9TokenTypeENS_12basic_stringIcNS_11char_traitsIcEENS_9allocatorIcEEEEEEPvEEE5__ptrB8ue170006Ev, symObjAddr: 0x68C8, symBinAddr: 0x100009F30, symSize: 0x24 }
  - { offsetInCU: 0x2B3F3, offset: 0x2B3F3, size: 0x8, addend: 0x0, symName: __ZNKSt3__110unique_ptrINS_11__hash_nodeINS_17__hash_value_typeIN5Token9TokenTypeENS_12basic_stringIcNS_11char_traitsIcEENS_9allocatorIcEEEEEEPvEENS_22__hash_node_destructorINS8_ISD_EEEEEptB8ue170006Ev, symObjAddr: 0x68EC, symBinAddr: 0x100009F54, symSize: 0x28 }
  - { offsetInCU: 0x2B419, offset: 0x2B419, size: 0x8, addend: 0x0, symName: __ZNKSt3__110unique_ptrINS_11__hash_nodeINS_17__hash_value_typeIN5Token9TokenTypeENS_12basic_stringIcNS_11char_traitsIcEENS_9allocatorIcEEEEEEPvEENS_22__hash_node_destructorINS8_ISD_EEEEE3getB8ue170006Ev, symObjAddr: 0x6914, symBinAddr: 0x100009F7C, symSize: 0x28 }
  - { offsetInCU: 0x2B43F, offset: 0x2B43F, size: 0x8, addend: 0x0, symName: __ZNSt3__110unique_ptrINS_11__hash_nodeINS_17__hash_value_typeIN5Token9TokenTypeENS_12basic_stringIcNS_11char_traitsIcEENS_9allocatorIcEEEEEEPvEENS_22__hash_node_destructorINS8_ISD_EEEEE7releaseB8ue170006Ev, symObjAddr: 0x693C, symBinAddr: 0x100009FA4, symSize: 0x44 }
  - { offsetInCU: 0x2B474, offset: 0x2B474, size: 0x8, addend: 0x0, symName: __ZNSt3__110unique_ptrINS_11__hash_nodeINS_17__hash_value_typeIN5Token9TokenTypeENS_12basic_stringIcNS_11char_traitsIcEENS_9allocatorIcEEEEEEPvEENS_22__hash_node_destructorINS8_ISD_EEEEED1B8ue170006Ev, symObjAddr: 0x6980, symBinAddr: 0x100009FE8, symSize: 0x2C }
  - { offsetInCU: 0x2B49E, offset: 0x2B49E, size: 0x8, addend: 0x0, symName: __ZNSt3__115__hash_iteratorIPNS_11__hash_nodeINS_17__hash_value_typeIN5Token9TokenTypeENS_12basic_stringIcNS_11char_traitsIcEENS_9allocatorIcEEEEEEPvEEEC1B8ue170006EPNS_16__hash_node_baseISE_EE, symObjAddr: 0x69AC, symBinAddr: 0x10000A014, symSize: 0x34 }
  - { offsetInCU: 0x2B4DD, offset: 0x2B4DD, size: 0x8, addend: 0x0, symName: __ZNSt3__14pairINS_15__hash_iteratorIPNS_11__hash_nodeINS_17__hash_value_typeIN5Token9TokenTypeENS_12basic_stringIcNS_11char_traitsIcEENS_9allocatorIcEEEEEEPvEEEEbEC1B8ue170006ISG_RbLSD_0EEEOT_OT0_, symObjAddr: 0x69E0, symBinAddr: 0x10000A048, symSize: 0x3C }
  - { offsetInCU: 0x2B53B, offset: 0x2B53B, size: 0x8, addend: 0x0, symName: __ZNSt3__117__compressed_pairImNS_22__unordered_map_hasherIN5Token9TokenTypeENS_17__hash_value_typeIS3_NS_12basic_stringIcNS_11char_traitsIcEENS_9allocatorIcEEEEEENS_4hashIS3_EENS_8equal_toIS3_EELb1EEEE6secondB8ue170006Ev, symObjAddr: 0x6A1C, symBinAddr: 0x10000A084, symSize: 0x24 }
  - { offsetInCU: 0x2B561, offset: 0x2B561, size: 0x8, addend: 0x0, symName: __ZNSt3__122__compressed_pair_elemINS_22__unordered_map_hasherIN5Token9TokenTypeENS_17__hash_value_typeIS3_NS_12basic_stringIcNS_11char_traitsIcEENS_9allocatorIcEEEEEENS_4hashIS3_EENS_8equal_toIS3_EELb1EEELi1ELb1EE5__getB8ue170006Ev, symObjAddr: 0x6A40, symBinAddr: 0x10000A0A8, symSize: 0x14 }
  - { offsetInCU: 0x2B591, offset: 0x2B591, size: 0x8, addend: 0x0, symName: __ZNKSt3__14hashIjEclB8ue170006Ej, symObjAddr: 0x6A80, symBinAddr: 0x10000A0E8, symSize: 0x1C }
  - { offsetInCU: 0x2B5C6, offset: 0x2B5C6, size: 0x8, addend: 0x0, symName: __ZNKSt3__110unique_ptrIA_PNS_16__hash_node_baseIPNS_11__hash_nodeINS_17__hash_value_typeIN5Token9TokenTypeENS_12basic_stringIcNS_11char_traitsIcEENS_9allocatorIcEEEEEEPvEEEENS_25__bucket_list_deallocatorINS9_ISH_EEEEE11get_deleterB8ue170006Ev, symObjAddr: 0x6A9C, symBinAddr: 0x10000A104, symSize: 0x24 }
  - { offsetInCU: 0x2B5EC, offset: 0x2B5EC, size: 0x8, addend: 0x0, symName: __ZNKSt3__125__bucket_list_deallocatorINS_9allocatorIPNS_16__hash_node_baseIPNS_11__hash_nodeINS_17__hash_value_typeIN5Token9TokenTypeENS_12basic_stringIcNS_11char_traitsIcEENS1_IcEEEEEEPvEEEEEEE4sizeB8ue170006Ev, symObjAddr: 0x6AC0, symBinAddr: 0x10000A128, symSize: 0x28 }
  - { offsetInCU: 0x2B612, offset: 0x2B612, size: 0x8, addend: 0x0, symName: __ZNKSt3__117__compressed_pairIPPNS_16__hash_node_baseIPNS_11__hash_nodeINS_17__hash_value_typeIN5Token9TokenTypeENS_12basic_stringIcNS_11char_traitsIcEENS_9allocatorIcEEEEEEPvEEEENS_25__bucket_list_deallocatorINS9_ISH_EEEEE6secondB8ue170006Ev, symObjAddr: 0x6AE8, symBinAddr: 0x10000A150, symSize: 0x28 }
  - { offsetInCU: 0x2B638, offset: 0x2B638, size: 0x8, addend: 0x0, symName: __ZNKSt3__122__compressed_pair_elemINS_25__bucket_list_deallocatorINS_9allocatorIPNS_16__hash_node_baseIPNS_11__hash_nodeINS_17__hash_value_typeIN5Token9TokenTypeENS_12basic_stringIcNS_11char_traitsIcEENS2_IcEEEEEEPvEEEEEEEELi1ELb0EE5__getB8ue170006Ev, symObjAddr: 0x6B10, symBinAddr: 0x10000A178, symSize: 0x14 }
  - { offsetInCU: 0x2B65E, offset: 0x2B65E, size: 0x8, addend: 0x0, symName: __ZNKSt3__117__compressed_pairImNS_9allocatorIPNS_16__hash_node_baseIPNS_11__hash_nodeINS_17__hash_value_typeIN5Token9TokenTypeENS_12basic_stringIcNS_11char_traitsIcEENS1_IcEEEEEEPvEEEEEEE5firstB8ue170006Ev, symObjAddr: 0x6B24, symBinAddr: 0x10000A18C, symSize: 0x24 }
  - { offsetInCU: 0x2B684, offset: 0x2B684, size: 0x8, addend: 0x0, symName: __ZNKSt3__117__compressed_pairIPPNS_16__hash_node_baseIPNS_11__hash_nodeINS_17__hash_value_typeIN5Token9TokenTypeENS_12basic_stringIcNS_11char_traitsIcEENS_9allocatorIcEEEEEEPvEEEENS_25__bucket_list_deallocatorINS9_ISH_EEEEE5firstB8ue170006Ev, symObjAddr: 0x6B48, symBinAddr: 0x10000A1B0, symSize: 0x24 }
  - { offsetInCU: 0x2B6AA, offset: 0x2B6AA, size: 0x8, addend: 0x0, symName: __ZNKSt3__122__compressed_pair_elemIPPNS_16__hash_node_baseIPNS_11__hash_nodeINS_17__hash_value_typeIN5Token9TokenTypeENS_12basic_stringIcNS_11char_traitsIcEENS_9allocatorIcEEEEEEPvEEEELi0ELb0EE5__getB8ue170006Ev, symObjAddr: 0x6B6C, symBinAddr: 0x10000A1D4, symSize: 0x14 }
  - { offsetInCU: 0x2B6D0, offset: 0x2B6D0, size: 0x8, addend: 0x0, symName: __ZNSt3__117__compressed_pairIfNS_21__unordered_map_equalIN5Token9TokenTypeENS_17__hash_value_typeIS3_NS_12basic_stringIcNS_11char_traitsIcEENS_9allocatorIcEEEEEENS_8equal_toIS3_EENS_4hashIS3_EELb1EEEE6secondB8ue170006Ev, symObjAddr: 0x6B80, symBinAddr: 0x10000A1E8, symSize: 0x24 }
  - { offsetInCU: 0x2B6F6, offset: 0x2B6F6, size: 0x8, addend: 0x0, symName: __ZNSt3__122__compressed_pair_elemINS_21__unordered_map_equalIN5Token9TokenTypeENS_17__hash_value_typeIS3_NS_12basic_stringIcNS_11char_traitsIcEENS_9allocatorIcEEEEEENS_8equal_toIS3_EENS_4hashIS3_EELb1EEELi1ELb1EE5__getB8ue170006Ev, symObjAddr: 0x6BA4, symBinAddr: 0x10000A20C, symSize: 0x14 }
  - { offsetInCU: 0x2B71C, offset: 0x2B71C, size: 0x8, addend: 0x0, symName: __ZNKSt3__18equal_toIN5Token9TokenTypeEEclB8ue170006ERKS2_S5_, symObjAddr: 0x6BB8, symBinAddr: 0x10000A220, symSize: 0x34 }
  - { offsetInCU: 0x2B760, offset: 0x2B760, size: 0x8, addend: 0x0, symName: __ZNKSt3__117__hash_value_typeIN5Token9TokenTypeENS_12basic_stringIcNS_11char_traitsIcEENS_9allocatorIcEEEEE11__get_valueB8ue170006Ev, symObjAddr: 0x6BEC, symBinAddr: 0x10000A254, symSize: 0x24 }
  - { offsetInCU: 0x2B786, offset: 0x2B786, size: 0x8, addend: 0x0, symName: __ZNSt3__114pointer_traitsIPNS_16__hash_node_baseIPNS_11__hash_nodeINS_17__hash_value_typeIN5Token9TokenTypeENS_12basic_stringIcNS_11char_traitsIcEENS_9allocatorIcEEEEEEPvEEEEE10pointer_toB8ue170006ERSG_, symObjAddr: 0x6C48, symBinAddr: 0x10000A2B0, symSize: 0x14 }
  - { offsetInCU: 0x2B7A9, offset: 0x2B7A9, size: 0x8, addend: 0x0, symName: __ZNSt3__112__hash_tableINS_17__hash_value_typeIN5Token9TokenTypeENS_12basic_stringIcNS_11char_traitsIcEENS_9allocatorIcEEEEEENS_22__unordered_map_hasherIS3_SA_NS_4hashIS3_EENS_8equal_toIS3_EELb1EEENS_21__unordered_map_equalIS3_SA_SF_SD_Lb1EEENS7_ISA_EEE12__node_allocB8ue170006Ev, symObjAddr: 0x6C5C, symBinAddr: 0x10000A2C4, symSize: 0x28 }
  - { offsetInCU: 0x2B7CF, offset: 0x2B7CF, size: 0x8, addend: 0x0, symName: __ZNSt3__116allocator_traitsINS_9allocatorINS_11__hash_nodeINS_17__hash_value_typeIN5Token9TokenTypeENS_12basic_stringIcNS_11char_traitsIcEENS1_IcEEEEEEPvEEEEE8allocateB8ue170006ERSE_m, symObjAddr: 0x6C84, symBinAddr: 0x10000A2EC, symSize: 0x2C }
  - { offsetInCU: 0x2B802, offset: 0x2B802, size: 0x8, addend: 0x0, symName: __ZNSt3__122__hash_node_destructorINS_9allocatorINS_11__hash_nodeINS_17__hash_value_typeIN5Token9TokenTypeENS_12basic_stringIcNS_11char_traitsIcEENS1_IcEEEEEEPvEEEEEC1B8ue170006ERSE_b, symObjAddr: 0x6CB0, symBinAddr: 0x10000A318, symSize: 0x48 }
  - { offsetInCU: 0x2B850, offset: 0x2B850, size: 0x8, addend: 0x0, symName: __ZNSt3__110unique_ptrINS_11__hash_nodeINS_17__hash_value_typeIN5Token9TokenTypeENS_12basic_stringIcNS_11char_traitsIcEENS_9allocatorIcEEEEEEPvEENS_22__hash_node_destructorINS8_ISD_EEEEEC1B8ue170006ILb1EvEEPSD_NS_16__dependent_typeINS_27__unique_ptr_deleter_sfinaeISG_EEXT_EE20__good_rval_ref_typeE, symObjAddr: 0x6CF8, symBinAddr: 0x10000A360, symSize: 0x3C }
  - { offsetInCU: 0x2B8A1, offset: 0x2B8A1, size: 0x8, addend: 0x0, symName: __ZNSt3__116allocator_traitsINS_9allocatorINS_11__hash_nodeINS_17__hash_value_typeIN5Token9TokenTypeENS_12basic_stringIcNS_11char_traitsIcEENS1_IcEEEEEEPvEEEEE9constructB8ue170006INS_4pairIKS5_SA_EEJRKSJ_EvEEvRSE_PT_DpOT0_, symObjAddr: 0x6D34, symBinAddr: 0x10000A39C, symSize: 0x34 }
  - { offsetInCU: 0x2B8F8, offset: 0x2B8F8, size: 0x8, addend: 0x0, symName: __ZNSt3__122__hash_key_value_typesINS_17__hash_value_typeIN5Token9TokenTypeENS_12basic_stringIcNS_11char_traitsIcEENS_9allocatorIcEEEEEEE9__get_ptrB8ue170006ERSA_, symObjAddr: 0x6D68, symBinAddr: 0x10000A3D0, symSize: 0x24 }
  - { offsetInCU: 0x2B91B, offset: 0x2B91B, size: 0x8, addend: 0x0, symName: __ZNSt3__110unique_ptrINS_11__hash_nodeINS_17__hash_value_typeIN5Token9TokenTypeENS_12basic_stringIcNS_11char_traitsIcEENS_9allocatorIcEEEEEEPvEENS_22__hash_node_destructorINS8_ISD_EEEEE11get_deleterB8ue170006Ev, symObjAddr: 0x6D8C, symBinAddr: 0x10000A3F4, symSize: 0x24 }
  - { offsetInCU: 0x2B941, offset: 0x2B941, size: 0x8, addend: 0x0, symName: __ZNSt3__117__compressed_pairINS_16__hash_node_baseIPNS_11__hash_nodeINS_17__hash_value_typeIN5Token9TokenTypeENS_12basic_stringIcNS_11char_traitsIcEENS_9allocatorIcEEEEEEPvEEEENS9_ISE_EEE6secondB8ue170006Ev, symObjAddr: 0x6DB0, symBinAddr: 0x10000A418, symSize: 0x24 }
  - { offsetInCU: 0x2B967, offset: 0x2B967, size: 0x8, addend: 0x0, symName: __ZNSt3__122__compressed_pair_elemINS_9allocatorINS_11__hash_nodeINS_17__hash_value_typeIN5Token9TokenTypeENS_12basic_stringIcNS_11char_traitsIcEENS1_IcEEEEEEPvEEEELi1ELb1EE5__getB8ue170006Ev, symObjAddr: 0x6DD4, symBinAddr: 0x10000A43C, symSize: 0x14 }
  - { offsetInCU: 0x2B98D, offset: 0x2B98D, size: 0x8, addend: 0x0, symName: __ZNSt3__19allocatorINS_11__hash_nodeINS_17__hash_value_typeIN5Token9TokenTypeENS_12basic_stringIcNS_11char_traitsIcEENS0_IcEEEEEEPvEEE8allocateB8ue170006Em, symObjAddr: 0x6DE8, symBinAddr: 0x10000A450, symSize: 0x5C }
  - { offsetInCU: 0x2B9CC, offset: 0x2B9CC, size: 0x8, addend: 0x0, symName: __ZNSt3__116allocator_traitsINS_9allocatorINS_11__hash_nodeINS_17__hash_value_typeIN5Token9TokenTypeENS_12basic_stringIcNS_11char_traitsIcEENS1_IcEEEEEEPvEEEEE8max_sizeB8ue170006ISE_vEEmRKSE_, symObjAddr: 0x6E44, symBinAddr: 0x10000A4AC, symSize: 0x24 }
  - { offsetInCU: 0x2B9FA, offset: 0x2B9FA, size: 0x8, addend: 0x0, symName: __ZNKSt3__19allocatorINS_11__hash_nodeINS_17__hash_value_typeIN5Token9TokenTypeENS_12basic_stringIcNS_11char_traitsIcEENS0_IcEEEEEEPvEEE8max_sizeB8ue170006Ev, symObjAddr: 0x6EFC, symBinAddr: 0x10000A564, symSize: 0x18 }
  - { offsetInCU: 0x2BA20, offset: 0x2BA20, size: 0x8, addend: 0x0, symName: __ZNSt3__122__hash_node_destructorINS_9allocatorINS_11__hash_nodeINS_17__hash_value_typeIN5Token9TokenTypeENS_12basic_stringIcNS_11char_traitsIcEENS1_IcEEEEEEPvEEEEEC2B8ue170006ERSE_b, symObjAddr: 0x6F64, symBinAddr: 0x10000A5CC, symSize: 0x38 }
  - { offsetInCU: 0x2BA68, offset: 0x2BA68, size: 0x8, addend: 0x0, symName: __ZNSt3__110unique_ptrINS_11__hash_nodeINS_17__hash_value_typeIN5Token9TokenTypeENS_12basic_stringIcNS_11char_traitsIcEENS_9allocatorIcEEEEEEPvEENS_22__hash_node_destructorINS8_ISD_EEEEEC2B8ue170006ILb1EvEEPSD_NS_16__dependent_typeINS_27__unique_ptr_deleter_sfinaeISG_EEXT_EE20__good_rval_ref_typeE, symObjAddr: 0x6F9C, symBinAddr: 0x10000A604, symSize: 0x48 }
  - { offsetInCU: 0x2BAB9, offset: 0x2BAB9, size: 0x8, addend: 0x0, symName: __ZNSt3__117__compressed_pairIPNS_11__hash_nodeINS_17__hash_value_typeIN5Token9TokenTypeENS_12basic_stringIcNS_11char_traitsIcEENS_9allocatorIcEEEEEEPvEENS_22__hash_node_destructorINS8_ISD_EEEEEC1B8ue170006IRSE_SH_EEOT_OT0_, symObjAddr: 0x6FE4, symBinAddr: 0x10000A64C, symSize: 0x3C }
  - { offsetInCU: 0x2BB11, offset: 0x2BB11, size: 0x8, addend: 0x0, symName: __ZNSt3__117__compressed_pairIPNS_11__hash_nodeINS_17__hash_value_typeIN5Token9TokenTypeENS_12basic_stringIcNS_11char_traitsIcEENS_9allocatorIcEEEEEEPvEENS_22__hash_node_destructorINS8_ISD_EEEEEC2B8ue170006IRSE_SH_EEOT_OT0_, symObjAddr: 0x7020, symBinAddr: 0x10000A688, symSize: 0x48 }
  - { offsetInCU: 0x2BB69, offset: 0x2BB69, size: 0x8, addend: 0x0, symName: __ZNSt3__122__compressed_pair_elemIPNS_11__hash_nodeINS_17__hash_value_typeIN5Token9TokenTypeENS_12basic_stringIcNS_11char_traitsIcEENS_9allocatorIcEEEEEEPvEELi0ELb0EEC2B8ue170006IRSE_vEEOT_, symObjAddr: 0x7068, symBinAddr: 0x10000A6D0, symSize: 0x24 }
  - { offsetInCU: 0x2BBAB, offset: 0x2BBAB, size: 0x8, addend: 0x0, symName: __ZNSt3__122__compressed_pair_elemINS_22__hash_node_destructorINS_9allocatorINS_11__hash_nodeINS_17__hash_value_typeIN5Token9TokenTypeENS_12basic_stringIcNS_11char_traitsIcEENS2_IcEEEEEEPvEEEEEELi1ELb0EEC2B8ue170006ISG_vEEOT_, symObjAddr: 0x708C, symBinAddr: 0x10000A6F4, symSize: 0x24 }
  - { offsetInCU: 0x2BBED, offset: 0x2BBED, size: 0x8, addend: 0x0, symName: __ZNSt3__19allocatorINS_11__hash_nodeINS_17__hash_value_typeIN5Token9TokenTypeENS_12basic_stringIcNS_11char_traitsIcEENS0_IcEEEEEEPvEEE9constructB8ue170006INS_4pairIKS4_S9_EEJRKSH_EEEvPT_DpOT0_, symObjAddr: 0x70B0, symBinAddr: 0x10000A718, symSize: 0x30 }
  - { offsetInCU: 0x2BC43, offset: 0x2BC43, size: 0x8, addend: 0x0, symName: __ZNSt3__14pairIKN5Token9TokenTypeENS_12basic_stringIcNS_11char_traitsIcEENS_9allocatorIcEEEEEC1B8ue170006ERKSA_, symObjAddr: 0x70E0, symBinAddr: 0x10000A748, symSize: 0x34 }
  - { offsetInCU: 0x2BC78, offset: 0x2BC78, size: 0x8, addend: 0x0, symName: __ZNSt3__14pairIKN5Token9TokenTypeENS_12basic_stringIcNS_11char_traitsIcEENS_9allocatorIcEEEEEC2B8ue170006ERKSA_, symObjAddr: 0x7114, symBinAddr: 0x10000A77C, symSize: 0x48 }
  - { offsetInCU: 0x2BCAD, offset: 0x2BCAD, size: 0x8, addend: 0x0, symName: __ZNSt3__117__hash_value_typeIN5Token9TokenTypeENS_12basic_stringIcNS_11char_traitsIcEENS_9allocatorIcEEEEE11__get_valueB8ue170006Ev, symObjAddr: 0x715C, symBinAddr: 0x10000A7C4, symSize: 0x24 }
  - { offsetInCU: 0x2BCD3, offset: 0x2BCD3, size: 0x8, addend: 0x0, symName: __ZNSt3__117__compressed_pairIPNS_11__hash_nodeINS_17__hash_value_typeIN5Token9TokenTypeENS_12basic_stringIcNS_11char_traitsIcEENS_9allocatorIcEEEEEEPvEENS_22__hash_node_destructorINS8_ISD_EEEEE6secondB8ue170006Ev, symObjAddr: 0x71B8, symBinAddr: 0x10000A820, symSize: 0x28 }
  - { offsetInCU: 0x2BCF9, offset: 0x2BCF9, size: 0x8, addend: 0x0, symName: __ZNSt3__122__compressed_pair_elemINS_22__hash_node_destructorINS_9allocatorINS_11__hash_nodeINS_17__hash_value_typeIN5Token9TokenTypeENS_12basic_stringIcNS_11char_traitsIcEENS2_IcEEEEEEPvEEEEEELi1ELb0EE5__getB8ue170006Ev, symObjAddr: 0x71E0, symBinAddr: 0x10000A848, symSize: 0x14 }
  - { offsetInCU: 0x2BD1F, offset: 0x2BD1F, size: 0x8, addend: 0x0, symName: __ZNSt3__117__compressed_pairImNS_22__unordered_map_hasherIN5Token9TokenTypeENS_17__hash_value_typeIS3_NS_12basic_stringIcNS_11char_traitsIcEENS_9allocatorIcEEEEEENS_4hashIS3_EENS_8equal_toIS3_EELb1EEEE5firstB8ue170006Ev, symObjAddr: 0x71F4, symBinAddr: 0x10000A85C, symSize: 0x24 }
  - { offsetInCU: 0x2BD45, offset: 0x2BD45, size: 0x8, addend: 0x0, symName: __ZNSt3__122__compressed_pair_elemImLi0ELb0EE5__getB8ue170006Ev, symObjAddr: 0x7218, symBinAddr: 0x10000A880, symSize: 0x14 }
  - { offsetInCU: 0x2BD6B, offset: 0x2BD6B, size: 0x8, addend: 0x0, symName: __ZNSt3__117__compressed_pairIfNS_21__unordered_map_equalIN5Token9TokenTypeENS_17__hash_value_typeIS3_NS_12basic_stringIcNS_11char_traitsIcEENS_9allocatorIcEEEEEENS_8equal_toIS3_EENS_4hashIS3_EELb1EEEE5firstB8ue170006Ev, symObjAddr: 0x722C, symBinAddr: 0x10000A894, symSize: 0x24 }
  - { offsetInCU: 0x2BD91, offset: 0x2BD91, size: 0x8, addend: 0x0, symName: __ZNSt3__122__compressed_pair_elemIfLi0ELb0EE5__getB8ue170006Ev, symObjAddr: 0x7250, symBinAddr: 0x10000A8B8, symSize: 0x14 }
  - { offsetInCU: 0x2BDB7, offset: 0x2BDB7, size: 0x8, addend: 0x0, symName: __ZNSt3__112__hash_tableINS_17__hash_value_typeIN5Token9TokenTypeENS_12basic_stringIcNS_11char_traitsIcEENS_9allocatorIcEEEEEENS_22__unordered_map_hasherIS3_SA_NS_4hashIS3_EENS_8equal_toIS3_EELb1EEENS_21__unordered_map_equalIS3_SA_SF_SD_Lb1EEENS7_ISA_EEE8__rehashILb1EEEvm, symObjAddr: 0x7264, symBinAddr: 0x10000A8CC, symSize: 0x1A8 }
  - { offsetInCU: 0x2BE07, offset: 0x2BE07, size: 0x8, addend: 0x0, symName: __ZNSt3__112__hash_tableINS_17__hash_value_typeIN5Token9TokenTypeENS_12basic_stringIcNS_11char_traitsIcEENS_9allocatorIcEEEEEENS_22__unordered_map_hasherIS3_SA_NS_4hashIS3_EENS_8equal_toIS3_EELb1EEENS_21__unordered_map_equalIS3_SA_SF_SD_Lb1EEENS7_ISA_EEE11__do_rehashILb1EEEvm, symObjAddr: 0x740C, symBinAddr: 0x10000AA74, symSize: 0x288 }
  - { offsetInCU: 0x2BEEA, offset: 0x2BEEA, size: 0x8, addend: 0x0, symName: __ZNSt3__110unique_ptrIA_PNS_16__hash_node_baseIPNS_11__hash_nodeINS_17__hash_value_typeIN5Token9TokenTypeENS_12basic_stringIcNS_11char_traitsIcEENS_9allocatorIcEEEEEEPvEEEENS_25__bucket_list_deallocatorINS9_ISH_EEEEE11get_deleterB8ue170006Ev, symObjAddr: 0x7700, symBinAddr: 0x10000AD68, symSize: 0x24 }
  - { offsetInCU: 0x2BF10, offset: 0x2BF10, size: 0x8, addend: 0x0, symName: __ZNSt3__125__bucket_list_deallocatorINS_9allocatorIPNS_16__hash_node_baseIPNS_11__hash_nodeINS_17__hash_value_typeIN5Token9TokenTypeENS_12basic_stringIcNS_11char_traitsIcEENS1_IcEEEEEEPvEEEEEEE7__allocB8ue170006Ev, symObjAddr: 0x7724, symBinAddr: 0x10000AD8C, symSize: 0x24 }
  - { offsetInCU: 0x2BF36, offset: 0x2BF36, size: 0x8, addend: 0x0, symName: __ZNSt3__110unique_ptrIA_PNS_16__hash_node_baseIPNS_11__hash_nodeINS_17__hash_value_typeIN5Token9TokenTypeENS_12basic_stringIcNS_11char_traitsIcEENS_9allocatorIcEEEEEEPvEEEENS_25__bucket_list_deallocatorINS9_ISH_EEEEE5resetB8ue170006IPSH_EENS_9enable_ifIXsr28_CheckArrayPointerConversionIT_EE5valueEvE4typeESQ_, symObjAddr: 0x7748, symBinAddr: 0x10000ADB0, symSize: 0x78 }
  - { offsetInCU: 0x2BF83, offset: 0x2BF83, size: 0x8, addend: 0x0, symName: __ZNSt3__116allocator_traitsINS_9allocatorIPNS_16__hash_node_baseIPNS_11__hash_nodeINS_17__hash_value_typeIN5Token9TokenTypeENS_12basic_stringIcNS_11char_traitsIcEENS1_IcEEEEEEPvEEEEEEE8allocateB8ue170006ERSI_m, symObjAddr: 0x77C0, symBinAddr: 0x10000AE28, symSize: 0x2C }
  - { offsetInCU: 0x2BFB6, offset: 0x2BFB6, size: 0x8, addend: 0x0, symName: __ZNSt3__125__bucket_list_deallocatorINS_9allocatorIPNS_16__hash_node_baseIPNS_11__hash_nodeINS_17__hash_value_typeIN5Token9TokenTypeENS_12basic_stringIcNS_11char_traitsIcEENS1_IcEEEEEEPvEEEEEEE4sizeB8ue170006Ev, symObjAddr: 0x77EC, symBinAddr: 0x10000AE54, symSize: 0x24 }
  - { offsetInCU: 0x2BFDC, offset: 0x2BFDC, size: 0x8, addend: 0x0, symName: __ZNSt3__117__compressed_pairIPPNS_16__hash_node_baseIPNS_11__hash_nodeINS_17__hash_value_typeIN5Token9TokenTypeENS_12basic_stringIcNS_11char_traitsIcEENS_9allocatorIcEEEEEEPvEEEENS_25__bucket_list_deallocatorINS9_ISH_EEEEE6secondB8ue170006Ev, symObjAddr: 0x7810, symBinAddr: 0x10000AE78, symSize: 0x28 }
  - { offsetInCU: 0x2C002, offset: 0x2C002, size: 0x8, addend: 0x0, symName: __ZNSt3__122__compressed_pair_elemINS_25__bucket_list_deallocatorINS_9allocatorIPNS_16__hash_node_baseIPNS_11__hash_nodeINS_17__hash_value_typeIN5Token9TokenTypeENS_12basic_stringIcNS_11char_traitsIcEENS2_IcEEEEEEPvEEEEEEEELi1ELb0EE5__getB8ue170006Ev, symObjAddr: 0x7838, symBinAddr: 0x10000AEA0, symSize: 0x14 }
  - { offsetInCU: 0x2C028, offset: 0x2C028, size: 0x8, addend: 0x0, symName: __ZNSt3__117__compressed_pairImNS_9allocatorIPNS_16__hash_node_baseIPNS_11__hash_nodeINS_17__hash_value_typeIN5Token9TokenTypeENS_12basic_stringIcNS_11char_traitsIcEENS1_IcEEEEEEPvEEEEEEE6secondB8ue170006Ev, symObjAddr: 0x784C, symBinAddr: 0x10000AEB4, symSize: 0x24 }
  - { offsetInCU: 0x2C04E, offset: 0x2C04E, size: 0x8, addend: 0x0, symName: __ZNSt3__122__compressed_pair_elemINS_9allocatorIPNS_16__hash_node_baseIPNS_11__hash_nodeINS_17__hash_value_typeIN5Token9TokenTypeENS_12basic_stringIcNS_11char_traitsIcEENS1_IcEEEEEEPvEEEEEELi1ELb1EE5__getB8ue170006Ev, symObjAddr: 0x7870, symBinAddr: 0x10000AED8, symSize: 0x14 }
  - { offsetInCU: 0x2C074, offset: 0x2C074, size: 0x8, addend: 0x0, symName: __ZNSt3__117__compressed_pairIPPNS_16__hash_node_baseIPNS_11__hash_nodeINS_17__hash_value_typeIN5Token9TokenTypeENS_12basic_stringIcNS_11char_traitsIcEENS_9allocatorIcEEEEEEPvEEEENS_25__bucket_list_deallocatorINS9_ISH_EEEEE5firstB8ue170006Ev, symObjAddr: 0x7884, symBinAddr: 0x10000AEEC, symSize: 0x24 }
  - { offsetInCU: 0x2C09A, offset: 0x2C09A, size: 0x8, addend: 0x0, symName: __ZNSt3__125__bucket_list_deallocatorINS_9allocatorIPNS_16__hash_node_baseIPNS_11__hash_nodeINS_17__hash_value_typeIN5Token9TokenTypeENS_12basic_stringIcNS_11char_traitsIcEENS1_IcEEEEEEPvEEEEEEEclB8ue170006EPSH_, symObjAddr: 0x78A8, symBinAddr: 0x10000AF10, symSize: 0x58 }
  - { offsetInCU: 0x2C0CF, offset: 0x2C0CF, size: 0x8, addend: 0x0, symName: __ZNSt3__122__compressed_pair_elemIPPNS_16__hash_node_baseIPNS_11__hash_nodeINS_17__hash_value_typeIN5Token9TokenTypeENS_12basic_stringIcNS_11char_traitsIcEENS_9allocatorIcEEEEEEPvEEEELi0ELb0EE5__getB8ue170006Ev, symObjAddr: 0x7900, symBinAddr: 0x10000AF68, symSize: 0x14 }
  - { offsetInCU: 0x2C0F5, offset: 0x2C0F5, size: 0x8, addend: 0x0, symName: __ZNSt3__116allocator_traitsINS_9allocatorIPNS_16__hash_node_baseIPNS_11__hash_nodeINS_17__hash_value_typeIN5Token9TokenTypeENS_12basic_stringIcNS_11char_traitsIcEENS1_IcEEEEEEPvEEEEEEE10deallocateB8ue170006ERSI_PSH_m, symObjAddr: 0x7914, symBinAddr: 0x10000AF7C, symSize: 0x34 }
  - { offsetInCU: 0x2C137, offset: 0x2C137, size: 0x8, addend: 0x0, symName: __ZNSt3__19allocatorIPNS_16__hash_node_baseIPNS_11__hash_nodeINS_17__hash_value_typeIN5Token9TokenTypeENS_12basic_stringIcNS_11char_traitsIcEENS0_IcEEEEEEPvEEEEE10deallocateB8ue170006EPSG_m, symObjAddr: 0x7948, symBinAddr: 0x10000AFB0, symSize: 0x40 }
  - { offsetInCU: 0x2C179, offset: 0x2C179, size: 0x8, addend: 0x0, symName: __ZNSt3__19allocatorIPNS_16__hash_node_baseIPNS_11__hash_nodeINS_17__hash_value_typeIN5Token9TokenTypeENS_12basic_stringIcNS_11char_traitsIcEENS0_IcEEEEEEPvEEEEE8allocateB8ue170006Em, symObjAddr: 0x7988, symBinAddr: 0x10000AFF0, symSize: 0x58 }
  - { offsetInCU: 0x2C1B8, offset: 0x2C1B8, size: 0x8, addend: 0x0, symName: __ZNSt3__116allocator_traitsINS_9allocatorIPNS_16__hash_node_baseIPNS_11__hash_nodeINS_17__hash_value_typeIN5Token9TokenTypeENS_12basic_stringIcNS_11char_traitsIcEENS1_IcEEEEEEPvEEEEEEE8max_sizeB8ue170006ISI_vEEmRKSI_, symObjAddr: 0x79E0, symBinAddr: 0x10000B048, symSize: 0x24 }
  - { offsetInCU: 0x2C1E6, offset: 0x2C1E6, size: 0x8, addend: 0x0, symName: __ZNKSt3__19allocatorIPNS_16__hash_node_baseIPNS_11__hash_nodeINS_17__hash_value_typeIN5Token9TokenTypeENS_12basic_stringIcNS_11char_traitsIcEENS0_IcEEEEEEPvEEEEE8max_sizeB8ue170006Ev, symObjAddr: 0x7A04, symBinAddr: 0x10000B06C, symSize: 0x14 }
  - { offsetInCU: 0x2C20C, offset: 0x2C20C, size: 0x8, addend: 0x0, symName: __ZNSt3__117__compressed_pairImNS_9allocatorIPNS_16__hash_node_baseIPNS_11__hash_nodeINS_17__hash_value_typeIN5Token9TokenTypeENS_12basic_stringIcNS_11char_traitsIcEENS1_IcEEEEEEPvEEEEEEE5firstB8ue170006Ev, symObjAddr: 0x7A18, symBinAddr: 0x10000B080, symSize: 0x24 }
  - { offsetInCU: 0x2C23C, offset: 0x2C23C, size: 0x8, addend: 0x0, symName: __ZNKSt3__16__lessIvvEclB8ue170006ImmEEbRKT_RKT0_, symObjAddr: 0x7AAC, symBinAddr: 0x10000B114, symSize: 0x34 }
  - { offsetInCU: 0x2C290, offset: 0x2C290, size: 0x8, addend: 0x0, symName: __ZNSt3__122__compressed_pair_elemINS_16__hash_node_baseIPNS_11__hash_nodeINS_17__hash_value_typeIN5Token9TokenTypeENS_12basic_stringIcNS_11char_traitsIcEENS_9allocatorIcEEEEEEPvEEEELi0ELb0EE5__getB8ue170006Ev, symObjAddr: 0x7AE0, symBinAddr: 0x10000B148, symSize: 0x14 }
  - { offsetInCU: 0x2C2B6, offset: 0x2C2B6, size: 0x8, addend: 0x0, symName: __ZNKSt3__117__compressed_pairIPNS_11__hash_nodeINS_17__hash_value_typeIN5Token9TokenTypeENS_12basic_stringIcNS_11char_traitsIcEENS_9allocatorIcEEEEEEPvEENS_22__hash_node_destructorINS8_ISD_EEEEE5firstB8ue170006Ev, symObjAddr: 0x7AF4, symBinAddr: 0x10000B15C, symSize: 0x24 }
  - { offsetInCU: 0x2C2DC, offset: 0x2C2DC, size: 0x8, addend: 0x0, symName: __ZNKSt3__122__compressed_pair_elemIPNS_11__hash_nodeINS_17__hash_value_typeIN5Token9TokenTypeENS_12basic_stringIcNS_11char_traitsIcEENS_9allocatorIcEEEEEEPvEELi0ELb0EE5__getB8ue170006Ev, symObjAddr: 0x7B18, symBinAddr: 0x10000B180, symSize: 0x14 }
  - { offsetInCU: 0x2C302, offset: 0x2C302, size: 0x8, addend: 0x0, symName: __ZNSt3__117__compressed_pairIPNS_11__hash_nodeINS_17__hash_value_typeIN5Token9TokenTypeENS_12basic_stringIcNS_11char_traitsIcEENS_9allocatorIcEEEEEEPvEENS_22__hash_node_destructorINS8_ISD_EEEEE5firstB8ue170006Ev, symObjAddr: 0x7B2C, symBinAddr: 0x10000B194, symSize: 0x24 }
  - { offsetInCU: 0x2C328, offset: 0x2C328, size: 0x8, addend: 0x0, symName: __ZNSt3__122__compressed_pair_elemIPNS_11__hash_nodeINS_17__hash_value_typeIN5Token9TokenTypeENS_12basic_stringIcNS_11char_traitsIcEENS_9allocatorIcEEEEEEPvEELi0ELb0EE5__getB8ue170006Ev, symObjAddr: 0x7B50, symBinAddr: 0x10000B1B8, symSize: 0x14 }
  - { offsetInCU: 0x2C34E, offset: 0x2C34E, size: 0x8, addend: 0x0, symName: __ZNSt3__110unique_ptrINS_11__hash_nodeINS_17__hash_value_typeIN5Token9TokenTypeENS_12basic_stringIcNS_11char_traitsIcEENS_9allocatorIcEEEEEEPvEENS_22__hash_node_destructorINS8_ISD_EEEEED2B8ue170006Ev, symObjAddr: 0x7B64, symBinAddr: 0x10000B1CC, symSize: 0x30 }
  - { offsetInCU: 0x2C378, offset: 0x2C378, size: 0x8, addend: 0x0, symName: __ZNSt3__110unique_ptrINS_11__hash_nodeINS_17__hash_value_typeIN5Token9TokenTypeENS_12basic_stringIcNS_11char_traitsIcEENS_9allocatorIcEEEEEEPvEENS_22__hash_node_destructorINS8_ISD_EEEEE5resetB8ue170006EPSD_, symObjAddr: 0x7B94, symBinAddr: 0x10000B1FC, symSize: 0x78 }
  - { offsetInCU: 0x2C3BC, offset: 0x2C3BC, size: 0x8, addend: 0x0, symName: __ZNSt3__122__hash_node_destructorINS_9allocatorINS_11__hash_nodeINS_17__hash_value_typeIN5Token9TokenTypeENS_12basic_stringIcNS_11char_traitsIcEENS1_IcEEEEEEPvEEEEEclB8ue170006EPSD_, symObjAddr: 0x7C0C, symBinAddr: 0x10000B274, symSize: 0x98 }
  - { offsetInCU: 0x2C3F1, offset: 0x2C3F1, size: 0x8, addend: 0x0, symName: __ZNSt3__116allocator_traitsINS_9allocatorINS_11__hash_nodeINS_17__hash_value_typeIN5Token9TokenTypeENS_12basic_stringIcNS_11char_traitsIcEENS1_IcEEEEEEPvEEEEE7destroyB8ue170006INS_4pairIKS5_SA_EEvvEEvRSE_PT_, symObjAddr: 0x7CA4, symBinAddr: 0x10000B30C, symSize: 0x28 }
  - { offsetInCU: 0x2C42C, offset: 0x2C42C, size: 0x8, addend: 0x0, symName: __ZNSt3__116allocator_traitsINS_9allocatorINS_11__hash_nodeINS_17__hash_value_typeIN5Token9TokenTypeENS_12basic_stringIcNS_11char_traitsIcEENS1_IcEEEEEEPvEEEEE10deallocateB8ue170006ERSE_PSD_m, symObjAddr: 0x7CCC, symBinAddr: 0x10000B334, symSize: 0x34 }
  - { offsetInCU: 0x2C46E, offset: 0x2C46E, size: 0x8, addend: 0x0, symName: __ZNSt3__19allocatorINS_11__hash_nodeINS_17__hash_value_typeIN5Token9TokenTypeENS_12basic_stringIcNS_11char_traitsIcEENS0_IcEEEEEEPvEEE10deallocateB8ue170006EPSC_m, symObjAddr: 0x7D00, symBinAddr: 0x10000B368, symSize: 0x44 }
  - { offsetInCU: 0x2C4B0, offset: 0x2C4B0, size: 0x8, addend: 0x0, symName: __ZNSt3__115__hash_iteratorIPNS_11__hash_nodeINS_17__hash_value_typeIN5Token9TokenTypeENS_12basic_stringIcNS_11char_traitsIcEENS_9allocatorIcEEEEEEPvEEEC2B8ue170006EPNS_16__hash_node_baseISE_EE, symObjAddr: 0x7D44, symBinAddr: 0x10000B3AC, symSize: 0x20 }
  - { offsetInCU: 0x2C4E9, offset: 0x2C4E9, size: 0x8, addend: 0x0, symName: __ZNSt3__14pairINS_15__hash_iteratorIPNS_11__hash_nodeINS_17__hash_value_typeIN5Token9TokenTypeENS_12basic_stringIcNS_11char_traitsIcEENS_9allocatorIcEEEEEEPvEEEEbEC2B8ue170006ISG_RbLSD_0EEEOT_OT0_, symObjAddr: 0x7D64, symBinAddr: 0x10000B3CC, symSize: 0x38 }
  - { offsetInCU: 0x2C547, offset: 0x2C547, size: 0x8, addend: 0x0, symName: __ZNSt3__112__hash_tableINS_17__hash_value_typeIN5Token9TokenTypeENS_12basic_stringIcNS_11char_traitsIcEENS_9allocatorIcEEEEEENS_22__unordered_map_hasherIS3_SA_NS_4hashIS3_EENS_8equal_toIS3_EELb1EEENS_21__unordered_map_equalIS3_SA_SF_SD_Lb1EEENS7_ISA_EEED2Ev, symObjAddr: 0x7D9C, symBinAddr: 0x10000B404, symSize: 0x48 }
  - { offsetInCU: 0x2C573, offset: 0x2C573, size: 0x8, addend: 0x0, symName: __ZNSt3__112__hash_tableINS_17__hash_value_typeIN5Token9TokenTypeENS_12basic_stringIcNS_11char_traitsIcEENS_9allocatorIcEEEEEENS_22__unordered_map_hasherIS3_SA_NS_4hashIS3_EENS_8equal_toIS3_EELb1EEENS_21__unordered_map_equalIS3_SA_SF_SD_Lb1EEENS7_ISA_EEE17__deallocate_nodeEPNS_16__hash_node_baseIPNS_11__hash_nodeISA_PvEEEE, symObjAddr: 0x7DE4, symBinAddr: 0x10000B44C, symSize: 0xA4 }
  - { offsetInCU: 0x2C5DD, offset: 0x2C5DD, size: 0x8, addend: 0x0, symName: __ZNSt3__110unique_ptrIA_PNS_16__hash_node_baseIPNS_11__hash_nodeINS_17__hash_value_typeIN5Token9TokenTypeENS_12basic_stringIcNS_11char_traitsIcEENS_9allocatorIcEEEEEEPvEEEENS_25__bucket_list_deallocatorINS9_ISH_EEEEED1B8ue170006Ev, symObjAddr: 0x7E88, symBinAddr: 0x10000B4F0, symSize: 0x2C }
  - { offsetInCU: 0x2C607, offset: 0x2C607, size: 0x8, addend: 0x0, symName: __ZNSt3__110unique_ptrIA_PNS_16__hash_node_baseIPNS_11__hash_nodeINS_17__hash_value_typeIN5Token9TokenTypeENS_12basic_stringIcNS_11char_traitsIcEENS_9allocatorIcEEEEEEPvEEEENS_25__bucket_list_deallocatorINS9_ISH_EEEEED2B8ue170006Ev, symObjAddr: 0x7EB4, symBinAddr: 0x10000B51C, symSize: 0x30 }
  - { offsetInCU: 0x2C631, offset: 0x2C631, size: 0x8, addend: 0x0, symName: __ZNSt3__110unique_ptrIA_PNS_16__hash_node_baseIPNS_11__hash_nodeINS_17__hash_value_typeIN5Token9TokenTypeENS_12basic_stringIcNS_11char_traitsIcEENS_9allocatorIcEEEEEEPvEEEENS_25__bucket_list_deallocatorINS9_ISH_EEEEE5resetB8ue170006EDn, symObjAddr: 0x7EE4, symBinAddr: 0x10000B54C, symSize: 0x6C }
  - { offsetInCU: 0x2C672, offset: 0x2C672, size: 0x8, addend: 0x0, symName: __ZNSt3__113unordered_mapIN5Token9TokenTypeENS_12basic_stringIcNS_11char_traitsIcEENS_9allocatorIcEEEENS_4hashIS2_EENS_8equal_toIS2_EENS6_INS_4pairIKS2_S8_EEEEED2B8ue170006Ev, symObjAddr: 0x7F50, symBinAddr: 0x10000B5B8, symSize: 0x2C }
  - { offsetInCU: 0x2C69C, offset: 0x2C69C, size: 0x8, addend: 0x0, symName: __ZNSt3__117__compressed_pairIP5TokenNS_9allocatorIS1_EEE6secondB8ue170006Ev, symObjAddr: 0x7F7C, symBinAddr: 0x10000B5E4, symSize: 0x24 }
  - { offsetInCU: 0x2C6C2, offset: 0x2C6C2, size: 0x8, addend: 0x0, symName: __ZNSt3__122__compressed_pair_elemINS_9allocatorI5TokenEELi1ELb1EE5__getB8ue170006Ev, symObjAddr: 0x7FA0, symBinAddr: 0x10000B608, symSize: 0x14 }
  - { offsetInCU: 0x2C6E8, offset: 0x2C6E8, size: 0x8, addend: 0x0, symName: __ZNSt3__16vectorI5TokenNS_9allocatorIS1_EEE21_ConstructTransactionD2B8ue170006Ev, symObjAddr: 0x7FB4, symBinAddr: 0x10000B61C, symSize: 0x20 }
  - { offsetInCU: 0x2C712, offset: 0x2C712, size: 0x8, addend: 0x0, symName: __ZNKSt3__16vectorI5TokenNS_9allocatorIS1_EEE11__recommendB8ue170006Em, symObjAddr: 0x7FD4, symBinAddr: 0x10000B63C, symSize: 0xB4 }
  - { offsetInCU: 0x2C767, offset: 0x2C767, size: 0x8, addend: 0x0, symName: __ZNKSt3__16vectorI5TokenNS_9allocatorIS1_EEE4sizeB8ue170006Ev, symObjAddr: 0x8088, symBinAddr: 0x10000B6F0, symSize: 0x28 }
  - { offsetInCU: 0x2C78D, offset: 0x2C78D, size: 0x8, addend: 0x0, symName: __ZNSt3__114__split_bufferI5TokenRNS_9allocatorIS1_EEEC1EmmS4_, symObjAddr: 0x80B0, symBinAddr: 0x10000B718, symSize: 0x44 }
  - { offsetInCU: 0x2C7E3, offset: 0x2C7E3, size: 0x8, addend: 0x0, symName: __ZNSt3__114__split_bufferI5TokenRNS_9allocatorIS1_EEED1Ev, symObjAddr: 0x8204, symBinAddr: 0x10000B86C, symSize: 0x2C }
  - { offsetInCU: 0x2C80F, offset: 0x2C80F, size: 0x8, addend: 0x0, symName: __ZNKSt3__16vectorI5TokenNS_9allocatorIS1_EEE8max_sizeEv, symObjAddr: 0x8230, symBinAddr: 0x10000B898, symSize: 0x60 }
  - { offsetInCU: 0x2C837, offset: 0x2C837, size: 0x8, addend: 0x0, symName: __ZNKSt3__16vectorI5TokenNS_9allocatorIS1_EEE20__throw_length_errorB8ue170006Ev, symObjAddr: 0x8290, symBinAddr: 0x10000B8F8, symSize: 0x1C }
  - { offsetInCU: 0x2C85D, offset: 0x2C85D, size: 0x8, addend: 0x0, symName: __ZNKSt3__16vectorI5TokenNS_9allocatorIS1_EEE8capacityB8ue170006Ev, symObjAddr: 0x82AC, symBinAddr: 0x10000B914, symSize: 0x40 }
  - { offsetInCU: 0x2C88E, offset: 0x2C88E, size: 0x8, addend: 0x0, symName: __ZNSt3__116allocator_traitsINS_9allocatorI5TokenEEE8max_sizeB8ue170006IS3_vEEmRKS3_, symObjAddr: 0x8318, symBinAddr: 0x10000B980, symSize: 0x24 }
  - { offsetInCU: 0x2C8BC, offset: 0x2C8BC, size: 0x8, addend: 0x0, symName: __ZNKSt3__16vectorI5TokenNS_9allocatorIS1_EEE7__allocB8ue170006Ev, symObjAddr: 0x833C, symBinAddr: 0x10000B9A4, symSize: 0x28 }
  - { offsetInCU: 0x2C8E2, offset: 0x2C8E2, size: 0x8, addend: 0x0, symName: __ZNSt3__114numeric_limitsIlE3maxB8ue170006Ev, symObjAddr: 0x8364, symBinAddr: 0x10000B9CC, symSize: 0x14 }
  - { offsetInCU: 0x2C8F6, offset: 0x2C8F6, size: 0x8, addend: 0x0, symName: __ZNKSt3__19allocatorI5TokenE8max_sizeB8ue170006Ev, symObjAddr: 0x83CC, symBinAddr: 0x10000BA34, symSize: 0x18 }
  - { offsetInCU: 0x2C91C, offset: 0x2C91C, size: 0x8, addend: 0x0, symName: __ZNKSt3__117__compressed_pairIP5TokenNS_9allocatorIS1_EEE6secondB8ue170006Ev, symObjAddr: 0x83E4, symBinAddr: 0x10000BA4C, symSize: 0x24 }
  - { offsetInCU: 0x2C942, offset: 0x2C942, size: 0x8, addend: 0x0, symName: __ZNKSt3__122__compressed_pair_elemINS_9allocatorI5TokenEELi1ELb1EE5__getB8ue170006Ev, symObjAddr: 0x8408, symBinAddr: 0x10000BA70, symSize: 0x14 }
  - { offsetInCU: 0x2C968, offset: 0x2C968, size: 0x8, addend: 0x0, symName: __ZNSt3__123__libcpp_numeric_limitsIlLb1EE3maxB8ue170006Ev, symObjAddr: 0x841C, symBinAddr: 0x10000BA84, symSize: 0x8 }
  - { offsetInCU: 0x2C97C, offset: 0x2C97C, size: 0x8, addend: 0x0, symName: __ZNSt12length_errorC1B8ue170006EPKc, symObjAddr: 0x8488, symBinAddr: 0x10000BAF0, symSize: 0x34 }
  - { offsetInCU: 0x2C9B4, offset: 0x2C9B4, size: 0x8, addend: 0x0, symName: __ZNSt12length_errorC2B8ue170006EPKc, symObjAddr: 0x84BC, symBinAddr: 0x10000BB24, symSize: 0x4C }
  - { offsetInCU: 0x2C9EC, offset: 0x2C9EC, size: 0x8, addend: 0x0, symName: __ZNKSt3__16vectorI5TokenNS_9allocatorIS1_EEE9__end_capB8ue170006Ev, symObjAddr: 0x8508, symBinAddr: 0x10000BB70, symSize: 0x28 }
  - { offsetInCU: 0x2CA12, offset: 0x2CA12, size: 0x8, addend: 0x0, symName: __ZNKSt3__117__compressed_pairIP5TokenNS_9allocatorIS1_EEE5firstB8ue170006Ev, symObjAddr: 0x8530, symBinAddr: 0x10000BB98, symSize: 0x24 }
  - { offsetInCU: 0x2CA38, offset: 0x2CA38, size: 0x8, addend: 0x0, symName: __ZNKSt3__122__compressed_pair_elemIP5TokenLi0ELb0EE5__getB8ue170006Ev, symObjAddr: 0x8554, symBinAddr: 0x10000BBBC, symSize: 0x14 }
  - { offsetInCU: 0x2CA5E, offset: 0x2CA5E, size: 0x8, addend: 0x0, symName: __ZNSt3__114__split_bufferI5TokenRNS_9allocatorIS1_EEEC2EmmS4_, symObjAddr: 0x8568, symBinAddr: 0x10000BBD0, symSize: 0xE0 }
  - { offsetInCU: 0x2CAD1, offset: 0x2CAD1, size: 0x8, addend: 0x0, symName: __ZNSt3__117__compressed_pairIP5TokenRNS_9allocatorIS1_EEEC1B8ue170006IDnS5_EEOT_OT0_, symObjAddr: 0x8648, symBinAddr: 0x10000BCB0, symSize: 0x3C }
  - { offsetInCU: 0x2CB29, offset: 0x2CB29, size: 0x8, addend: 0x0, symName: __ZNSt3__114__split_bufferI5TokenRNS_9allocatorIS1_EEE7__allocB8ue170006Ev, symObjAddr: 0x86C4, symBinAddr: 0x10000BD2C, symSize: 0x28 }
  - { offsetInCU: 0x2CB4F, offset: 0x2CB4F, size: 0x8, addend: 0x0, symName: __ZNSt3__114__split_bufferI5TokenRNS_9allocatorIS1_EEE9__end_capB8ue170006Ev, symObjAddr: 0x86EC, symBinAddr: 0x10000BD54, symSize: 0x28 }
  - { offsetInCU: 0x2CB75, offset: 0x2CB75, size: 0x8, addend: 0x0, symName: __ZNSt3__117__compressed_pairIP5TokenRNS_9allocatorIS1_EEEC2B8ue170006IDnS5_EEOT_OT0_, symObjAddr: 0x8714, symBinAddr: 0x10000BD7C, symSize: 0x48 }
  - { offsetInCU: 0x2CBCD, offset: 0x2CBCD, size: 0x8, addend: 0x0, symName: __ZNSt3__122__compressed_pair_elemIRNS_9allocatorI5TokenEELi1ELb0EEC2B8ue170006IS4_vEEOT_, symObjAddr: 0x875C, symBinAddr: 0x10000BDC4, symSize: 0x20 }
  - { offsetInCU: 0x2CC0F, offset: 0x2CC0F, size: 0x8, addend: 0x0, symName: __ZNSt3__19allocatorI5TokenE8allocateB8ue170006Em, symObjAddr: 0x877C, symBinAddr: 0x10000BDE4, symSize: 0x5C }
  - { offsetInCU: 0x2CC43, offset: 0x2CC43, size: 0x8, addend: 0x0, symName: __ZNSt3__117__compressed_pairIP5TokenRNS_9allocatorIS1_EEE6secondB8ue170006Ev, symObjAddr: 0x87D8, symBinAddr: 0x10000BE40, symSize: 0x28 }
  - { offsetInCU: 0x2CC69, offset: 0x2CC69, size: 0x8, addend: 0x0, symName: __ZNSt3__122__compressed_pair_elemIRNS_9allocatorI5TokenEELi1ELb0EE5__getB8ue170006Ev, symObjAddr: 0x8800, symBinAddr: 0x10000BE68, symSize: 0x18 }
  - { offsetInCU: 0x2CC8F, offset: 0x2CC8F, size: 0x8, addend: 0x0, symName: __ZNSt3__117__compressed_pairIP5TokenRNS_9allocatorIS1_EEE5firstB8ue170006Ev, symObjAddr: 0x8818, symBinAddr: 0x10000BE80, symSize: 0x24 }
  - { offsetInCU: 0x2CCB5, offset: 0x2CCB5, size: 0x8, addend: 0x0, symName: __ZNKSt3__16vectorI5TokenNS_9allocatorIS1_EEE17__annotate_deleteB8ue170006Ev, symObjAddr: 0x883C, symBinAddr: 0x10000BEA4, symSize: 0xD4 }
  - { offsetInCU: 0x2CCDB, offset: 0x2CCDB, size: 0x8, addend: 0x0, symName: __ZNSt3__116reverse_iteratorIP5TokenEC1B8ue170006ES2_, symObjAddr: 0x8A3C, symBinAddr: 0x10000C0A4, symSize: 0x34 }
  - { offsetInCU: 0x2CD13, offset: 0x2CD13, size: 0x8, addend: 0x0, symName: __ZNKSt3__116reverse_iteratorIP5TokenE4baseB8ue170006Ev, symObjAddr: 0x8A70, symBinAddr: 0x10000C0D8, symSize: 0x18 }
  - { offsetInCU: 0x2CD39, offset: 0x2CD39, size: 0x8, addend: 0x0, symName: __ZNKSt3__16vectorI5TokenNS_9allocatorIS1_EEE14__annotate_newB8ue170006Em, symObjAddr: 0x8AC4, symBinAddr: 0x10000C12C, symSize: 0xC8 }
  - { offsetInCU: 0x2CD6E, offset: 0x2CD6E, size: 0x8, addend: 0x0, symName: __ZNKSt3__16vectorI5TokenNS_9allocatorIS1_EEE31__annotate_contiguous_containerB8ue170006EPKvS6_S6_S6_, symObjAddr: 0x8B8C, symBinAddr: 0x10000C1F4, symSize: 0x20 }
  - { offsetInCU: 0x2CDC4, offset: 0x2CDC4, size: 0x8, addend: 0x0, symName: __ZNKSt3__16vectorI5TokenNS_9allocatorIS1_EEE4dataB8ue170006Ev, symObjAddr: 0x8BAC, symBinAddr: 0x10000C214, symSize: 0x28 }
  - { offsetInCU: 0x2CDEA, offset: 0x2CDEA, size: 0x8, addend: 0x0, symName: __ZNSt3__129_AllocatorDestroyRangeReverseINS_9allocatorI5TokenEENS_16reverse_iteratorIPS2_EEEC1B8ue170006ERS3_RS6_S9_, symObjAddr: 0x8C20, symBinAddr: 0x10000C288, symSize: 0x44 }
  - { offsetInCU: 0x2CE41, offset: 0x2CE41, size: 0x8, addend: 0x0, symName: __ZNSt3__116allocator_traitsINS_9allocatorI5TokenEEE9constructB8ue170006IS2_JRKS2_EvEEvRS3_PT_DpOT0_, symObjAddr: 0x8CAC, symBinAddr: 0x10000C314, symSize: 0x34 }
  - { offsetInCU: 0x2CE98, offset: 0x2CE98, size: 0x8, addend: 0x0, symName: __ZNKSt3__116reverse_iteratorIP5TokenEdeB8ue170006Ev, symObjAddr: 0x8D04, symBinAddr: 0x10000C36C, symSize: 0x28 }
  - { offsetInCU: 0x2CECC, offset: 0x2CECC, size: 0x8, addend: 0x0, symName: __ZNSt3__116reverse_iteratorIP5TokenEppB8ue170006Ev, symObjAddr: 0x8D2C, symBinAddr: 0x10000C394, symSize: 0x20 }
  - { offsetInCU: 0x2CEF2, offset: 0x2CEF2, size: 0x8, addend: 0x0, symName: __ZNSt3__128__exception_guard_exceptionsINS_29_AllocatorDestroyRangeReverseINS_9allocatorI5TokenEENS_16reverse_iteratorIPS3_EEEEE10__completeB8ue170006Ev, symObjAddr: 0x8D4C, symBinAddr: 0x10000C3B4, symSize: 0x1C }
  - { offsetInCU: 0x2CF18, offset: 0x2CF18, size: 0x8, addend: 0x0, symName: __ZNSt3__128__exception_guard_exceptionsINS_29_AllocatorDestroyRangeReverseINS_9allocatorI5TokenEENS_16reverse_iteratorIPS3_EEEEED1B8ue170006Ev, symObjAddr: 0x8D68, symBinAddr: 0x10000C3D0, symSize: 0x2C }
  - { offsetInCU: 0x2CF42, offset: 0x2CF42, size: 0x8, addend: 0x0, symName: __ZNSt3__128__exception_guard_exceptionsINS_29_AllocatorDestroyRangeReverseINS_9allocatorI5TokenEENS_16reverse_iteratorIPS3_EEEEEC1B8ue170006ES8_, symObjAddr: 0x8D94, symBinAddr: 0x10000C3FC, symSize: 0x34 }
  - { offsetInCU: 0x2CF7B, offset: 0x2CF7B, size: 0x8, addend: 0x0, symName: __ZNSt3__128__exception_guard_exceptionsINS_29_AllocatorDestroyRangeReverseINS_9allocatorI5TokenEENS_16reverse_iteratorIPS3_EEEEEC2B8ue170006ES8_, symObjAddr: 0x8DC8, symBinAddr: 0x10000C430, symSize: 0x30 }
  - { offsetInCU: 0x2CFB4, offset: 0x2CFB4, size: 0x8, addend: 0x0, symName: __ZNSt3__129_AllocatorDestroyRangeReverseINS_9allocatorI5TokenEENS_16reverse_iteratorIPS2_EEEC2B8ue170006ERS3_RS6_S9_, symObjAddr: 0x8DF8, symBinAddr: 0x10000C460, symSize: 0x38 }
  - { offsetInCU: 0x2D00B, offset: 0x2D00B, size: 0x8, addend: 0x0, symName: __ZNSt3__19allocatorI5TokenE9constructB8ue170006IS1_JRKS1_EEEvPT_DpOT0_, symObjAddr: 0x8E30, symBinAddr: 0x10000C498, symSize: 0x30 }
  - { offsetInCU: 0x2D061, offset: 0x2D061, size: 0x8, addend: 0x0, symName: __ZN5TokenC1ERKS_, symObjAddr: 0x8E60, symBinAddr: 0x10000C4C8, symSize: 0x34 }
  - { offsetInCU: 0x2D096, offset: 0x2D096, size: 0x8, addend: 0x0, symName: __ZN5TokenC2ERKS_, symObjAddr: 0x8E94, symBinAddr: 0x10000C4FC, symSize: 0x88 }
  - { offsetInCU: 0x2D0CB, offset: 0x2D0CB, size: 0x8, addend: 0x0, symName: __ZNSt3__113unordered_mapIN5Token9TokenTypeENS_12basic_stringIcNS_11char_traitsIcEENS_9allocatorIcEEEENS_4hashIS2_EENS_8equal_toIS2_EENS6_INS_4pairIKS2_S8_EEEEEC1ERKSH_, symObjAddr: 0x8F1C, symBinAddr: 0x10000C584, symSize: 0x34 }
  - { offsetInCU: 0x2D106, offset: 0x2D106, size: 0x8, addend: 0x0, symName: __ZNSt3__113unordered_mapIN5Token9TokenTypeENS_12basic_stringIcNS_11char_traitsIcEENS_9allocatorIcEEEENS_4hashIS2_EENS_8equal_toIS2_EENS6_INS_4pairIKS2_S8_EEEEEC2ERKSH_, symObjAddr: 0x8F50, symBinAddr: 0x10000C5B8, symSize: 0xA0 }
  - { offsetInCU: 0x2D141, offset: 0x2D141, size: 0x8, addend: 0x0, symName: __ZNSt3__112__hash_tableINS_17__hash_value_typeIN5Token9TokenTypeENS_12basic_stringIcNS_11char_traitsIcEENS_9allocatorIcEEEEEENS_22__unordered_map_hasherIS3_SA_NS_4hashIS3_EENS_8equal_toIS3_EELb1EEENS_21__unordered_map_equalIS3_SA_SF_SD_Lb1EEENS7_ISA_EEEC1ERKSK_, symObjAddr: 0x8FF0, symBinAddr: 0x10000C658, symSize: 0x34 }
  - { offsetInCU: 0x2D17C, offset: 0x2D17C, size: 0x8, addend: 0x0, symName: __ZNKSt3__113unordered_mapIN5Token9TokenTypeENS_12basic_stringIcNS_11char_traitsIcEENS_9allocatorIcEEEENS_4hashIS2_EENS_8equal_toIS2_EENS6_INS_4pairIKS2_S8_EEEEE12bucket_countB8ue170006Ev, symObjAddr: 0x9024, symBinAddr: 0x10000C68C, symSize: 0x24 }
  - { offsetInCU: 0x2D1A2, offset: 0x2D1A2, size: 0x8, addend: 0x0, symName: __ZNSt3__113unordered_mapIN5Token9TokenTypeENS_12basic_stringIcNS_11char_traitsIcEENS_9allocatorIcEEEENS_4hashIS2_EENS_8equal_toIS2_EENS6_INS_4pairIKS2_S8_EEEEE6insertINS_25__hash_map_const_iteratorINS_21__hash_const_iteratorIPNS_11__hash_nodeINS_17__hash_value_typeIS2_S8_EEPvEEEEEEEEvT_ST_, symObjAddr: 0x9048, symBinAddr: 0x10000C6B0, symSize: 0x70 }
  - { offsetInCU: 0x2D1F1, offset: 0x2D1F1, size: 0x8, addend: 0x0, symName: __ZNKSt3__113unordered_mapIN5Token9TokenTypeENS_12basic_stringIcNS_11char_traitsIcEENS_9allocatorIcEEEENS_4hashIS2_EENS_8equal_toIS2_EENS6_INS_4pairIKS2_S8_EEEEE5beginB8ue170006Ev, symObjAddr: 0x90B8, symBinAddr: 0x10000C720, symSize: 0x38 }
  - { offsetInCU: 0x2D217, offset: 0x2D217, size: 0x8, addend: 0x0, symName: __ZNKSt3__113unordered_mapIN5Token9TokenTypeENS_12basic_stringIcNS_11char_traitsIcEENS_9allocatorIcEEEENS_4hashIS2_EENS_8equal_toIS2_EENS6_INS_4pairIKS2_S8_EEEEE3endB8ue170006Ev, symObjAddr: 0x90F0, symBinAddr: 0x10000C758, symSize: 0x38 }
  - { offsetInCU: 0x2D23D, offset: 0x2D23D, size: 0x8, addend: 0x0, symName: __ZNSt3__112__hash_tableINS_17__hash_value_typeIN5Token9TokenTypeENS_12basic_stringIcNS_11char_traitsIcEENS_9allocatorIcEEEEEENS_22__unordered_map_hasherIS3_SA_NS_4hashIS3_EENS_8equal_toIS3_EELb1EEENS_21__unordered_map_equalIS3_SA_SF_SD_Lb1EEENS7_ISA_EEEC2ERKSK_, symObjAddr: 0x9128, symBinAddr: 0x10000C790, symSize: 0xEC }
  - { offsetInCU: 0x2D278, offset: 0x2D278, size: 0x8, addend: 0x0, symName: __ZNSt3__116allocator_traitsINS_9allocatorIPNS_16__hash_node_baseIPNS_11__hash_nodeINS_17__hash_value_typeIN5Token9TokenTypeENS_12basic_stringIcNS_11char_traitsIcEENS1_IcEEEEEEPvEEEEEEE37select_on_container_copy_constructionB8ue170006ISI_vvEESI_RKSI_, symObjAddr: 0x9214, symBinAddr: 0x10000C87C, symSize: 0x10 }
  - { offsetInCU: 0x2D2A7, offset: 0x2D2A7, size: 0x8, addend: 0x0, symName: __ZNKSt3__125__bucket_list_deallocatorINS_9allocatorIPNS_16__hash_node_baseIPNS_11__hash_nodeINS_17__hash_value_typeIN5Token9TokenTypeENS_12basic_stringIcNS_11char_traitsIcEENS1_IcEEEEEEPvEEEEEEE7__allocB8ue170006Ev, symObjAddr: 0x9224, symBinAddr: 0x10000C88C, symSize: 0x24 }
  - { offsetInCU: 0x2D2CD, offset: 0x2D2CD, size: 0x8, addend: 0x0, symName: __ZNSt3__125__bucket_list_deallocatorINS_9allocatorIPNS_16__hash_node_baseIPNS_11__hash_nodeINS_17__hash_value_typeIN5Token9TokenTypeENS_12basic_stringIcNS_11char_traitsIcEENS1_IcEEEEEEPvEEEEEEEC1B8ue170006ERKSI_m, symObjAddr: 0x9248, symBinAddr: 0x10000C8B0, symSize: 0x3C }
  - { offsetInCU: 0x2D315, offset: 0x2D315, size: 0x8, addend: 0x0, symName: __ZNSt3__110unique_ptrIA_PNS_16__hash_node_baseIPNS_11__hash_nodeINS_17__hash_value_typeIN5Token9TokenTypeENS_12basic_stringIcNS_11char_traitsIcEENS_9allocatorIcEEEEEEPvEEEENS_25__bucket_list_deallocatorINS9_ISH_EEEEEC1B8ue170006ILb1EvEEDnNS_16__dependent_typeINS_27__unique_ptr_deleter_sfinaeISL_EEXT_EE20__good_rval_ref_typeE, symObjAddr: 0x9284, symBinAddr: 0x10000C8EC, symSize: 0x3C }
  - { offsetInCU: 0x2D365, offset: 0x2D365, size: 0x8, addend: 0x0, symName: __ZNSt3__116allocator_traitsINS_9allocatorINS_11__hash_nodeINS_17__hash_value_typeIN5Token9TokenTypeENS_12basic_stringIcNS_11char_traitsIcEENS1_IcEEEEEEPvEEEEE37select_on_container_copy_constructionB8ue170006ISE_vvEESE_RKSE_, symObjAddr: 0x92C0, symBinAddr: 0x10000C928, symSize: 0x10 }
  - { offsetInCU: 0x2D394, offset: 0x2D394, size: 0x8, addend: 0x0, symName: __ZNKSt3__112__hash_tableINS_17__hash_value_typeIN5Token9TokenTypeENS_12basic_stringIcNS_11char_traitsIcEENS_9allocatorIcEEEEEENS_22__unordered_map_hasherIS3_SA_NS_4hashIS3_EENS_8equal_toIS3_EELb1EEENS_21__unordered_map_equalIS3_SA_SF_SD_Lb1EEENS7_ISA_EEE12__node_allocB8ue170006Ev, symObjAddr: 0x92D0, symBinAddr: 0x10000C938, symSize: 0x28 }
  - { offsetInCU: 0x2D3C0, offset: 0x2D3C0, size: 0x8, addend: 0x0, symName: __ZNSt3__117__compressed_pairINS_16__hash_node_baseIPNS_11__hash_nodeINS_17__hash_value_typeIN5Token9TokenTypeENS_12basic_stringIcNS_11char_traitsIcEENS_9allocatorIcEEEEEEPvEEEENS9_ISE_EEEC1B8ue170006INS_18__default_init_tagESH_EEOT_OT0_, symObjAddr: 0x92F8, symBinAddr: 0x10000C960, symSize: 0x3C }
  - { offsetInCU: 0x2D418, offset: 0x2D418, size: 0x8, addend: 0x0, symName: __ZNKSt3__112__hash_tableINS_17__hash_value_typeIN5Token9TokenTypeENS_12basic_stringIcNS_11char_traitsIcEENS_9allocatorIcEEEEEENS_22__unordered_map_hasherIS3_SA_NS_4hashIS3_EENS_8equal_toIS3_EELb1EEENS_21__unordered_map_equalIS3_SA_SF_SD_Lb1EEENS7_ISA_EEE13hash_functionB8ue170006Ev, symObjAddr: 0x9334, symBinAddr: 0x10000C99C, symSize: 0x28 }
  - { offsetInCU: 0x2D43E, offset: 0x2D43E, size: 0x8, addend: 0x0, symName: __ZNSt3__117__compressed_pairImNS_22__unordered_map_hasherIN5Token9TokenTypeENS_17__hash_value_typeIS3_NS_12basic_stringIcNS_11char_traitsIcEENS_9allocatorIcEEEEEENS_4hashIS3_EENS_8equal_toIS3_EELb1EEEEC1B8ue170006IiRKSG_EEOT_OT0_, symObjAddr: 0x935C, symBinAddr: 0x10000C9C4, symSize: 0x3C }
  - { offsetInCU: 0x2D496, offset: 0x2D496, size: 0x8, addend: 0x0, symName: __ZNKSt3__117__compressed_pairImNS_9allocatorIPNS_16__hash_node_baseIPNS_11__hash_nodeINS_17__hash_value_typeIN5Token9TokenTypeENS_12basic_stringIcNS_11char_traitsIcEENS1_IcEEEEEEPvEEEEEEE6secondB8ue170006Ev, symObjAddr: 0x9398, symBinAddr: 0x10000CA00, symSize: 0x24 }
  - { offsetInCU: 0x2D4BC, offset: 0x2D4BC, size: 0x8, addend: 0x0, symName: __ZNKSt3__122__compressed_pair_elemINS_9allocatorIPNS_16__hash_node_baseIPNS_11__hash_nodeINS_17__hash_value_typeIN5Token9TokenTypeENS_12basic_stringIcNS_11char_traitsIcEENS1_IcEEEEEEPvEEEEEELi1ELb1EE5__getB8ue170006Ev, symObjAddr: 0x93BC, symBinAddr: 0x10000CA24, symSize: 0x14 }
  - { offsetInCU: 0x2D4E2, offset: 0x2D4E2, size: 0x8, addend: 0x0, symName: __ZNSt3__125__bucket_list_deallocatorINS_9allocatorIPNS_16__hash_node_baseIPNS_11__hash_nodeINS_17__hash_value_typeIN5Token9TokenTypeENS_12basic_stringIcNS_11char_traitsIcEENS1_IcEEEEEEPvEEEEEEEC2B8ue170006ERKSI_m, symObjAddr: 0x93D0, symBinAddr: 0x10000CA38, symSize: 0x44 }
  - { offsetInCU: 0x2D52A, offset: 0x2D52A, size: 0x8, addend: 0x0, symName: __ZNSt3__117__compressed_pairImNS_9allocatorIPNS_16__hash_node_baseIPNS_11__hash_nodeINS_17__hash_value_typeIN5Token9TokenTypeENS_12basic_stringIcNS_11char_traitsIcEENS1_IcEEEEEEPvEEEEEEEC1B8ue170006IRmRKSI_EEOT_OT0_, symObjAddr: 0x9414, symBinAddr: 0x10000CA7C, symSize: 0x3C }
  - { offsetInCU: 0x2D582, offset: 0x2D582, size: 0x8, addend: 0x0, symName: __ZNSt3__117__compressed_pairImNS_9allocatorIPNS_16__hash_node_baseIPNS_11__hash_nodeINS_17__hash_value_typeIN5Token9TokenTypeENS_12basic_stringIcNS_11char_traitsIcEENS1_IcEEEEEEPvEEEEEEEC2B8ue170006IRmRKSI_EEOT_OT0_, symObjAddr: 0x9450, symBinAddr: 0x10000CAB8, symSize: 0x44 }
  - { offsetInCU: 0x2D5DA, offset: 0x2D5DA, size: 0x8, addend: 0x0, symName: __ZNSt3__122__compressed_pair_elemImLi0ELb0EEC2B8ue170006IRmvEEOT_, symObjAddr: 0x9494, symBinAddr: 0x10000CAFC, symSize: 0x24 }
  - { offsetInCU: 0x2D61C, offset: 0x2D61C, size: 0x8, addend: 0x0, symName: __ZNSt3__122__compressed_pair_elemINS_9allocatorIPNS_16__hash_node_baseIPNS_11__hash_nodeINS_17__hash_value_typeIN5Token9TokenTypeENS_12basic_stringIcNS_11char_traitsIcEENS1_IcEEEEEEPvEEEEEELi1ELb1EEC2B8ue170006IRKSI_vEEOT_, symObjAddr: 0x94B8, symBinAddr: 0x10000CB20, symSize: 0x18 }
  - { offsetInCU: 0x2D65E, offset: 0x2D65E, size: 0x8, addend: 0x0, symName: __ZNSt3__110unique_ptrIA_PNS_16__hash_node_baseIPNS_11__hash_nodeINS_17__hash_value_typeIN5Token9TokenTypeENS_12basic_stringIcNS_11char_traitsIcEENS_9allocatorIcEEEEEEPvEEEENS_25__bucket_list_deallocatorINS9_ISH_EEEEEC2B8ue170006ILb1EvEEDnNS_16__dependent_typeINS_27__unique_ptr_deleter_sfinaeISL_EEXT_EE20__good_rval_ref_typeE, symObjAddr: 0x94D0, symBinAddr: 0x10000CB38, symSize: 0x48 }
  - { offsetInCU: 0x2D6AE, offset: 0x2D6AE, size: 0x8, addend: 0x0, symName: __ZNSt3__117__compressed_pairIPPNS_16__hash_node_baseIPNS_11__hash_nodeINS_17__hash_value_typeIN5Token9TokenTypeENS_12basic_stringIcNS_11char_traitsIcEENS_9allocatorIcEEEEEEPvEEEENS_25__bucket_list_deallocatorINS9_ISH_EEEEEC1B8ue170006IDnSL_EEOT_OT0_, symObjAddr: 0x9518, symBinAddr: 0x10000CB80, symSize: 0x3C }
  - { offsetInCU: 0x2D706, offset: 0x2D706, size: 0x8, addend: 0x0, symName: __ZNSt3__117__compressed_pairIPPNS_16__hash_node_baseIPNS_11__hash_nodeINS_17__hash_value_typeIN5Token9TokenTypeENS_12basic_stringIcNS_11char_traitsIcEENS_9allocatorIcEEEEEEPvEEEENS_25__bucket_list_deallocatorINS9_ISH_EEEEEC2B8ue170006IDnSL_EEOT_OT0_, symObjAddr: 0x9554, symBinAddr: 0x10000CBBC, symSize: 0x48 }
  - { offsetInCU: 0x2D75E, offset: 0x2D75E, size: 0x8, addend: 0x0, symName: __ZNSt3__122__compressed_pair_elemIPPNS_16__hash_node_baseIPNS_11__hash_nodeINS_17__hash_value_typeIN5Token9TokenTypeENS_12basic_stringIcNS_11char_traitsIcEENS_9allocatorIcEEEEEEPvEEEELi0ELb0EEC2B8ue170006IDnvEEOT_, symObjAddr: 0x959C, symBinAddr: 0x10000CC04, symSize: 0x1C }
  - { offsetInCU: 0x2D7A0, offset: 0x2D7A0, size: 0x8, addend: 0x0, symName: __ZNSt3__122__compressed_pair_elemINS_25__bucket_list_deallocatorINS_9allocatorIPNS_16__hash_node_baseIPNS_11__hash_nodeINS_17__hash_value_typeIN5Token9TokenTypeENS_12basic_stringIcNS_11char_traitsIcEENS2_IcEEEEEEPvEEEEEEEELi1ELb0EEC2B8ue170006ISK_vEEOT_, symObjAddr: 0x95B8, symBinAddr: 0x10000CC20, symSize: 0x34 }
  - { offsetInCU: 0x2D7E2, offset: 0x2D7E2, size: 0x8, addend: 0x0, symName: __ZNSt3__125__bucket_list_deallocatorINS_9allocatorIPNS_16__hash_node_baseIPNS_11__hash_nodeINS_17__hash_value_typeIN5Token9TokenTypeENS_12basic_stringIcNS_11char_traitsIcEENS1_IcEEEEEEPvEEEEEEEC1B8ue170006EOSJ_, symObjAddr: 0x95EC, symBinAddr: 0x10000CC54, symSize: 0x34 }
  - { offsetInCU: 0x2D81B, offset: 0x2D81B, size: 0x8, addend: 0x0, symName: __ZNSt3__125__bucket_list_deallocatorINS_9allocatorIPNS_16__hash_node_baseIPNS_11__hash_nodeINS_17__hash_value_typeIN5Token9TokenTypeENS_12basic_stringIcNS_11char_traitsIcEENS1_IcEEEEEEPvEEEEEEEC2B8ue170006EOSJ_, symObjAddr: 0x9620, symBinAddr: 0x10000CC88, symSize: 0x48 }
  - { offsetInCU: 0x2D854, offset: 0x2D854, size: 0x8, addend: 0x0, symName: __ZNKSt3__117__compressed_pairINS_16__hash_node_baseIPNS_11__hash_nodeINS_17__hash_value_typeIN5Token9TokenTypeENS_12basic_stringIcNS_11char_traitsIcEENS_9allocatorIcEEEEEEPvEEEENS9_ISE_EEE6secondB8ue170006Ev, symObjAddr: 0x9668, symBinAddr: 0x10000CCD0, symSize: 0x24 }
  - { offsetInCU: 0x2D87A, offset: 0x2D87A, size: 0x8, addend: 0x0, symName: __ZNKSt3__122__compressed_pair_elemINS_9allocatorINS_11__hash_nodeINS_17__hash_value_typeIN5Token9TokenTypeENS_12basic_stringIcNS_11char_traitsIcEENS1_IcEEEEEEPvEEEELi1ELb1EE5__getB8ue170006Ev, symObjAddr: 0x968C, symBinAddr: 0x10000CCF4, symSize: 0x14 }
  - { offsetInCU: 0x2D8A0, offset: 0x2D8A0, size: 0x8, addend: 0x0, symName: __ZNSt3__117__compressed_pairINS_16__hash_node_baseIPNS_11__hash_nodeINS_17__hash_value_typeIN5Token9TokenTypeENS_12basic_stringIcNS_11char_traitsIcEENS_9allocatorIcEEEEEEPvEEEENS9_ISE_EEEC2B8ue170006INS_18__default_init_tagESH_EEOT_OT0_, symObjAddr: 0x96A0, symBinAddr: 0x10000CD08, symSize: 0x40 }
  - { offsetInCU: 0x2D8F8, offset: 0x2D8F8, size: 0x8, addend: 0x0, symName: __ZNSt3__122__compressed_pair_elemINS_16__hash_node_baseIPNS_11__hash_nodeINS_17__hash_value_typeIN5Token9TokenTypeENS_12basic_stringIcNS_11char_traitsIcEENS_9allocatorIcEEEEEEPvEEEELi0ELb0EEC2B8ue170006ENS_18__default_init_tagE, symObjAddr: 0x96E0, symBinAddr: 0x10000CD48, symSize: 0x2C }
  - { offsetInCU: 0x2D92D, offset: 0x2D92D, size: 0x8, addend: 0x0, symName: __ZNSt3__122__compressed_pair_elemINS_9allocatorINS_11__hash_nodeINS_17__hash_value_typeIN5Token9TokenTypeENS_12basic_stringIcNS_11char_traitsIcEENS1_IcEEEEEEPvEEEELi1ELb1EEC2B8ue170006ISE_vEEOT_, symObjAddr: 0x970C, symBinAddr: 0x10000CD74, symSize: 0x18 }
  - { offsetInCU: 0x2D96F, offset: 0x2D96F, size: 0x8, addend: 0x0, symName: __ZNKSt3__117__compressed_pairImNS_22__unordered_map_hasherIN5Token9TokenTypeENS_17__hash_value_typeIS3_NS_12basic_stringIcNS_11char_traitsIcEENS_9allocatorIcEEEEEENS_4hashIS3_EENS_8equal_toIS3_EELb1EEEE6secondB8ue170006Ev, symObjAddr: 0x9724, symBinAddr: 0x10000CD8C, symSize: 0x24 }
  - { offsetInCU: 0x2D995, offset: 0x2D995, size: 0x8, addend: 0x0, symName: __ZNKSt3__122__compressed_pair_elemINS_22__unordered_map_hasherIN5Token9TokenTypeENS_17__hash_value_typeIS3_NS_12basic_stringIcNS_11char_traitsIcEENS_9allocatorIcEEEEEENS_4hashIS3_EENS_8equal_toIS3_EELb1EEELi1ELb1EE5__getB8ue170006Ev, symObjAddr: 0x9748, symBinAddr: 0x10000CDB0, symSize: 0x14 }
  - { offsetInCU: 0x2D9BB, offset: 0x2D9BB, size: 0x8, addend: 0x0, symName: __ZNSt3__117__compressed_pairImNS_22__unordered_map_hasherIN5Token9TokenTypeENS_17__hash_value_typeIS3_NS_12basic_stringIcNS_11char_traitsIcEENS_9allocatorIcEEEEEENS_4hashIS3_EENS_8equal_toIS3_EELb1EEEEC2B8ue170006IiRKSG_EEOT_OT0_, symObjAddr: 0x975C, symBinAddr: 0x10000CDC4, symSize: 0x44 }
  - { offsetInCU: 0x2DA13, offset: 0x2DA13, size: 0x8, addend: 0x0, symName: __ZNSt3__122__compressed_pair_elemINS_22__unordered_map_hasherIN5Token9TokenTypeENS_17__hash_value_typeIS3_NS_12basic_stringIcNS_11char_traitsIcEENS_9allocatorIcEEEEEENS_4hashIS3_EENS_8equal_toIS3_EELb1EEELi1ELb1EEC2B8ue170006IRKSG_vEEOT_, symObjAddr: 0x97A0, symBinAddr: 0x10000CE08, symSize: 0x18 }
  - { offsetInCU: 0x2DA55, offset: 0x2DA55, size: 0x8, addend: 0x0, symName: __ZNKSt3__125__hash_map_const_iteratorINS_21__hash_const_iteratorIPNS_11__hash_nodeINS_17__hash_value_typeIN5Token9TokenTypeENS_12basic_stringIcNS_11char_traitsIcEENS_9allocatorIcEEEEEEPvEEEEEdeB8ue170006Ev, symObjAddr: 0x97E8, symBinAddr: 0x10000CE50, symSize: 0x28 }
  - { offsetInCU: 0x2DA7B, offset: 0x2DA7B, size: 0x8, addend: 0x0, symName: __ZNSt3__125__hash_map_const_iteratorINS_21__hash_const_iteratorIPNS_11__hash_nodeINS_17__hash_value_typeIN5Token9TokenTypeENS_12basic_stringIcNS_11char_traitsIcEENS_9allocatorIcEEEEEEPvEEEEEppB8ue170006Ev, symObjAddr: 0x9810, symBinAddr: 0x10000CE78, symSize: 0x2C }
  - { offsetInCU: 0x2DAA1, offset: 0x2DAA1, size: 0x8, addend: 0x0, symName: __ZNKSt3__121__hash_const_iteratorIPNS_11__hash_nodeINS_17__hash_value_typeIN5Token9TokenTypeENS_12basic_stringIcNS_11char_traitsIcEENS_9allocatorIcEEEEEEPvEEEptB8ue170006Ev, symObjAddr: 0x98A0, symBinAddr: 0x10000CF08, symSize: 0x30 }
  - { offsetInCU: 0x2DAC7, offset: 0x2DAC7, size: 0x8, addend: 0x0, symName: __ZNSt3__114pointer_traitsIPKNS_17__hash_value_typeIN5Token9TokenTypeENS_12basic_stringIcNS_11char_traitsIcEENS_9allocatorIcEEEEEEE10pointer_toB8ue170006ERSB_, symObjAddr: 0x98D0, symBinAddr: 0x10000CF38, symSize: 0x14 }
  - { offsetInCU: 0x2DAEA, offset: 0x2DAEA, size: 0x8, addend: 0x0, symName: __ZNSt3__121__hash_const_iteratorIPNS_11__hash_nodeINS_17__hash_value_typeIN5Token9TokenTypeENS_12basic_stringIcNS_11char_traitsIcEENS_9allocatorIcEEEEEEPvEEEppB8ue170006Ev, symObjAddr: 0x98E4, symBinAddr: 0x10000CF4C, symSize: 0x20 }
  - { offsetInCU: 0x2DB10, offset: 0x2DB10, size: 0x8, addend: 0x0, symName: __ZNKSt3__112__hash_tableINS_17__hash_value_typeIN5Token9TokenTypeENS_12basic_stringIcNS_11char_traitsIcEENS_9allocatorIcEEEEEENS_22__unordered_map_hasherIS3_SA_NS_4hashIS3_EENS_8equal_toIS3_EELb1EEENS_21__unordered_map_equalIS3_SA_SF_SD_Lb1EEENS7_ISA_EEE5beginEv, symObjAddr: 0x9904, symBinAddr: 0x10000CF6C, symSize: 0x38 }
  - { offsetInCU: 0x2DB38, offset: 0x2DB38, size: 0x8, addend: 0x0, symName: __ZNSt3__125__hash_map_const_iteratorINS_21__hash_const_iteratorIPNS_11__hash_nodeINS_17__hash_value_typeIN5Token9TokenTypeENS_12basic_stringIcNS_11char_traitsIcEENS_9allocatorIcEEEEEEPvEEEEEC1B8ue170006ESG_, symObjAddr: 0x993C, symBinAddr: 0x10000CFA4, symSize: 0x34 }
  - { offsetInCU: 0x2DB71, offset: 0x2DB71, size: 0x8, addend: 0x0, symName: __ZNKSt3__117__compressed_pairINS_16__hash_node_baseIPNS_11__hash_nodeINS_17__hash_value_typeIN5Token9TokenTypeENS_12basic_stringIcNS_11char_traitsIcEENS_9allocatorIcEEEEEEPvEEEENS9_ISE_EEE5firstB8ue170006Ev, symObjAddr: 0x9970, symBinAddr: 0x10000CFD8, symSize: 0x24 }
  - { offsetInCU: 0x2DB97, offset: 0x2DB97, size: 0x8, addend: 0x0, symName: __ZNSt3__121__hash_const_iteratorIPNS_11__hash_nodeINS_17__hash_value_typeIN5Token9TokenTypeENS_12basic_stringIcNS_11char_traitsIcEENS_9allocatorIcEEEEEEPvEEEC1B8ue170006EPNS_16__hash_node_baseISE_EE, symObjAddr: 0x9994, symBinAddr: 0x10000CFFC, symSize: 0x34 }
  - { offsetInCU: 0x2DBD0, offset: 0x2DBD0, size: 0x8, addend: 0x0, symName: __ZNKSt3__122__compressed_pair_elemINS_16__hash_node_baseIPNS_11__hash_nodeINS_17__hash_value_typeIN5Token9TokenTypeENS_12basic_stringIcNS_11char_traitsIcEENS_9allocatorIcEEEEEEPvEEEELi0ELb0EE5__getB8ue170006Ev, symObjAddr: 0x99C8, symBinAddr: 0x10000D030, symSize: 0x14 }
  - { offsetInCU: 0x2DBF6, offset: 0x2DBF6, size: 0x8, addend: 0x0, symName: __ZNSt3__121__hash_const_iteratorIPNS_11__hash_nodeINS_17__hash_value_typeIN5Token9TokenTypeENS_12basic_stringIcNS_11char_traitsIcEENS_9allocatorIcEEEEEEPvEEEC2B8ue170006EPNS_16__hash_node_baseISE_EE, symObjAddr: 0x99DC, symBinAddr: 0x10000D044, symSize: 0x20 }
  - { offsetInCU: 0x2DC2F, offset: 0x2DC2F, size: 0x8, addend: 0x0, symName: __ZNSt3__125__hash_map_const_iteratorINS_21__hash_const_iteratorIPNS_11__hash_nodeINS_17__hash_value_typeIN5Token9TokenTypeENS_12basic_stringIcNS_11char_traitsIcEENS_9allocatorIcEEEEEEPvEEEEEC2B8ue170006ESG_, symObjAddr: 0x99FC, symBinAddr: 0x10000D064, symSize: 0x20 }
  - { offsetInCU: 0x2DC68, offset: 0x2DC68, size: 0x8, addend: 0x0, symName: __ZNKSt3__112__hash_tableINS_17__hash_value_typeIN5Token9TokenTypeENS_12basic_stringIcNS_11char_traitsIcEENS_9allocatorIcEEEEEENS_22__unordered_map_hasherIS3_SA_NS_4hashIS3_EENS_8equal_toIS3_EELb1EEENS_21__unordered_map_equalIS3_SA_SF_SD_Lb1EEENS7_ISA_EEE3endEv, symObjAddr: 0x9A1C, symBinAddr: 0x10000D084, symSize: 0x2C }
  - { offsetInCU: 0x2DC96, offset: 0x2DC96, size: 0x8, addend: 0x0, symName: __ZNSt3__119__to_address_helperINS_16reverse_iteratorIP5TokenEEvE6__callB8ue170006ERKS4_, symObjAddr: 0x9A48, symBinAddr: 0x10000D0B0, symSize: 0x38 }
  - { offsetInCU: 0x2DCB9, offset: 0x2DCB9, size: 0x8, addend: 0x0, symName: __ZNKSt3__116reverse_iteratorIP5TokenEptB8ue170006Ev, symObjAddr: 0x9A80, symBinAddr: 0x10000D0E8, symSize: 0x24 }
  - { offsetInCU: 0x2DCDF, offset: 0x2DCDF, size: 0x8, addend: 0x0, symName: __ZNSt3__128__exception_guard_exceptionsINS_29_AllocatorDestroyRangeReverseINS_9allocatorI5TokenEENS_16reverse_iteratorIPS3_EEEEED2B8ue170006Ev, symObjAddr: 0x9AA4, symBinAddr: 0x10000D10C, symSize: 0x50 }
  - { offsetInCU: 0x2DD09, offset: 0x2DD09, size: 0x8, addend: 0x0, symName: __ZNKSt3__129_AllocatorDestroyRangeReverseINS_9allocatorI5TokenEENS_16reverse_iteratorIPS2_EEEclB8ue170006Ev, symObjAddr: 0x9AF4, symBinAddr: 0x10000D15C, symSize: 0xB4 }
  - { offsetInCU: 0x2DD30, offset: 0x2DD30, size: 0x8, addend: 0x0, symName: __ZNSt3__116reverse_iteratorINS0_IP5TokenEEEC1B8ue170006ES3_, symObjAddr: 0x9C18, symBinAddr: 0x10000D280, symSize: 0x3C }
  - { offsetInCU: 0x2DD68, offset: 0x2DD68, size: 0x8, addend: 0x0, symName: __ZNSt3__116allocator_traitsINS_9allocatorI5TokenEEE7destroyB8ue170006IS2_vEEvRS3_PT_, symObjAddr: 0x9CB4, symBinAddr: 0x10000D31C, symSize: 0x2C }
  - { offsetInCU: 0x2DDA5, offset: 0x2DDA5, size: 0x8, addend: 0x0, symName: __ZNSt3__116reverse_iteratorINS0_IP5TokenEEEppB8ue170006Ev, symObjAddr: 0x9D04, symBinAddr: 0x10000D36C, symSize: 0x30 }
  - { offsetInCU: 0x2DDCB, offset: 0x2DDCB, size: 0x8, addend: 0x0, symName: __ZNKSt3__116reverse_iteratorINS0_IP5TokenEEE4baseB8ue170006Ev, symObjAddr: 0x9D34, symBinAddr: 0x10000D39C, symSize: 0x24 }
  - { offsetInCU: 0x2DDF1, offset: 0x2DDF1, size: 0x8, addend: 0x0, symName: __ZNSt3__19allocatorI5TokenE7destroyB8ue170006EPS1_, symObjAddr: 0x9D58, symBinAddr: 0x10000D3C0, symSize: 0x28 }
  - { offsetInCU: 0x2DE25, offset: 0x2DE25, size: 0x8, addend: 0x0, symName: __ZN5TokenD1Ev, symObjAddr: 0x9D80, symBinAddr: 0x10000D3E8, symSize: 0x2C }
  - { offsetInCU: 0x2DE51, offset: 0x2DE51, size: 0x8, addend: 0x0, symName: __ZN5TokenD2Ev, symObjAddr: 0x9DAC, symBinAddr: 0x10000D414, symSize: 0x38 }
  - { offsetInCU: 0x2DE83, offset: 0x2DE83, size: 0x8, addend: 0x0, symName: __ZNSt3__119__to_address_helperINS_16reverse_iteratorINS1_IP5TokenEEEEvE6__callB8ue170006ERKS5_, symObjAddr: 0x9DE4, symBinAddr: 0x10000D44C, symSize: 0x38 }
  - { offsetInCU: 0x2DEA6, offset: 0x2DEA6, size: 0x8, addend: 0x0, symName: __ZNKSt3__116reverse_iteratorINS0_IP5TokenEEEptB8ue170006Ev, symObjAddr: 0x9E1C, symBinAddr: 0x10000D484, symSize: 0x24 }
  - { offsetInCU: 0x2DECC, offset: 0x2DECC, size: 0x8, addend: 0x0, symName: __ZNKSt3__116reverse_iteratorINS0_IP5TokenEEEdeB8ue170006Ev, symObjAddr: 0x9E40, symBinAddr: 0x10000D4A8, symSize: 0x34 }
  - { offsetInCU: 0x2DF00, offset: 0x2DF00, size: 0x8, addend: 0x0, symName: __ZNSt3__116reverse_iteratorIP5TokenEmmB8ue170006Ev, symObjAddr: 0x9E74, symBinAddr: 0x10000D4DC, symSize: 0x20 }
  - { offsetInCU: 0x2DF26, offset: 0x2DF26, size: 0x8, addend: 0x0, symName: __ZNSt3__116reverse_iteratorINS0_IP5TokenEEEC2B8ue170006ES3_, symObjAddr: 0x9E94, symBinAddr: 0x10000D4FC, symSize: 0x2C }
  - { offsetInCU: 0x2DF5E, offset: 0x2DF5E, size: 0x8, addend: 0x0, symName: __ZNSt3__116reverse_iteratorIP5TokenEC2B8ue170006ES2_, symObjAddr: 0x9EC0, symBinAddr: 0x10000D528, symSize: 0x28 }
  - { offsetInCU: 0x2DF96, offset: 0x2DF96, size: 0x8, addend: 0x0, symName: __ZNSt3__114__split_bufferI5TokenRNS_9allocatorIS1_EEED2Ev, symObjAddr: 0x9EE8, symBinAddr: 0x10000D550, symSize: 0x8C }
  - { offsetInCU: 0x2DFC2, offset: 0x2DFC2, size: 0x8, addend: 0x0, symName: __ZNSt3__114__split_bufferI5TokenRNS_9allocatorIS1_EEE5clearB8ue170006Ev, symObjAddr: 0x9F74, symBinAddr: 0x10000D5DC, symSize: 0x28 }
  - { offsetInCU: 0x2DFE8, offset: 0x2DFE8, size: 0x8, addend: 0x0, symName: __ZNSt3__116allocator_traitsINS_9allocatorI5TokenEEE10deallocateB8ue170006ERS3_PS2_m, symObjAddr: 0x9F9C, symBinAddr: 0x10000D604, symSize: 0x34 }
  - { offsetInCU: 0x2E02A, offset: 0x2E02A, size: 0x8, addend: 0x0, symName: __ZNKSt3__114__split_bufferI5TokenRNS_9allocatorIS1_EEE8capacityB8ue170006Ev, symObjAddr: 0x9FD0, symBinAddr: 0x10000D638, symSize: 0x40 }
  - { offsetInCU: 0x2E050, offset: 0x2E050, size: 0x8, addend: 0x0, symName: __ZNSt3__114__split_bufferI5TokenRNS_9allocatorIS1_EEE17__destruct_at_endB8ue170006EPS1_, symObjAddr: 0xA010, symBinAddr: 0x10000D678, symSize: 0x2C }
  - { offsetInCU: 0x2E084, offset: 0x2E084, size: 0x8, addend: 0x0, symName: __ZNSt3__114__split_bufferI5TokenRNS_9allocatorIS1_EEE17__destruct_at_endB8ue170006EPS1_NS_17integral_constantIbLb0EEE, symObjAddr: 0xA03C, symBinAddr: 0x10000D6A4, symSize: 0x80 }
  - { offsetInCU: 0x2E0C5, offset: 0x2E0C5, size: 0x8, addend: 0x0, symName: __ZNSt3__19allocatorI5TokenE10deallocateB8ue170006EPS1_m, symObjAddr: 0xA0BC, symBinAddr: 0x10000D724, symSize: 0x44 }
  - { offsetInCU: 0x2E107, offset: 0x2E107, size: 0x8, addend: 0x0, symName: __ZNKSt3__114__split_bufferI5TokenRNS_9allocatorIS1_EEE9__end_capB8ue170006Ev, symObjAddr: 0xA100, symBinAddr: 0x10000D768, symSize: 0x28 }
  - { offsetInCU: 0x2E12D, offset: 0x2E12D, size: 0x8, addend: 0x0, symName: __ZNKSt3__117__compressed_pairIP5TokenRNS_9allocatorIS1_EEE5firstB8ue170006Ev, symObjAddr: 0xA128, symBinAddr: 0x10000D790, symSize: 0x24 }
  - { offsetInCU: 0x2E153, offset: 0x2E153, size: 0x8, addend: 0x0, symName: __ZNSt3__16vectorI5TokenNS_9allocatorIS1_EEE22__construct_one_at_endB8ue170006IJNS1_9TokenTypeERA6_KcRiEEEvDpOT_, symObjAddr: 0xA14C, symBinAddr: 0x10000D7B4, symSize: 0xA0 }
  - { offsetInCU: 0x2E1CA, offset: 0x2E1CA, size: 0x8, addend: 0x0, symName: __ZNSt3__16vectorI5TokenNS_9allocatorIS1_EEE24__emplace_back_slow_pathIJNS1_9TokenTypeERA6_KcRiEEEvDpOT_, symObjAddr: 0xA1EC, symBinAddr: 0x10000D854, symSize: 0xE8 }
  - { offsetInCU: 0x2E252, offset: 0x2E252, size: 0x8, addend: 0x0, symName: __ZNSt3__116allocator_traitsINS_9allocatorI5TokenEEE9constructB8ue170006IS2_JNS2_9TokenTypeERA6_KcRiEvEEvRS3_PT_DpOT0_, symObjAddr: 0xA2D4, symBinAddr: 0x10000D93C, symSize: 0x44 }
  - { offsetInCU: 0x2E2D1, offset: 0x2E2D1, size: 0x8, addend: 0x0, symName: __ZNSt3__19allocatorI5TokenE9constructB8ue170006IS1_JNS1_9TokenTypeERA6_KcRiEEEvPT_DpOT0_, symObjAddr: 0xA318, symBinAddr: 0x10000D980, symSize: 0x94 }
  - { offsetInCU: 0x2E34D, offset: 0x2E34D, size: 0x8, addend: 0x0, symName: __ZNSt3__16vectorI5TokenNS_9allocatorIS1_EEE22__construct_one_at_endB8ue170006IJNS1_9TokenTypeERNS_12basic_stringIcNS_11char_traitsIcEENS2_IcEEEERiEEEvDpOT_, symObjAddr: 0xA3AC, symBinAddr: 0x10000DA14, symSize: 0xA0 }
  - { offsetInCU: 0x2E3C4, offset: 0x2E3C4, size: 0x8, addend: 0x0, symName: __ZNSt3__16vectorI5TokenNS_9allocatorIS1_EEE24__emplace_back_slow_pathIJNS1_9TokenTypeERNS_12basic_stringIcNS_11char_traitsIcEENS2_IcEEEERiEEEvDpOT_, symObjAddr: 0xA44C, symBinAddr: 0x10000DAB4, symSize: 0xE8 }
  - { offsetInCU: 0x2E44C, offset: 0x2E44C, size: 0x8, addend: 0x0, symName: __ZNSt3__116allocator_traitsINS_9allocatorI5TokenEEE9constructB8ue170006IS2_JNS2_9TokenTypeERNS_12basic_stringIcNS_11char_traitsIcEENS1_IcEEEERiEvEEvRS3_PT_DpOT0_, symObjAddr: 0xA534, symBinAddr: 0x10000DB9C, symSize: 0x44 }
  - { offsetInCU: 0x2E4CB, offset: 0x2E4CB, size: 0x8, addend: 0x0, symName: __ZNSt3__19allocatorI5TokenE9constructB8ue170006IS1_JNS1_9TokenTypeERNS_12basic_stringIcNS_11char_traitsIcEENS0_IcEEEERiEEEvPT_DpOT0_, symObjAddr: 0xA578, symBinAddr: 0x10000DBE0, symSize: 0x94 }
  - { offsetInCU: 0x2E54D, offset: 0x2E54D, size: 0x8, addend: 0x0, symName: __ZNSt3__16vectorI5TokenNS_9allocatorIS1_EEE12emplace_backIJNS1_9TokenTypeENS_12basic_stringIcNS_11char_traitsIcEENS2_IcEEEERiEEERS1_DpOT_, symObjAddr: 0xA60C, symBinAddr: 0x10000DC74, symSize: 0x8C }
  - { offsetInCU: 0x2E5B7, offset: 0x2E5B7, size: 0x8, addend: 0x0, symName: __ZNSt3__16vectorI5TokenNS_9allocatorIS1_EEE22__construct_one_at_endB8ue170006IJNS1_9TokenTypeENS_12basic_stringIcNS_11char_traitsIcEENS2_IcEEEERiEEEvDpOT_, symObjAddr: 0xA698, symBinAddr: 0x10000DD00, symSize: 0xA0 }
  - { offsetInCU: 0x2E62E, offset: 0x2E62E, size: 0x8, addend: 0x0, symName: __ZNSt3__16vectorI5TokenNS_9allocatorIS1_EEE24__emplace_back_slow_pathIJNS1_9TokenTypeENS_12basic_stringIcNS_11char_traitsIcEENS2_IcEEEERiEEEvDpOT_, symObjAddr: 0xA738, symBinAddr: 0x10000DDA0, symSize: 0xE8 }
  - { offsetInCU: 0x2E6B6, offset: 0x2E6B6, size: 0x8, addend: 0x0, symName: __ZNSt3__116allocator_traitsINS_9allocatorI5TokenEEE9constructB8ue170006IS2_JNS2_9TokenTypeENS_12basic_stringIcNS_11char_traitsIcEENS1_IcEEEERiEvEEvRS3_PT_DpOT0_, symObjAddr: 0xA820, symBinAddr: 0x10000DE88, symSize: 0x44 }
  - { offsetInCU: 0x2E735, offset: 0x2E735, size: 0x8, addend: 0x0, symName: __ZNSt3__19allocatorI5TokenE9constructB8ue170006IS1_JNS1_9TokenTypeENS_12basic_stringIcNS_11char_traitsIcEENS0_IcEEEERiEEEvPT_DpOT0_, symObjAddr: 0xA864, symBinAddr: 0x10000DECC, symSize: 0x94 }
  - { offsetInCU: 0x2E7B1, offset: 0x2E7B1, size: 0x8, addend: 0x0, symName: __ZNKSt3__112basic_stringIcNS_11char_traitsIcEENS_9allocatorIcEEE15__get_long_sizeB8ue170006Ev, symObjAddr: 0xA8F8, symBinAddr: 0x10000DF60, symSize: 0x28 }
  - { offsetInCU: 0x2E7D7, offset: 0x2E7D7, size: 0x8, addend: 0x0, symName: __ZNKSt3__112basic_stringIcNS_11char_traitsIcEENS_9allocatorIcEEE16__get_short_sizeB8ue170006Ev, symObjAddr: 0xA920, symBinAddr: 0x10000DF88, symSize: 0x34 }
  - { offsetInCU: 0x2E7FD, offset: 0x2E7FD, size: 0x8, addend: 0x0, symName: __ZNSt3__16vectorI5TokenNS_9allocatorIS1_EEE22__construct_one_at_endB8ue170006IJRNS1_9TokenTypeERNS_12basic_stringIcNS_11char_traitsIcEENS2_IcEEEERiEEEvDpOT_, symObjAddr: 0xA954, symBinAddr: 0x10000DFBC, symSize: 0xA0 }
  - { offsetInCU: 0x2E874, offset: 0x2E874, size: 0x8, addend: 0x0, symName: __ZNSt3__16vectorI5TokenNS_9allocatorIS1_EEE24__emplace_back_slow_pathIJRNS1_9TokenTypeERNS_12basic_stringIcNS_11char_traitsIcEENS2_IcEEEERiEEEvDpOT_, symObjAddr: 0xA9F4, symBinAddr: 0x10000E05C, symSize: 0xE8 }
  - { offsetInCU: 0x2E8FC, offset: 0x2E8FC, size: 0x8, addend: 0x0, symName: __ZNSt3__116allocator_traitsINS_9allocatorI5TokenEEE9constructB8ue170006IS2_JRNS2_9TokenTypeERNS_12basic_stringIcNS_11char_traitsIcEENS1_IcEEEERiEvEEvRS3_PT_DpOT0_, symObjAddr: 0xAADC, symBinAddr: 0x10000E144, symSize: 0x44 }
  - { offsetInCU: 0x2E97B, offset: 0x2E97B, size: 0x8, addend: 0x0, symName: __ZNSt3__19allocatorI5TokenE9constructB8ue170006IS1_JRNS1_9TokenTypeERNS_12basic_stringIcNS_11char_traitsIcEENS0_IcEEEERiEEEvPT_DpOT0_, symObjAddr: 0xAB20, symBinAddr: 0x10000E188, symSize: 0x94 }
  - { offsetInCU: 0x2E9F7, offset: 0x2E9F7, size: 0x8, addend: 0x0, symName: __ZNSt3__16vectorI5TokenNS_9allocatorIS1_EEE22__construct_one_at_endB8ue170006IJNS1_9TokenTypeERA1_KcRiEEEvDpOT_, symObjAddr: 0xABB4, symBinAddr: 0x10000E21C, symSize: 0xA0 }
  - { offsetInCU: 0x2EA6E, offset: 0x2EA6E, size: 0x8, addend: 0x0, symName: __ZNSt3__16vectorI5TokenNS_9allocatorIS1_EEE24__emplace_back_slow_pathIJNS1_9TokenTypeERA1_KcRiEEEvDpOT_, symObjAddr: 0xAC54, symBinAddr: 0x10000E2BC, symSize: 0xE8 }
  - { offsetInCU: 0x2EAF6, offset: 0x2EAF6, size: 0x8, addend: 0x0, symName: __ZNSt3__116allocator_traitsINS_9allocatorI5TokenEEE9constructB8ue170006IS2_JNS2_9TokenTypeERA1_KcRiEvEEvRS3_PT_DpOT0_, symObjAddr: 0xAD3C, symBinAddr: 0x10000E3A4, symSize: 0x44 }
  - { offsetInCU: 0x2EB75, offset: 0x2EB75, size: 0x8, addend: 0x0, symName: __ZNSt3__19allocatorI5TokenE9constructB8ue170006IS1_JNS1_9TokenTypeERA1_KcRiEEEvPT_DpOT0_, symObjAddr: 0xAD80, symBinAddr: 0x10000E3E8, symSize: 0x94 }
  - { offsetInCU: 0x2EBF1, offset: 0x2EBF1, size: 0x8, addend: 0x0, symName: __ZNSt3__16vectorI5TokenNS_9allocatorIS1_EEEC2ERKS4_, symObjAddr: 0xAE14, symBinAddr: 0x10000E47C, symSize: 0x94 }
  - { offsetInCU: 0x2EC2C, offset: 0x2EC2C, size: 0x8, addend: 0x0, symName: __ZNSt3__116allocator_traitsINS_9allocatorI5TokenEEE37select_on_container_copy_constructionB8ue170006IS3_vvEES3_RKS3_, symObjAddr: 0xAEA8, symBinAddr: 0x10000E510, symSize: 0x10 }
  - { offsetInCU: 0x2EC61, offset: 0x2EC61, size: 0x8, addend: 0x0, symName: __ZNSt3__117__compressed_pairIP5TokenNS_9allocatorIS1_EEEC1B8ue170006IDnS4_EEOT_OT0_, symObjAddr: 0xAEB8, symBinAddr: 0x10000E520, symSize: 0x3C }
  - { offsetInCU: 0x2ECB9, offset: 0x2ECB9, size: 0x8, addend: 0x0, symName: __ZNSt3__16vectorI5TokenNS_9allocatorIS1_EEE16__init_with_sizeB8ue170006IPS1_S6_EEvT_T0_m, symObjAddr: 0xAEF4, symBinAddr: 0x10000E55C, symSize: 0xB8 }
  - { offsetInCU: 0x2ED2D, offset: 0x2ED2D, size: 0x8, addend: 0x0, symName: __ZNSt3__117__compressed_pairIP5TokenNS_9allocatorIS1_EEEC2B8ue170006IDnS4_EEOT_OT0_, symObjAddr: 0xAFAC, symBinAddr: 0x10000E614, symSize: 0x44 }
  - { offsetInCU: 0x2ED85, offset: 0x2ED85, size: 0x8, addend: 0x0, symName: __ZNSt3__122__compressed_pair_elemINS_9allocatorI5TokenEELi1ELb1EEC2B8ue170006IS3_vEEOT_, symObjAddr: 0xAFF0, symBinAddr: 0x10000E658, symSize: 0x18 }
  - { offsetInCU: 0x2EDC7, offset: 0x2EDC7, size: 0x8, addend: 0x0, symName: __ZNSt3__16vectorI5TokenNS_9allocatorIS1_EEE16__destroy_vectorC1B8ue170006ERS4_, symObjAddr: 0xB048, symBinAddr: 0x10000E6B0, symSize: 0x34 }
  - { offsetInCU: 0x2EE00, offset: 0x2EE00, size: 0x8, addend: 0x0, symName: __ZNSt3__16vectorI5TokenNS_9allocatorIS1_EEE11__vallocateB8ue170006Em, symObjAddr: 0xB07C, symBinAddr: 0x10000E6E4, symSize: 0xB4 }
  - { offsetInCU: 0x2EE44, offset: 0x2EE44, size: 0x8, addend: 0x0, symName: __ZNSt3__16vectorI5TokenNS_9allocatorIS1_EEE18__construct_at_endIPS1_S6_EEvT_T0_m, symObjAddr: 0xB130, symBinAddr: 0x10000E798, symSize: 0x8C }
  - { offsetInCU: 0x2EEBA, offset: 0x2EEBA, size: 0x8, addend: 0x0, symName: __ZNSt3__128__exception_guard_exceptionsINS_6vectorI5TokenNS_9allocatorIS2_EEE16__destroy_vectorEE10__completeB8ue170006Ev, symObjAddr: 0xB1BC, symBinAddr: 0x10000E824, symSize: 0x1C }
  - { offsetInCU: 0x2EEE0, offset: 0x2EEE0, size: 0x8, addend: 0x0, symName: __ZNSt3__128__exception_guard_exceptionsINS_6vectorI5TokenNS_9allocatorIS2_EEE16__destroy_vectorEED1B8ue170006Ev, symObjAddr: 0xB1D8, symBinAddr: 0x10000E840, symSize: 0x2C }
  - { offsetInCU: 0x2EF0A, offset: 0x2EF0A, size: 0x8, addend: 0x0, symName: __ZNSt3__128__exception_guard_exceptionsINS_6vectorI5TokenNS_9allocatorIS2_EEE16__destroy_vectorEEC1B8ue170006ES6_, symObjAddr: 0xB204, symBinAddr: 0x10000E86C, symSize: 0x34 }
  - { offsetInCU: 0x2EF42, offset: 0x2EF42, size: 0x8, addend: 0x0, symName: __ZNSt3__128__exception_guard_exceptionsINS_6vectorI5TokenNS_9allocatorIS2_EEE16__destroy_vectorEEC2B8ue170006ES6_, symObjAddr: 0xB238, symBinAddr: 0x10000E8A0, symSize: 0x24 }
  - { offsetInCU: 0x2EF7A, offset: 0x2EF7A, size: 0x8, addend: 0x0, symName: __ZNSt3__16vectorI5TokenNS_9allocatorIS1_EEE16__destroy_vectorC2B8ue170006ERS4_, symObjAddr: 0xB25C, symBinAddr: 0x10000E8C4, symSize: 0x20 }
  - { offsetInCU: 0x2EFD5, offset: 0x2EFD5, size: 0x8, addend: 0x0, symName: __ZNSt3__14pairIP5TokenS2_EC1B8ue170006IS2_S2_LPv0EEEOT_OT0_, symObjAddr: 0xB4E8, symBinAddr: 0x10000EB50, symSize: 0x3C }
  - { offsetInCU: 0x2F033, offset: 0x2F033, size: 0x8, addend: 0x0, symName: __ZNSt3__14pairIP5TokenS2_EC2B8ue170006IS2_S2_LPv0EEEOT_OT0_, symObjAddr: 0xB524, symBinAddr: 0x10000EB8C, symSize: 0x34 }
  - { offsetInCU: 0x2F091, offset: 0x2F091, size: 0x8, addend: 0x0, symName: __ZNSt3__129_AllocatorDestroyRangeReverseINS_9allocatorI5TokenEEPS2_EC1B8ue170006ERS3_RS4_S7_, symObjAddr: 0xB5A4, symBinAddr: 0x10000EC0C, symSize: 0x44 }
  - { offsetInCU: 0x2F0E8, offset: 0x2F0E8, size: 0x8, addend: 0x0, symName: __ZNSt3__116allocator_traitsINS_9allocatorI5TokenEEE9constructB8ue170006IS2_JRS2_EvEEvRS3_PT_DpOT0_, symObjAddr: 0xB5E8, symBinAddr: 0x10000EC50, symSize: 0x34 }
  - { offsetInCU: 0x2F13F, offset: 0x2F13F, size: 0x8, addend: 0x0, symName: __ZNSt3__128__exception_guard_exceptionsINS_29_AllocatorDestroyRangeReverseINS_9allocatorI5TokenEEPS3_EEE10__completeB8ue170006Ev, symObjAddr: 0xB61C, symBinAddr: 0x10000EC84, symSize: 0x1C }
  - { offsetInCU: 0x2F165, offset: 0x2F165, size: 0x8, addend: 0x0, symName: __ZNSt3__128__exception_guard_exceptionsINS_29_AllocatorDestroyRangeReverseINS_9allocatorI5TokenEEPS3_EEED1B8ue170006Ev, symObjAddr: 0xB638, symBinAddr: 0x10000ECA0, symSize: 0x2C }
  - { offsetInCU: 0x2F18F, offset: 0x2F18F, size: 0x8, addend: 0x0, symName: __ZNSt3__128__exception_guard_exceptionsINS_29_AllocatorDestroyRangeReverseINS_9allocatorI5TokenEEPS3_EEEC1B8ue170006ES6_, symObjAddr: 0xB664, symBinAddr: 0x10000ECCC, symSize: 0x34 }
  - { offsetInCU: 0x2F1C8, offset: 0x2F1C8, size: 0x8, addend: 0x0, symName: __ZNSt3__128__exception_guard_exceptionsINS_29_AllocatorDestroyRangeReverseINS_9allocatorI5TokenEEPS3_EEEC2B8ue170006ES6_, symObjAddr: 0xB698, symBinAddr: 0x10000ED00, symSize: 0x30 }
  - { offsetInCU: 0x2F201, offset: 0x2F201, size: 0x8, addend: 0x0, symName: __ZNSt3__129_AllocatorDestroyRangeReverseINS_9allocatorI5TokenEEPS2_EC2B8ue170006ERS3_RS4_S7_, symObjAddr: 0xB6C8, symBinAddr: 0x10000ED30, symSize: 0x38 }
  - { offsetInCU: 0x2F258, offset: 0x2F258, size: 0x8, addend: 0x0, symName: __ZNSt3__19allocatorI5TokenE9constructB8ue170006IS1_JRS1_EEEvPT_DpOT0_, symObjAddr: 0xB700, symBinAddr: 0x10000ED68, symSize: 0x30 }
  - { offsetInCU: 0x2F2AE, offset: 0x2F2AE, size: 0x8, addend: 0x0, symName: __ZNSt3__128__exception_guard_exceptionsINS_29_AllocatorDestroyRangeReverseINS_9allocatorI5TokenEEPS3_EEED2B8ue170006Ev, symObjAddr: 0xB730, symBinAddr: 0x10000ED98, symSize: 0x50 }
  - { offsetInCU: 0x2F2D8, offset: 0x2F2D8, size: 0x8, addend: 0x0, symName: __ZNKSt3__129_AllocatorDestroyRangeReverseINS_9allocatorI5TokenEEPS2_EclB8ue170006Ev, symObjAddr: 0xB780, symBinAddr: 0x10000EDE8, symSize: 0x68 }
  - { offsetInCU: 0x2F2FE, offset: 0x2F2FE, size: 0x8, addend: 0x0, symName: __ZNSt3__118__unwrap_iter_implIP5TokenLb1EE8__unwrapB8ue170006ES2_, symObjAddr: 0xB858, symBinAddr: 0x10000EEC0, symSize: 0x24 }
  - { offsetInCU: 0x2F321, offset: 0x2F321, size: 0x8, addend: 0x0, symName: __ZNSt3__118__unwrap_iter_implIP5TokenLb1EE8__rewrapB8ue170006ES2_S2_, symObjAddr: 0xB87C, symBinAddr: 0x10000EEE4, symSize: 0x58 }
  - { offsetInCU: 0x2F352, offset: 0x2F352, size: 0x8, addend: 0x0, symName: __ZNSt3__128__exception_guard_exceptionsINS_6vectorI5TokenNS_9allocatorIS2_EEE16__destroy_vectorEED2B8ue170006Ev, symObjAddr: 0xB8D4, symBinAddr: 0x10000EF3C, symSize: 0x50 }
  - { offsetInCU: 0x2F37C, offset: 0x2F37C, size: 0x8, addend: 0x0, symName: __ZNSt3__16vectorI5TokenNS_9allocatorIS1_EEE16__destroy_vectorclB8ue170006Ev, symObjAddr: 0xB924, symBinAddr: 0x10000EF8C, symSize: 0x90 }
  - { offsetInCU: 0x2F3A2, offset: 0x2F3A2, size: 0x8, addend: 0x0, symName: __ZNSt3__16vectorI5TokenNS_9allocatorIS1_EEE7__clearB8ue170006Ev, symObjAddr: 0xB9B4, symBinAddr: 0x10000F01C, symSize: 0x28 }
  - { offsetInCU: 0x2F3C8, offset: 0x2F3C8, size: 0x8, addend: 0x0, symName: __ZNSt3__16vectorI5TokenNS_9allocatorIS1_EEE22__base_destruct_at_endB8ue170006EPS1_, symObjAddr: 0xB9DC, symBinAddr: 0x10000F044, symSize: 0x8C }
  - { offsetInCU: 0x2F40C, offset: 0x2F40C, size: 0x8, addend: 0x0, symName: __ZN6ParserC2ERNSt3__16vectorI5TokenNS0_9allocatorIS2_EEEE, symObjAddr: 0xBA68, symBinAddr: 0x10000F0D0, symSize: 0x44 }
  - { offsetInCU: 0x2F444, offset: 0x2F444, size: 0x8, addend: 0x0, symName: __ZN7DatalogC1Ev, symObjAddr: 0xBAAC, symBinAddr: 0x10000F114, symSize: 0x2C }
  - { offsetInCU: 0x2F470, offset: 0x2F470, size: 0x8, addend: 0x0, symName: __ZN7DatalogC2Ev, symObjAddr: 0xBAD8, symBinAddr: 0x10000F140, symSize: 0x5C }
  - { offsetInCU: 0x2F49C, offset: 0x2F49C, size: 0x8, addend: 0x0, symName: __ZNSt3__16vectorI9PredicateNS_9allocatorIS1_EEEC1B8ue170006Ev, symObjAddr: 0xBB34, symBinAddr: 0x10000F19C, symSize: 0x2C }
  - { offsetInCU: 0x2F4C6, offset: 0x2F4C6, size: 0x8, addend: 0x0, symName: __ZNSt3__16vectorI4RuleNS_9allocatorIS1_EEEC1B8ue170006Ev, symObjAddr: 0xBB60, symBinAddr: 0x10000F1C8, symSize: 0x2C }
  - { offsetInCU: 0x2F4F0, offset: 0x2F4F0, size: 0x8, addend: 0x0, symName: __ZNSt3__13setINS_12basic_stringIcNS_11char_traitsIcEENS_9allocatorIcEEEENS_4lessIS6_EENS4_IS6_EEEC1B8ue170006Ev, symObjAddr: 0xBB8C, symBinAddr: 0x10000F1F4, symSize: 0x2C }
  - { offsetInCU: 0x2F51A, offset: 0x2F51A, size: 0x8, addend: 0x0, symName: __ZNSt3__16vectorI9PredicateNS_9allocatorIS1_EEEC2B8ue170006Ev, symObjAddr: 0xBBB8, symBinAddr: 0x10000F220, symSize: 0x4C }
  - { offsetInCU: 0x2F544, offset: 0x2F544, size: 0x8, addend: 0x0, symName: __ZNSt3__117__compressed_pairIP9PredicateNS_9allocatorIS1_EEEC1B8ue170006IDnNS_18__default_init_tagEEEOT_OT0_, symObjAddr: 0xBC04, symBinAddr: 0x10000F26C, symSize: 0x3C }
  - { offsetInCU: 0x2F59C, offset: 0x2F59C, size: 0x8, addend: 0x0, symName: __ZNSt3__117__compressed_pairIP9PredicateNS_9allocatorIS1_EEEC2B8ue170006IDnNS_18__default_init_tagEEEOT_OT0_, symObjAddr: 0xBC40, symBinAddr: 0x10000F2A8, symSize: 0x40 }
  - { offsetInCU: 0x2F5F4, offset: 0x2F5F4, size: 0x8, addend: 0x0, symName: __ZNSt3__122__compressed_pair_elemIP9PredicateLi0ELb0EEC2B8ue170006IDnvEEOT_, symObjAddr: 0xBC80, symBinAddr: 0x10000F2E8, symSize: 0x1C }
  - { offsetInCU: 0x2F636, offset: 0x2F636, size: 0x8, addend: 0x0, symName: __ZNSt3__122__compressed_pair_elemINS_9allocatorI9PredicateEELi1ELb1EEC2B8ue170006ENS_18__default_init_tagE, symObjAddr: 0xBC9C, symBinAddr: 0x10000F304, symSize: 0x2C }
  - { offsetInCU: 0x2F66B, offset: 0x2F66B, size: 0x8, addend: 0x0, symName: __ZNSt3__19allocatorI9PredicateEC2B8ue170006Ev, symObjAddr: 0xBCC8, symBinAddr: 0x10000F330, symSize: 0x2C }
  - { offsetInCU: 0x2F695, offset: 0x2F695, size: 0x8, addend: 0x0, symName: __ZNSt3__116__non_trivial_ifILb1ENS_9allocatorI9PredicateEEEC2B8ue170006Ev, symObjAddr: 0xBCF4, symBinAddr: 0x10000F35C, symSize: 0x14 }
  - { offsetInCU: 0x2F6BF, offset: 0x2F6BF, size: 0x8, addend: 0x0, symName: __ZNSt3__16vectorI4RuleNS_9allocatorIS1_EEEC2B8ue170006Ev, symObjAddr: 0xBD08, symBinAddr: 0x10000F370, symSize: 0x4C }
  - { offsetInCU: 0x2F6E9, offset: 0x2F6E9, size: 0x8, addend: 0x0, symName: __ZNSt3__117__compressed_pairIP4RuleNS_9allocatorIS1_EEEC1B8ue170006IDnNS_18__default_init_tagEEEOT_OT0_, symObjAddr: 0xBD54, symBinAddr: 0x10000F3BC, symSize: 0x3C }
  - { offsetInCU: 0x2F741, offset: 0x2F741, size: 0x8, addend: 0x0, symName: __ZNSt3__117__compressed_pairIP4RuleNS_9allocatorIS1_EEEC2B8ue170006IDnNS_18__default_init_tagEEEOT_OT0_, symObjAddr: 0xBD90, symBinAddr: 0x10000F3F8, symSize: 0x40 }
  - { offsetInCU: 0x2F799, offset: 0x2F799, size: 0x8, addend: 0x0, symName: __ZNSt3__122__compressed_pair_elemIP4RuleLi0ELb0EEC2B8ue170006IDnvEEOT_, symObjAddr: 0xBDD0, symBinAddr: 0x10000F438, symSize: 0x1C }
  - { offsetInCU: 0x2F7DB, offset: 0x2F7DB, size: 0x8, addend: 0x0, symName: __ZNSt3__122__compressed_pair_elemINS_9allocatorI4RuleEELi1ELb1EEC2B8ue170006ENS_18__default_init_tagE, symObjAddr: 0xBDEC, symBinAddr: 0x10000F454, symSize: 0x2C }
  - { offsetInCU: 0x2F810, offset: 0x2F810, size: 0x8, addend: 0x0, symName: __ZNSt3__19allocatorI4RuleEC2B8ue170006Ev, symObjAddr: 0xBE18, symBinAddr: 0x10000F480, symSize: 0x2C }
  - { offsetInCU: 0x2F83A, offset: 0x2F83A, size: 0x8, addend: 0x0, symName: __ZNSt3__116__non_trivial_ifILb1ENS_9allocatorI4RuleEEEC2B8ue170006Ev, symObjAddr: 0xBE44, symBinAddr: 0x10000F4AC, symSize: 0x14 }
  - { offsetInCU: 0x2F864, offset: 0x2F864, size: 0x8, addend: 0x0, symName: __ZNSt3__13setINS_12basic_stringIcNS_11char_traitsIcEENS_9allocatorIcEEEENS_4lessIS6_EENS4_IS6_EEEC2B8ue170006Ev, symObjAddr: 0xBE58, symBinAddr: 0x10000F4C0, symSize: 0x30 }
  - { offsetInCU: 0x2F88E, offset: 0x2F88E, size: 0x8, addend: 0x0, symName: __ZNSt3__16__treeINS_12basic_stringIcNS_11char_traitsIcEENS_9allocatorIcEEEENS_4lessIS6_EENS4_IS6_EEEC1ERKS8_, symObjAddr: 0xBE88, symBinAddr: 0x10000F4F0, symSize: 0x34 }
  - { offsetInCU: 0x2F8C9, offset: 0x2F8C9, size: 0x8, addend: 0x0, symName: __ZNSt3__16__treeINS_12basic_stringIcNS_11char_traitsIcEENS_9allocatorIcEEEENS_4lessIS6_EENS4_IS6_EEEC2ERKS8_, symObjAddr: 0xBEBC, symBinAddr: 0x10000F524, symSize: 0x7C }
  - { offsetInCU: 0x2F904, offset: 0x2F904, size: 0x8, addend: 0x0, symName: __ZNSt3__117__compressed_pairINS_15__tree_end_nodeIPNS_16__tree_node_baseIPvEEEENS_9allocatorINS_11__tree_nodeINS_12basic_stringIcNS_11char_traitsIcEENS7_IcEEEES3_EEEEEC1B8ue170006ILb1EvEEv, symObjAddr: 0xBF38, symBinAddr: 0x10000F5A0, symSize: 0x2C }
  - { offsetInCU: 0x2F939, offset: 0x2F939, size: 0x8, addend: 0x0, symName: __ZNSt3__117__compressed_pairImNS_4lessINS_12basic_stringIcNS_11char_traitsIcEENS_9allocatorIcEEEEEEEC1B8ue170006IiRKS8_EEOT_OT0_, symObjAddr: 0xBF64, symBinAddr: 0x10000F5CC, symSize: 0x3C }
  - { offsetInCU: 0x2F991, offset: 0x2F991, size: 0x8, addend: 0x0, symName: __ZNSt3__16__treeINS_12basic_stringIcNS_11char_traitsIcEENS_9allocatorIcEEEENS_4lessIS6_EENS4_IS6_EEE10__end_nodeB8ue170006Ev, symObjAddr: 0xBFA0, symBinAddr: 0x10000F608, symSize: 0x2C }
  - { offsetInCU: 0x2F9B7, offset: 0x2F9B7, size: 0x8, addend: 0x0, symName: __ZNSt3__16__treeINS_12basic_stringIcNS_11char_traitsIcEENS_9allocatorIcEEEENS_4lessIS6_EENS4_IS6_EEE12__begin_nodeB8ue170006Ev, symObjAddr: 0xBFCC, symBinAddr: 0x10000F634, symSize: 0x14 }
  - { offsetInCU: 0x2F9DD, offset: 0x2F9DD, size: 0x8, addend: 0x0, symName: __ZNSt3__117__compressed_pairINS_15__tree_end_nodeIPNS_16__tree_node_baseIPvEEEENS_9allocatorINS_11__tree_nodeINS_12basic_stringIcNS_11char_traitsIcEENS7_IcEEEES3_EEEEEC2B8ue170006ILb1EvEEv, symObjAddr: 0xBFE0, symBinAddr: 0x10000F648, symSize: 0x34 }
  - { offsetInCU: 0x2FA12, offset: 0x2FA12, size: 0x8, addend: 0x0, symName: __ZNSt3__122__compressed_pair_elemINS_15__tree_end_nodeIPNS_16__tree_node_baseIPvEEEELi0ELb0EEC2B8ue170006ENS_16__value_init_tagE, symObjAddr: 0xC014, symBinAddr: 0x10000F67C, symSize: 0x2C }
  - { offsetInCU: 0x2FA47, offset: 0x2FA47, size: 0x8, addend: 0x0, symName: __ZNSt3__122__compressed_pair_elemINS_9allocatorINS_11__tree_nodeINS_12basic_stringIcNS_11char_traitsIcEENS1_IcEEEEPvEEEELi1ELb1EEC2B8ue170006ENS_16__value_init_tagE, symObjAddr: 0xC040, symBinAddr: 0x10000F6A8, symSize: 0x2C }
  - { offsetInCU: 0x2FA7C, offset: 0x2FA7C, size: 0x8, addend: 0x0, symName: __ZNSt3__115__tree_end_nodeIPNS_16__tree_node_baseIPvEEEC1B8ue170006Ev, symObjAddr: 0xC06C, symBinAddr: 0x10000F6D4, symSize: 0x2C }
  - { offsetInCU: 0x2FAA6, offset: 0x2FAA6, size: 0x8, addend: 0x0, symName: __ZNSt3__115__tree_end_nodeIPNS_16__tree_node_baseIPvEEEC2B8ue170006Ev, symObjAddr: 0xC098, symBinAddr: 0x10000F700, symSize: 0x18 }
  - { offsetInCU: 0x2FAD0, offset: 0x2FAD0, size: 0x8, addend: 0x0, symName: __ZNSt3__19allocatorINS_11__tree_nodeINS_12basic_stringIcNS_11char_traitsIcEENS0_IcEEEEPvEEEC2B8ue170006Ev, symObjAddr: 0xC0B0, symBinAddr: 0x10000F718, symSize: 0x2C }
  - { offsetInCU: 0x2FAFA, offset: 0x2FAFA, size: 0x8, addend: 0x0, symName: __ZNSt3__116__non_trivial_ifILb1ENS_9allocatorINS_11__tree_nodeINS_12basic_stringIcNS_11char_traitsIcEENS1_IcEEEEPvEEEEEC2B8ue170006Ev, symObjAddr: 0xC0DC, symBinAddr: 0x10000F744, symSize: 0x14 }
  - { offsetInCU: 0x2FB24, offset: 0x2FB24, size: 0x8, addend: 0x0, symName: __ZNSt3__117__compressed_pairImNS_4lessINS_12basic_stringIcNS_11char_traitsIcEENS_9allocatorIcEEEEEEEC2B8ue170006IiRKS8_EEOT_OT0_, symObjAddr: 0xC0F0, symBinAddr: 0x10000F758, symSize: 0x44 }
  - { offsetInCU: 0x2FB7C, offset: 0x2FB7C, size: 0x8, addend: 0x0, symName: __ZNSt3__122__compressed_pair_elemINS_4lessINS_12basic_stringIcNS_11char_traitsIcEENS_9allocatorIcEEEEEELi1ELb1EEC2B8ue170006IRKS8_vEEOT_, symObjAddr: 0xC134, symBinAddr: 0x10000F79C, symSize: 0x18 }
  - { offsetInCU: 0x2FBBE, offset: 0x2FBBE, size: 0x8, addend: 0x0, symName: __ZNSt3__114pointer_traitsIPNS_15__tree_end_nodeIPNS_16__tree_node_baseIPvEEEEE10pointer_toB8ue170006ERS6_, symObjAddr: 0xC14C, symBinAddr: 0x10000F7B4, symSize: 0x14 }
  - { offsetInCU: 0x2FBE1, offset: 0x2FBE1, size: 0x8, addend: 0x0, symName: __ZNSt3__117__compressed_pairINS_15__tree_end_nodeIPNS_16__tree_node_baseIPvEEEENS_9allocatorINS_11__tree_nodeINS_12basic_stringIcNS_11char_traitsIcEENS7_IcEEEES3_EEEEE5firstB8ue170006Ev, symObjAddr: 0xC160, symBinAddr: 0x10000F7C8, symSize: 0x24 }
  - { offsetInCU: 0x2FC07, offset: 0x2FC07, size: 0x8, addend: 0x0, symName: __ZNSt3__122__compressed_pair_elemINS_15__tree_end_nodeIPNS_16__tree_node_baseIPvEEEELi0ELb0EE5__getB8ue170006Ev, symObjAddr: 0xC184, symBinAddr: 0x10000F7EC, symSize: 0x14 }
  - { offsetInCU: 0x2FC2D, offset: 0x2FC2D, size: 0x8, addend: 0x0, symName: __ZN6SchemeC2ENSt3__16vectorINS0_12basic_stringIcNS0_11char_traitsIcEENS0_9allocatorIcEEEENS5_IS7_EEEE, symObjAddr: 0xC198, symBinAddr: 0x10000F800, symSize: 0x34 }
  - { offsetInCU: 0x2FC66, offset: 0x2FC66, size: 0x8, addend: 0x0, symName: __ZNSt3__16vectorINS_12basic_stringIcNS_11char_traitsIcEENS_9allocatorIcEEEENS4_IS6_EEEC2ERKS8_, symObjAddr: 0xC1CC, symBinAddr: 0x10000F834, symSize: 0x94 }
  - { offsetInCU: 0x2FCAC, offset: 0x2FCAC, size: 0x8, addend: 0x0, symName: __ZNSt3__116allocator_traitsINS_9allocatorINS_12basic_stringIcNS_11char_traitsIcEENS1_IcEEEEEEE37select_on_container_copy_constructionB8ue170006IS7_vvEES7_RKS7_, symObjAddr: 0xC260, symBinAddr: 0x10000F8C8, symSize: 0x10 }
  - { offsetInCU: 0x2FCDB, offset: 0x2FCDB, size: 0x8, addend: 0x0, symName: __ZNKSt3__16vectorINS_12basic_stringIcNS_11char_traitsIcEENS_9allocatorIcEEEENS4_IS6_EEE7__allocB8ue170006Ev, symObjAddr: 0xC270, symBinAddr: 0x10000F8D8, symSize: 0x28 }
  - { offsetInCU: 0x2FD07, offset: 0x2FD07, size: 0x8, addend: 0x0, symName: __ZNSt3__117__compressed_pairIPNS_12basic_stringIcNS_11char_traitsIcEENS_9allocatorIcEEEENS4_IS6_EEEC1B8ue170006IDnS8_EEOT_OT0_, symObjAddr: 0xC298, symBinAddr: 0x10000F900, symSize: 0x3C }
  - { offsetInCU: 0x2FD5F, offset: 0x2FD5F, size: 0x8, addend: 0x0, symName: __ZNSt3__16vectorINS_12basic_stringIcNS_11char_traitsIcEENS_9allocatorIcEEEENS4_IS6_EEE16__init_with_sizeB8ue170006IPS6_SA_EEvT_T0_m, symObjAddr: 0xC2D4, symBinAddr: 0x10000F93C, symSize: 0xB8 }
  - { offsetInCU: 0x2FDD3, offset: 0x2FDD3, size: 0x8, addend: 0x0, symName: __ZNKSt3__16vectorINS_12basic_stringIcNS_11char_traitsIcEENS_9allocatorIcEEEENS4_IS6_EEE4sizeB8ue170006Ev, symObjAddr: 0xC38C, symBinAddr: 0x10000F9F4, symSize: 0x28 }
  - { offsetInCU: 0x2FDF9, offset: 0x2FDF9, size: 0x8, addend: 0x0, symName: __ZNKSt3__117__compressed_pairIPNS_12basic_stringIcNS_11char_traitsIcEENS_9allocatorIcEEEENS4_IS6_EEE6secondB8ue170006Ev, symObjAddr: 0xC3B4, symBinAddr: 0x10000FA1C, symSize: 0x24 }
  - { offsetInCU: 0x2FE1F, offset: 0x2FE1F, size: 0x8, addend: 0x0, symName: __ZNKSt3__122__compressed_pair_elemINS_9allocatorINS_12basic_stringIcNS_11char_traitsIcEENS1_IcEEEEEELi1ELb1EE5__getB8ue170006Ev, symObjAddr: 0xC3D8, symBinAddr: 0x10000FA40, symSize: 0x14 }
  - { offsetInCU: 0x2FE45, offset: 0x2FE45, size: 0x8, addend: 0x0, symName: __ZNSt3__117__compressed_pairIPNS_12basic_stringIcNS_11char_traitsIcEENS_9allocatorIcEEEENS4_IS6_EEEC2B8ue170006IDnS8_EEOT_OT0_, symObjAddr: 0xC3EC, symBinAddr: 0x10000FA54, symSize: 0x44 }
  - { offsetInCU: 0x2FE9D, offset: 0x2FE9D, size: 0x8, addend: 0x0, symName: __ZNSt3__122__compressed_pair_elemIPNS_12basic_stringIcNS_11char_traitsIcEENS_9allocatorIcEEEELi0ELb0EEC2B8ue170006IDnvEEOT_, symObjAddr: 0xC430, symBinAddr: 0x10000FA98, symSize: 0x1C }
  - { offsetInCU: 0x2FEDF, offset: 0x2FEDF, size: 0x8, addend: 0x0, symName: __ZNSt3__122__compressed_pair_elemINS_9allocatorINS_12basic_stringIcNS_11char_traitsIcEENS1_IcEEEEEELi1ELb1EEC2B8ue170006IS7_vEEOT_, symObjAddr: 0xC44C, symBinAddr: 0x10000FAB4, symSize: 0x18 }
  - { offsetInCU: 0x2FF21, offset: 0x2FF21, size: 0x8, addend: 0x0, symName: __ZNSt3__16vectorINS_12basic_stringIcNS_11char_traitsIcEENS_9allocatorIcEEEENS4_IS6_EEE16__destroy_vectorC1B8ue170006ERS8_, symObjAddr: 0xC4A4, symBinAddr: 0x10000FB0C, symSize: 0x34 }
  - { offsetInCU: 0x2FF5A, offset: 0x2FF5A, size: 0x8, addend: 0x0, symName: __ZNSt3__16vectorINS_12basic_stringIcNS_11char_traitsIcEENS_9allocatorIcEEEENS4_IS6_EEE11__vallocateB8ue170006Em, symObjAddr: 0xC4D8, symBinAddr: 0x10000FB40, symSize: 0xB4 }
  - { offsetInCU: 0x2FF9E, offset: 0x2FF9E, size: 0x8, addend: 0x0, symName: __ZNSt3__16vectorINS_12basic_stringIcNS_11char_traitsIcEENS_9allocatorIcEEEENS4_IS6_EEE18__construct_at_endIPS6_SA_EEvT_T0_m, symObjAddr: 0xC58C, symBinAddr: 0x10000FBF4, symSize: 0x8C }
  - { offsetInCU: 0x30014, offset: 0x30014, size: 0x8, addend: 0x0, symName: __ZNSt3__128__exception_guard_exceptionsINS_6vectorINS_12basic_stringIcNS_11char_traitsIcEENS_9allocatorIcEEEENS5_IS7_EEE16__destroy_vectorEE10__completeB8ue170006Ev, symObjAddr: 0xC618, symBinAddr: 0x10000FC80, symSize: 0x1C }
  - { offsetInCU: 0x3003A, offset: 0x3003A, size: 0x8, addend: 0x0, symName: __ZNSt3__128__exception_guard_exceptionsINS_6vectorINS_12basic_stringIcNS_11char_traitsIcEENS_9allocatorIcEEEENS5_IS7_EEE16__destroy_vectorEED1B8ue170006Ev, symObjAddr: 0xC634, symBinAddr: 0x10000FC9C, symSize: 0x2C }
  - { offsetInCU: 0x30064, offset: 0x30064, size: 0x8, addend: 0x0, symName: __ZNSt3__128__exception_guard_exceptionsINS_6vectorINS_12basic_stringIcNS_11char_traitsIcEENS_9allocatorIcEEEENS5_IS7_EEE16__destroy_vectorEEC1B8ue170006ESA_, symObjAddr: 0xC660, symBinAddr: 0x10000FCC8, symSize: 0x34 }
  - { offsetInCU: 0x3009C, offset: 0x3009C, size: 0x8, addend: 0x0, symName: __ZNSt3__128__exception_guard_exceptionsINS_6vectorINS_12basic_stringIcNS_11char_traitsIcEENS_9allocatorIcEEEENS5_IS7_EEE16__destroy_vectorEEC2B8ue170006ESA_, symObjAddr: 0xC694, symBinAddr: 0x10000FCFC, symSize: 0x24 }
  - { offsetInCU: 0x300D4, offset: 0x300D4, size: 0x8, addend: 0x0, symName: __ZNSt3__16vectorINS_12basic_stringIcNS_11char_traitsIcEENS_9allocatorIcEEEENS4_IS6_EEE16__destroy_vectorC2B8ue170006ERS8_, symObjAddr: 0xC6B8, symBinAddr: 0x10000FD20, symSize: 0x20 }
  - { offsetInCU: 0x3010D, offset: 0x3010D, size: 0x8, addend: 0x0, symName: __ZNKSt3__16vectorINS_12basic_stringIcNS_11char_traitsIcEENS_9allocatorIcEEEENS4_IS6_EEE8max_sizeEv, symObjAddr: 0xC6D8, symBinAddr: 0x10000FD40, symSize: 0x60 }
  - { offsetInCU: 0x30135, offset: 0x30135, size: 0x8, addend: 0x0, symName: __ZNKSt3__16vectorINS_12basic_stringIcNS_11char_traitsIcEENS_9allocatorIcEEEENS4_IS6_EEE20__throw_length_errorB8ue170006Ev, symObjAddr: 0xC738, symBinAddr: 0x10000FDA0, symSize: 0x1C }
  - { offsetInCU: 0x3015B, offset: 0x3015B, size: 0x8, addend: 0x0, symName: __ZNSt3__16vectorINS_12basic_stringIcNS_11char_traitsIcEENS_9allocatorIcEEEENS4_IS6_EEE7__allocB8ue170006Ev, symObjAddr: 0xC794, symBinAddr: 0x10000FDFC, symSize: 0x28 }
  - { offsetInCU: 0x30181, offset: 0x30181, size: 0x8, addend: 0x0, symName: __ZNSt3__16vectorINS_12basic_stringIcNS_11char_traitsIcEENS_9allocatorIcEEEENS4_IS6_EEE9__end_capB8ue170006Ev, symObjAddr: 0xC7BC, symBinAddr: 0x10000FE24, symSize: 0x28 }
  - { offsetInCU: 0x301A7, offset: 0x301A7, size: 0x8, addend: 0x0, symName: __ZNKSt3__16vectorINS_12basic_stringIcNS_11char_traitsIcEENS_9allocatorIcEEEENS4_IS6_EEE14__annotate_newB8ue170006Em, symObjAddr: 0xC7E4, symBinAddr: 0x10000FE4C, symSize: 0xC8 }
  - { offsetInCU: 0x301DC, offset: 0x301DC, size: 0x8, addend: 0x0, symName: __ZNSt3__116allocator_traitsINS_9allocatorINS_12basic_stringIcNS_11char_traitsIcEENS1_IcEEEEEEE8max_sizeB8ue170006IS7_vEEmRKS7_, symObjAddr: 0xC8AC, symBinAddr: 0x10000FF14, symSize: 0x24 }
  - { offsetInCU: 0x3020A, offset: 0x3020A, size: 0x8, addend: 0x0, symName: __ZNKSt3__19allocatorINS_12basic_stringIcNS_11char_traitsIcEENS0_IcEEEEE8max_sizeB8ue170006Ev, symObjAddr: 0xC8D0, symBinAddr: 0x10000FF38, symSize: 0x18 }
  - { offsetInCU: 0x30230, offset: 0x30230, size: 0x8, addend: 0x0, symName: __ZNSt3__19allocatorINS_12basic_stringIcNS_11char_traitsIcEENS0_IcEEEEE8allocateB8ue170006Em, symObjAddr: 0xC8E8, symBinAddr: 0x10000FF50, symSize: 0x5C }
  - { offsetInCU: 0x30264, offset: 0x30264, size: 0x8, addend: 0x0, symName: __ZNSt3__117__compressed_pairIPNS_12basic_stringIcNS_11char_traitsIcEENS_9allocatorIcEEEENS4_IS6_EEE6secondB8ue170006Ev, symObjAddr: 0xC944, symBinAddr: 0x10000FFAC, symSize: 0x24 }
  - { offsetInCU: 0x3028A, offset: 0x3028A, size: 0x8, addend: 0x0, symName: __ZNSt3__122__compressed_pair_elemINS_9allocatorINS_12basic_stringIcNS_11char_traitsIcEENS1_IcEEEEEELi1ELb1EE5__getB8ue170006Ev, symObjAddr: 0xC968, symBinAddr: 0x10000FFD0, symSize: 0x14 }
  - { offsetInCU: 0x302B0, offset: 0x302B0, size: 0x8, addend: 0x0, symName: __ZNSt3__117__compressed_pairIPNS_12basic_stringIcNS_11char_traitsIcEENS_9allocatorIcEEEENS4_IS6_EEE5firstB8ue170006Ev, symObjAddr: 0xC97C, symBinAddr: 0x10000FFE4, symSize: 0x24 }
  - { offsetInCU: 0x302D6, offset: 0x302D6, size: 0x8, addend: 0x0, symName: __ZNSt3__122__compressed_pair_elemIPNS_12basic_stringIcNS_11char_traitsIcEENS_9allocatorIcEEEELi0ELb0EE5__getB8ue170006Ev, symObjAddr: 0xC9A0, symBinAddr: 0x100010008, symSize: 0x14 }
  - { offsetInCU: 0x302FC, offset: 0x302FC, size: 0x8, addend: 0x0, symName: __ZNKSt3__16vectorINS_12basic_stringIcNS_11char_traitsIcEENS_9allocatorIcEEEENS4_IS6_EEE31__annotate_contiguous_containerB8ue170006EPKvSA_SA_SA_, symObjAddr: 0xC9B4, symBinAddr: 0x10001001C, symSize: 0x20 }
  - { offsetInCU: 0x30352, offset: 0x30352, size: 0x8, addend: 0x0, symName: __ZNKSt3__16vectorINS_12basic_stringIcNS_11char_traitsIcEENS_9allocatorIcEEEENS4_IS6_EEE4dataB8ue170006Ev, symObjAddr: 0xC9D4, symBinAddr: 0x10001003C, symSize: 0x28 }
  - { offsetInCU: 0x30378, offset: 0x30378, size: 0x8, addend: 0x0, symName: __ZNKSt3__16vectorINS_12basic_stringIcNS_11char_traitsIcEENS_9allocatorIcEEEENS4_IS6_EEE8capacityB8ue170006Ev, symObjAddr: 0xC9FC, symBinAddr: 0x100010064, symSize: 0x40 }
  - { offsetInCU: 0x3039E, offset: 0x3039E, size: 0x8, addend: 0x0, symName: __ZNKSt3__16vectorINS_12basic_stringIcNS_11char_traitsIcEENS_9allocatorIcEEEENS4_IS6_EEE9__end_capB8ue170006Ev, symObjAddr: 0xCA50, symBinAddr: 0x1000100B8, symSize: 0x28 }
  - { offsetInCU: 0x303C4, offset: 0x303C4, size: 0x8, addend: 0x0, symName: __ZNKSt3__117__compressed_pairIPNS_12basic_stringIcNS_11char_traitsIcEENS_9allocatorIcEEEENS4_IS6_EEE5firstB8ue170006Ev, symObjAddr: 0xCA78, symBinAddr: 0x1000100E0, symSize: 0x24 }
  - { offsetInCU: 0x303EA, offset: 0x303EA, size: 0x8, addend: 0x0, symName: __ZNKSt3__122__compressed_pair_elemIPNS_12basic_stringIcNS_11char_traitsIcEENS_9allocatorIcEEEELi0ELb0EE5__getB8ue170006Ev, symObjAddr: 0xCA9C, symBinAddr: 0x100010104, symSize: 0x14 }
  - { offsetInCU: 0x3042B, offset: 0x3042B, size: 0x8, addend: 0x0, symName: __ZNSt3__16vectorINS_12basic_stringIcNS_11char_traitsIcEENS_9allocatorIcEEEENS4_IS6_EEE21_ConstructTransactionC1B8ue170006ERS8_m, symObjAddr: 0xCAB0, symBinAddr: 0x100010118, symSize: 0x3C }
  - { offsetInCU: 0x30473, offset: 0x30473, size: 0x8, addend: 0x0, symName: __ZNSt3__16vectorINS_12basic_stringIcNS_11char_traitsIcEENS_9allocatorIcEEEENS4_IS6_EEE21_ConstructTransactionD1B8ue170006Ev, symObjAddr: 0xCB6C, symBinAddr: 0x1000101D4, symSize: 0x2C }
  - { offsetInCU: 0x3049D, offset: 0x3049D, size: 0x8, addend: 0x0, symName: __ZNSt3__16vectorINS_12basic_stringIcNS_11char_traitsIcEENS_9allocatorIcEEEENS4_IS6_EEE21_ConstructTransactionC2B8ue170006ERS8_m, symObjAddr: 0xCB98, symBinAddr: 0x100010200, symSize: 0x4C }
  - { offsetInCU: 0x30507, offset: 0x30507, size: 0x8, addend: 0x0, symName: __ZNSt3__14pairIPNS_12basic_stringIcNS_11char_traitsIcEENS_9allocatorIcEEEES7_EC1B8ue170006IS7_S7_LPv0EEEOT_OT0_, symObjAddr: 0xCDD0, symBinAddr: 0x100010438, symSize: 0x3C }
  - { offsetInCU: 0x30565, offset: 0x30565, size: 0x8, addend: 0x0, symName: __ZNSt3__14pairIPNS_12basic_stringIcNS_11char_traitsIcEENS_9allocatorIcEEEES7_EC2B8ue170006IS7_S7_LPv0EEEOT_OT0_, symObjAddr: 0xCE0C, symBinAddr: 0x100010474, symSize: 0x34 }
  - { offsetInCU: 0x305C3, offset: 0x305C3, size: 0x8, addend: 0x0, symName: __ZNSt3__129_AllocatorDestroyRangeReverseINS_9allocatorINS_12basic_stringIcNS_11char_traitsIcEENS1_IcEEEEEEPS6_EC1B8ue170006ERS7_RS8_SB_, symObjAddr: 0xCE8C, symBinAddr: 0x1000104F4, symSize: 0x44 }
  - { offsetInCU: 0x3061A, offset: 0x3061A, size: 0x8, addend: 0x0, symName: __ZNSt3__116allocator_traitsINS_9allocatorINS_12basic_stringIcNS_11char_traitsIcEENS1_IcEEEEEEE9constructB8ue170006IS6_JRS6_EvEEvRS7_PT_DpOT0_, symObjAddr: 0xCED0, symBinAddr: 0x100010538, symSize: 0x34 }
  - { offsetInCU: 0x30671, offset: 0x30671, size: 0x8, addend: 0x0, symName: __ZNSt3__128__exception_guard_exceptionsINS_29_AllocatorDestroyRangeReverseINS_9allocatorINS_12basic_stringIcNS_11char_traitsIcEENS2_IcEEEEEEPS7_EEE10__completeB8ue170006Ev, symObjAddr: 0xCF04, symBinAddr: 0x10001056C, symSize: 0x1C }
  - { offsetInCU: 0x30697, offset: 0x30697, size: 0x8, addend: 0x0, symName: __ZNSt3__128__exception_guard_exceptionsINS_29_AllocatorDestroyRangeReverseINS_9allocatorINS_12basic_stringIcNS_11char_traitsIcEENS2_IcEEEEEEPS7_EEED1B8ue170006Ev, symObjAddr: 0xCF20, symBinAddr: 0x100010588, symSize: 0x2C }
  - { offsetInCU: 0x306C1, offset: 0x306C1, size: 0x8, addend: 0x0, symName: __ZNSt3__128__exception_guard_exceptionsINS_29_AllocatorDestroyRangeReverseINS_9allocatorINS_12basic_stringIcNS_11char_traitsIcEENS2_IcEEEEEEPS7_EEEC1B8ue170006ESA_, symObjAddr: 0xCF4C, symBinAddr: 0x1000105B4, symSize: 0x34 }
  - { offsetInCU: 0x306FA, offset: 0x306FA, size: 0x8, addend: 0x0, symName: __ZNSt3__128__exception_guard_exceptionsINS_29_AllocatorDestroyRangeReverseINS_9allocatorINS_12basic_stringIcNS_11char_traitsIcEENS2_IcEEEEEEPS7_EEEC2B8ue170006ESA_, symObjAddr: 0xCF80, symBinAddr: 0x1000105E8, symSize: 0x30 }
  - { offsetInCU: 0x30733, offset: 0x30733, size: 0x8, addend: 0x0, symName: __ZNSt3__129_AllocatorDestroyRangeReverseINS_9allocatorINS_12basic_stringIcNS_11char_traitsIcEENS1_IcEEEEEEPS6_EC2B8ue170006ERS7_RS8_SB_, symObjAddr: 0xCFB0, symBinAddr: 0x100010618, symSize: 0x38 }
  - { offsetInCU: 0x3078A, offset: 0x3078A, size: 0x8, addend: 0x0, symName: __ZNSt3__19allocatorINS_12basic_stringIcNS_11char_traitsIcEENS0_IcEEEEE9constructB8ue170006IS5_JRS5_EEEvPT_DpOT0_, symObjAddr: 0xCFE8, symBinAddr: 0x100010650, symSize: 0x30 }
  - { offsetInCU: 0x307E0, offset: 0x307E0, size: 0x8, addend: 0x0, symName: __ZNSt3__128__exception_guard_exceptionsINS_29_AllocatorDestroyRangeReverseINS_9allocatorINS_12basic_stringIcNS_11char_traitsIcEENS2_IcEEEEEEPS7_EEED2B8ue170006Ev, symObjAddr: 0xD018, symBinAddr: 0x100010680, symSize: 0x50 }
  - { offsetInCU: 0x3080A, offset: 0x3080A, size: 0x8, addend: 0x0, symName: __ZNKSt3__129_AllocatorDestroyRangeReverseINS_9allocatorINS_12basic_stringIcNS_11char_traitsIcEENS1_IcEEEEEEPS6_EclB8ue170006Ev, symObjAddr: 0xD068, symBinAddr: 0x1000106D0, symSize: 0x68 }
  - { offsetInCU: 0x30830, offset: 0x30830, size: 0x8, addend: 0x0, symName: __ZNSt3__116reverse_iteratorIPNS_12basic_stringIcNS_11char_traitsIcEENS_9allocatorIcEEEEEC1B8ue170006ES7_, symObjAddr: 0xD140, symBinAddr: 0x1000107A8, symSize: 0x34 }
  - { offsetInCU: 0x30868, offset: 0x30868, size: 0x8, addend: 0x0, symName: __ZNSt3__116allocator_traitsINS_9allocatorINS_12basic_stringIcNS_11char_traitsIcEENS1_IcEEEEEEE7destroyB8ue170006IS6_vEEvRS7_PT_, symObjAddr: 0xD1BC, symBinAddr: 0x100010824, symSize: 0x2C }
  - { offsetInCU: 0x308A5, offset: 0x308A5, size: 0x8, addend: 0x0, symName: __ZNSt3__116reverse_iteratorIPNS_12basic_stringIcNS_11char_traitsIcEENS_9allocatorIcEEEEEppB8ue170006Ev, symObjAddr: 0xD20C, symBinAddr: 0x100010874, symSize: 0x20 }
  - { offsetInCU: 0x308CB, offset: 0x308CB, size: 0x8, addend: 0x0, symName: __ZNKSt3__116reverse_iteratorIPNS_12basic_stringIcNS_11char_traitsIcEENS_9allocatorIcEEEEE4baseB8ue170006Ev, symObjAddr: 0xD22C, symBinAddr: 0x100010894, symSize: 0x18 }
  - { offsetInCU: 0x308F1, offset: 0x308F1, size: 0x8, addend: 0x0, symName: __ZNSt3__19allocatorINS_12basic_stringIcNS_11char_traitsIcEENS0_IcEEEEE7destroyB8ue170006EPS5_, symObjAddr: 0xD244, symBinAddr: 0x1000108AC, symSize: 0x28 }
  - { offsetInCU: 0x3092B, offset: 0x3092B, size: 0x8, addend: 0x0, symName: __ZNSt3__119__to_address_helperINS_16reverse_iteratorIPNS_12basic_stringIcNS_11char_traitsIcEENS_9allocatorIcEEEEEEvE6__callB8ue170006ERKS9_, symObjAddr: 0xD26C, symBinAddr: 0x1000108D4, symSize: 0x38 }
  - { offsetInCU: 0x3094E, offset: 0x3094E, size: 0x8, addend: 0x0, symName: __ZNKSt3__116reverse_iteratorIPNS_12basic_stringIcNS_11char_traitsIcEENS_9allocatorIcEEEEEptB8ue170006Ev, symObjAddr: 0xD2A4, symBinAddr: 0x10001090C, symSize: 0x24 }
  - { offsetInCU: 0x30974, offset: 0x30974, size: 0x8, addend: 0x0, symName: __ZNKSt3__116reverse_iteratorIPNS_12basic_stringIcNS_11char_traitsIcEENS_9allocatorIcEEEEEdeB8ue170006Ev, symObjAddr: 0xD2C8, symBinAddr: 0x100010930, symSize: 0x28 }
  - { offsetInCU: 0x309A8, offset: 0x309A8, size: 0x8, addend: 0x0, symName: __ZNSt3__116reverse_iteratorIPNS_12basic_stringIcNS_11char_traitsIcEENS_9allocatorIcEEEEEC2B8ue170006ES7_, symObjAddr: 0xD2F0, symBinAddr: 0x100010958, symSize: 0x28 }
  - { offsetInCU: 0x309E0, offset: 0x309E0, size: 0x8, addend: 0x0, symName: __ZNSt3__118__unwrap_iter_implIPNS_12basic_stringIcNS_11char_traitsIcEENS_9allocatorIcEEEELb1EE8__unwrapB8ue170006ES7_, symObjAddr: 0xD318, symBinAddr: 0x100010980, symSize: 0x24 }
  - { offsetInCU: 0x30A03, offset: 0x30A03, size: 0x8, addend: 0x0, symName: __ZNSt3__118__unwrap_iter_implIPNS_12basic_stringIcNS_11char_traitsIcEENS_9allocatorIcEEEELb1EE8__rewrapB8ue170006ES7_S7_, symObjAddr: 0xD33C, symBinAddr: 0x1000109A4, symSize: 0x58 }
  - { offsetInCU: 0x30A34, offset: 0x30A34, size: 0x8, addend: 0x0, symName: __ZNSt3__16vectorINS_12basic_stringIcNS_11char_traitsIcEENS_9allocatorIcEEEENS4_IS6_EEE21_ConstructTransactionD2B8ue170006Ev, symObjAddr: 0xD394, symBinAddr: 0x1000109FC, symSize: 0x20 }
  - { offsetInCU: 0x30A5E, offset: 0x30A5E, size: 0x8, addend: 0x0, symName: __ZNSt3__128__exception_guard_exceptionsINS_6vectorINS_12basic_stringIcNS_11char_traitsIcEENS_9allocatorIcEEEENS5_IS7_EEE16__destroy_vectorEED2B8ue170006Ev, symObjAddr: 0xD3B4, symBinAddr: 0x100010A1C, symSize: 0x50 }
  - { offsetInCU: 0x30A88, offset: 0x30A88, size: 0x8, addend: 0x0, symName: __ZNSt3__16vectorINS_12basic_stringIcNS_11char_traitsIcEENS_9allocatorIcEEEENS4_IS6_EEE16__destroy_vectorclB8ue170006Ev, symObjAddr: 0xD404, symBinAddr: 0x100010A6C, symSize: 0x90 }
  - { offsetInCU: 0x30AAE, offset: 0x30AAE, size: 0x8, addend: 0x0, symName: __ZNSt3__16vectorINS_12basic_stringIcNS_11char_traitsIcEENS_9allocatorIcEEEENS4_IS6_EEE7__clearB8ue170006Ev, symObjAddr: 0xD494, symBinAddr: 0x100010AFC, symSize: 0x28 }
  - { offsetInCU: 0x30AD4, offset: 0x30AD4, size: 0x8, addend: 0x0, symName: __ZNKSt3__16vectorINS_12basic_stringIcNS_11char_traitsIcEENS_9allocatorIcEEEENS4_IS6_EEE17__annotate_deleteB8ue170006Ev, symObjAddr: 0xD4BC, symBinAddr: 0x100010B24, symSize: 0xD4 }
  - { offsetInCU: 0x30AFA, offset: 0x30AFA, size: 0x8, addend: 0x0, symName: __ZNSt3__116allocator_traitsINS_9allocatorINS_12basic_stringIcNS_11char_traitsIcEENS1_IcEEEEEEE10deallocateB8ue170006ERS7_PS6_m, symObjAddr: 0xD590, symBinAddr: 0x100010BF8, symSize: 0x34 }
  - { offsetInCU: 0x30B3C, offset: 0x30B3C, size: 0x8, addend: 0x0, symName: __ZNSt3__16vectorINS_12basic_stringIcNS_11char_traitsIcEENS_9allocatorIcEEEENS4_IS6_EEE22__base_destruct_at_endB8ue170006EPS6_, symObjAddr: 0xD5C4, symBinAddr: 0x100010C2C, symSize: 0x8C }
  - { offsetInCU: 0x30B80, offset: 0x30B80, size: 0x8, addend: 0x0, symName: __ZNSt3__19allocatorINS_12basic_stringIcNS_11char_traitsIcEENS0_IcEEEEE10deallocateB8ue170006EPS5_m, symObjAddr: 0xD650, symBinAddr: 0x100010CB8, symSize: 0x44 }
  - { offsetInCU: 0x30BC2, offset: 0x30BC2, size: 0x8, addend: 0x0, symName: __ZN8RelationC2ERKNSt3__112basic_stringIcNS0_11char_traitsIcEENS0_9allocatorIcEEEERK6Scheme, symObjAddr: 0xD694, symBinAddr: 0x100010CFC, symSize: 0x88 }
  - { offsetInCU: 0x30C08, offset: 0x30C08, size: 0x8, addend: 0x0, symName: __ZNSt3__13setI5TupleNS_4lessIS1_EENS_9allocatorIS1_EEEC1B8ue170006Ev, symObjAddr: 0xD71C, symBinAddr: 0x100010D84, symSize: 0x2C }
  - { offsetInCU: 0x30C32, offset: 0x30C32, size: 0x8, addend: 0x0, symName: __ZN6SchemeC1ERKS_, symObjAddr: 0xD748, symBinAddr: 0x100010DB0, symSize: 0x34 }
  - { offsetInCU: 0x30C67, offset: 0x30C67, size: 0x8, addend: 0x0, symName: __ZNSt3__13setI5TupleNS_4lessIS1_EENS_9allocatorIS1_EEED1B8ue170006Ev, symObjAddr: 0xD77C, symBinAddr: 0x100010DE4, symSize: 0x2C }
  - { offsetInCU: 0x30C91, offset: 0x30C91, size: 0x8, addend: 0x0, symName: __ZNSt3__13setI5TupleNS_4lessIS1_EENS_9allocatorIS1_EEEC2B8ue170006Ev, symObjAddr: 0xD7A8, symBinAddr: 0x100010E10, symSize: 0x30 }
  - { offsetInCU: 0x30CBB, offset: 0x30CBB, size: 0x8, addend: 0x0, symName: __ZNSt3__16__treeI5TupleNS_4lessIS1_EENS_9allocatorIS1_EEEC1ERKS3_, symObjAddr: 0xD7D8, symBinAddr: 0x100010E40, symSize: 0x34 }
  - { offsetInCU: 0x30CF6, offset: 0x30CF6, size: 0x8, addend: 0x0, symName: __ZNSt3__16__treeI5TupleNS_4lessIS1_EENS_9allocatorIS1_EEEC2ERKS3_, symObjAddr: 0xD80C, symBinAddr: 0x100010E74, symSize: 0x7C }
  - { offsetInCU: 0x30D31, offset: 0x30D31, size: 0x8, addend: 0x0, symName: __ZNSt3__117__compressed_pairINS_15__tree_end_nodeIPNS_16__tree_node_baseIPvEEEENS_9allocatorINS_11__tree_nodeI5TupleS3_EEEEEC1B8ue170006ILb1EvEEv, symObjAddr: 0xD888, symBinAddr: 0x100010EF0, symSize: 0x2C }
  - { offsetInCU: 0x30D66, offset: 0x30D66, size: 0x8, addend: 0x0, symName: __ZNSt3__117__compressed_pairImNS_4lessI5TupleEEEC1B8ue170006IiRKS3_EEOT_OT0_, symObjAddr: 0xD8B4, symBinAddr: 0x100010F1C, symSize: 0x3C }
  - { offsetInCU: 0x30DBE, offset: 0x30DBE, size: 0x8, addend: 0x0, symName: __ZNSt3__16__treeI5TupleNS_4lessIS1_EENS_9allocatorIS1_EEE10__end_nodeB8ue170006Ev, symObjAddr: 0xD8F0, symBinAddr: 0x100010F58, symSize: 0x2C }
  - { offsetInCU: 0x30DE4, offset: 0x30DE4, size: 0x8, addend: 0x0, symName: __ZNSt3__16__treeI5TupleNS_4lessIS1_EENS_9allocatorIS1_EEE12__begin_nodeB8ue170006Ev, symObjAddr: 0xD91C, symBinAddr: 0x100010F84, symSize: 0x14 }
  - { offsetInCU: 0x30E0A, offset: 0x30E0A, size: 0x8, addend: 0x0, symName: __ZNSt3__117__compressed_pairINS_15__tree_end_nodeIPNS_16__tree_node_baseIPvEEEENS_9allocatorINS_11__tree_nodeI5TupleS3_EEEEEC2B8ue170006ILb1EvEEv, symObjAddr: 0xD930, symBinAddr: 0x100010F98, symSize: 0x34 }
  - { offsetInCU: 0x30E3F, offset: 0x30E3F, size: 0x8, addend: 0x0, symName: __ZNSt3__122__compressed_pair_elemINS_9allocatorINS_11__tree_nodeI5TuplePvEEEELi1ELb1EEC2B8ue170006ENS_16__value_init_tagE, symObjAddr: 0xD964, symBinAddr: 0x100010FCC, symSize: 0x2C }
  - { offsetInCU: 0x30E74, offset: 0x30E74, size: 0x8, addend: 0x0, symName: __ZNSt3__19allocatorINS_11__tree_nodeI5TuplePvEEEC2B8ue170006Ev, symObjAddr: 0xD990, symBinAddr: 0x100010FF8, symSize: 0x2C }
  - { offsetInCU: 0x30E9E, offset: 0x30E9E, size: 0x8, addend: 0x0, symName: __ZNSt3__116__non_trivial_ifILb1ENS_9allocatorINS_11__tree_nodeI5TuplePvEEEEEC2B8ue170006Ev, symObjAddr: 0xD9BC, symBinAddr: 0x100011024, symSize: 0x14 }
  - { offsetInCU: 0x30EC8, offset: 0x30EC8, size: 0x8, addend: 0x0, symName: __ZNSt3__117__compressed_pairImNS_4lessI5TupleEEEC2B8ue170006IiRKS3_EEOT_OT0_, symObjAddr: 0xD9D0, symBinAddr: 0x100011038, symSize: 0x44 }
  - { offsetInCU: 0x30F20, offset: 0x30F20, size: 0x8, addend: 0x0, symName: __ZNSt3__122__compressed_pair_elemINS_4lessI5TupleEELi1ELb1EEC2B8ue170006IRKS3_vEEOT_, symObjAddr: 0xDA14, symBinAddr: 0x10001107C, symSize: 0x18 }
  - { offsetInCU: 0x30F62, offset: 0x30F62, size: 0x8, addend: 0x0, symName: __ZNSt3__117__compressed_pairINS_15__tree_end_nodeIPNS_16__tree_node_baseIPvEEEENS_9allocatorINS_11__tree_nodeI5TupleS3_EEEEE5firstB8ue170006Ev, symObjAddr: 0xDA2C, symBinAddr: 0x100011094, symSize: 0x24 }
  - { offsetInCU: 0x30F88, offset: 0x30F88, size: 0x8, addend: 0x0, symName: __ZN6SchemeC2ERKS_, symObjAddr: 0xDA50, symBinAddr: 0x1000110B8, symSize: 0x34 }
  - { offsetInCU: 0x30FBD, offset: 0x30FBD, size: 0x8, addend: 0x0, symName: __ZNSt3__13setI5TupleNS_4lessIS1_EENS_9allocatorIS1_EEED2B8ue170006Ev, symObjAddr: 0xDA84, symBinAddr: 0x1000110EC, symSize: 0x2C }
  - { offsetInCU: 0x30FE7, offset: 0x30FE7, size: 0x8, addend: 0x0, symName: __ZNSt3__16__treeI5TupleNS_4lessIS1_EENS_9allocatorIS1_EEED1Ev, symObjAddr: 0xDAB0, symBinAddr: 0x100011118, symSize: 0x2C }
  - { offsetInCU: 0x31013, offset: 0x31013, size: 0x8, addend: 0x0, symName: __ZNSt3__16__treeI5TupleNS_4lessIS1_EENS_9allocatorIS1_EEED2Ev, symObjAddr: 0xDADC, symBinAddr: 0x100011144, symSize: 0x38 }
  - { offsetInCU: 0x3103F, offset: 0x3103F, size: 0x8, addend: 0x0, symName: __ZNSt3__16__treeI5TupleNS_4lessIS1_EENS_9allocatorIS1_EEE7destroyEPNS_11__tree_nodeIS1_PvEE, symObjAddr: 0xDB14, symBinAddr: 0x10001117C, symSize: 0xAC }
  - { offsetInCU: 0x3108B, offset: 0x3108B, size: 0x8, addend: 0x0, symName: __ZNKSt3__16__treeI5TupleNS_4lessIS1_EENS_9allocatorIS1_EEE6__rootB8ue170006Ev, symObjAddr: 0xDBC0, symBinAddr: 0x100011228, symSize: 0x28 }
  - { offsetInCU: 0x310B1, offset: 0x310B1, size: 0x8, addend: 0x0, symName: __ZNSt3__16__treeI5TupleNS_4lessIS1_EENS_9allocatorIS1_EEE12__node_allocB8ue170006Ev, symObjAddr: 0xDBE8, symBinAddr: 0x100011250, symSize: 0x28 }
  - { offsetInCU: 0x310D7, offset: 0x310D7, size: 0x8, addend: 0x0, symName: __ZNSt3__116allocator_traitsINS_9allocatorINS_11__tree_nodeI5TuplePvEEEEE7destroyB8ue170006IS3_vvEEvRS6_PT_, symObjAddr: 0xDC10, symBinAddr: 0x100011278, symSize: 0x28 }
  - { offsetInCU: 0x31112, offset: 0x31112, size: 0x8, addend: 0x0, symName: __ZNSt3__122__tree_key_value_typesI5TupleE9__get_ptrB8ue170006ERS1_, symObjAddr: 0xDC38, symBinAddr: 0x1000112A0, symSize: 0x14 }
  - { offsetInCU: 0x31136, offset: 0x31136, size: 0x8, addend: 0x0, symName: __ZNSt3__116allocator_traitsINS_9allocatorINS_11__tree_nodeI5TuplePvEEEEE10deallocateB8ue170006ERS6_PS5_m, symObjAddr: 0xDC4C, symBinAddr: 0x1000112B4, symSize: 0x34 }
  - { offsetInCU: 0x31178, offset: 0x31178, size: 0x8, addend: 0x0, symName: __ZNSt3__117__compressed_pairINS_15__tree_end_nodeIPNS_16__tree_node_baseIPvEEEENS_9allocatorINS_11__tree_nodeI5TupleS3_EEEEE6secondB8ue170006Ev, symObjAddr: 0xDC80, symBinAddr: 0x1000112E8, symSize: 0x24 }
  - { offsetInCU: 0x3119E, offset: 0x3119E, size: 0x8, addend: 0x0, symName: __ZNSt3__122__compressed_pair_elemINS_9allocatorINS_11__tree_nodeI5TuplePvEEEELi1ELb1EE5__getB8ue170006Ev, symObjAddr: 0xDCA4, symBinAddr: 0x10001130C, symSize: 0x14 }
  - { offsetInCU: 0x311C4, offset: 0x311C4, size: 0x8, addend: 0x0, symName: __ZNSt3__19allocatorINS_11__tree_nodeI5TuplePvEEE10deallocateB8ue170006EPS4_m, symObjAddr: 0xDCB8, symBinAddr: 0x100011320, symSize: 0x44 }
  - { offsetInCU: 0x31206, offset: 0x31206, size: 0x8, addend: 0x0, symName: __ZNKSt3__16__treeI5TupleNS_4lessIS1_EENS_9allocatorIS1_EEE10__end_nodeB8ue170006Ev, symObjAddr: 0xDCFC, symBinAddr: 0x100011364, symSize: 0x2C }
  - { offsetInCU: 0x3122C, offset: 0x3122C, size: 0x8, addend: 0x0, symName: __ZNKSt3__117__compressed_pairINS_15__tree_end_nodeIPNS_16__tree_node_baseIPvEEEENS_9allocatorINS_11__tree_nodeI5TupleS3_EEEEE5firstB8ue170006Ev, symObjAddr: 0xDD28, symBinAddr: 0x100011390, symSize: 0x24 }
  - { offsetInCU: 0x31252, offset: 0x31252, size: 0x8, addend: 0x0, symName: __ZNKSt3__122__compressed_pair_elemINS_15__tree_end_nodeIPNS_16__tree_node_baseIPvEEEELi0ELb0EE5__getB8ue170006Ev, symObjAddr: 0xDD4C, symBinAddr: 0x1000113B4, symSize: 0x14 }
  - { offsetInCU: 0x31278, offset: 0x31278, size: 0x8, addend: 0x0, symName: __ZN5TupleC2ENSt3__16vectorINS0_12basic_stringIcNS0_11char_traitsIcEENS0_9allocatorIcEEEENS5_IS7_EEEE, symObjAddr: 0xDD60, symBinAddr: 0x1000113C8, symSize: 0x34 }
  - { offsetInCU: 0x312B1, offset: 0x312B1, size: 0x8, addend: 0x0, symName: __ZNKSt3__16vectorINS_12basic_stringIcNS_11char_traitsIcEENS_9allocatorIcEEEENS4_IS6_EEE2atEm, symObjAddr: 0xDD94, symBinAddr: 0x1000113FC, symSize: 0x68 }
  - { offsetInCU: 0x312E8, offset: 0x312E8, size: 0x8, addend: 0x0, symName: __ZNK5Tuple2atEi, symObjAddr: 0xDDFC, symBinAddr: 0x100011464, symSize: 0x2C }
  - { offsetInCU: 0x3131C, offset: 0x3131C, size: 0x8, addend: 0x0, symName: __ZNKSt3__16vectorINS_12basic_stringIcNS_11char_traitsIcEENS_9allocatorIcEEEENS4_IS6_EEE20__throw_out_of_rangeB8ue170006Ev, symObjAddr: 0xDE28, symBinAddr: 0x100011490, symSize: 0x1C }
  - { offsetInCU: 0x31342, offset: 0x31342, size: 0x8, addend: 0x0, symName: __ZNSt12out_of_rangeC1B8ue170006EPKc, symObjAddr: 0xDEA8, symBinAddr: 0x100011510, symSize: 0x34 }
  - { offsetInCU: 0x3137A, offset: 0x3137A, size: 0x8, addend: 0x0, symName: __ZNSt12out_of_rangeC2B8ue170006EPKc, symObjAddr: 0xDEDC, symBinAddr: 0x100011544, symSize: 0x4C }
  - { offsetInCU: 0x313B2, offset: 0x313B2, size: 0x8, addend: 0x0, symName: __ZNSt3__13setI5TupleNS_4lessIS1_EENS_9allocatorIS1_EEE6insertB8ue170006ERKS1_, symObjAddr: 0xDF28, symBinAddr: 0x100011590, symSize: 0x4C }
  - { offsetInCU: 0x313E7, offset: 0x313E7, size: 0x8, addend: 0x0, symName: __ZNSt3__16__treeI5TupleNS_4lessIS1_EENS_9allocatorIS1_EEE15__insert_uniqueB8ue170006ERKS1_, symObjAddr: 0xDF74, symBinAddr: 0x1000115DC, symSize: 0x50 }
  - { offsetInCU: 0x3141C, offset: 0x3141C, size: 0x8, addend: 0x0, symName: __ZNSt3__14pairINS_21__tree_const_iteratorI5TuplePNS_11__tree_nodeIS2_PvEElEEbEC1B8ue170006INS_15__tree_iteratorIS2_S6_lEEbLS4_0EEEONS0_IT_T0_EE, symObjAddr: 0xDFC4, symBinAddr: 0x10001162C, symSize: 0x34 }
  - { offsetInCU: 0x3146D, offset: 0x3146D, size: 0x8, addend: 0x0, symName: __ZNSt3__16__treeI5TupleNS_4lessIS1_EENS_9allocatorIS1_EEE25__emplace_unique_key_argsIS1_JRKS1_EEENS_4pairINS_15__tree_iteratorIS1_PNS_11__tree_nodeIS1_PvEElEEbEERKT_DpOT0_, symObjAddr: 0xDFF8, symBinAddr: 0x100011660, symSize: 0xF0 }
  - { offsetInCU: 0x31519, offset: 0x31519, size: 0x8, addend: 0x0, symName: __ZNSt3__122__tree_key_value_typesI5TupleE9__get_keyB8ue170006ERKS1_, symObjAddr: 0xE0E8, symBinAddr: 0x100011750, symSize: 0x14 }
  - { offsetInCU: 0x3153D, offset: 0x3153D, size: 0x8, addend: 0x0, symName: __ZNSt3__16__treeI5TupleNS_4lessIS1_EENS_9allocatorIS1_EEE12__find_equalIS1_EERPNS_16__tree_node_baseIPvEERPNS_15__tree_end_nodeISB_EERKT_, symObjAddr: 0xE0FC, symBinAddr: 0x100011764, symSize: 0x184 }
  - { offsetInCU: 0x315AA, offset: 0x315AA, size: 0x8, addend: 0x0, symName: __ZNSt3__16__treeI5TupleNS_4lessIS1_EENS_9allocatorIS1_EEE16__construct_nodeIJRKS1_EEENS_10unique_ptrINS_11__tree_nodeIS1_PvEENS_22__tree_node_destructorINS4_ISD_EEEEEEDpOT_, symObjAddr: 0xE280, symBinAddr: 0x1000118E8, symSize: 0x108 }
  - { offsetInCU: 0x3160B, offset: 0x3160B, size: 0x8, addend: 0x0, symName: __ZNSt3__16__treeI5TupleNS_4lessIS1_EENS_9allocatorIS1_EEE16__insert_node_atEPNS_15__tree_end_nodeIPNS_16__tree_node_baseIPvEEEERSB_SB_, symObjAddr: 0xE388, symBinAddr: 0x1000119F0, symSize: 0xCC }
  - { offsetInCU: 0x31660, offset: 0x31660, size: 0x8, addend: 0x0, symName: __ZNKSt3__110unique_ptrINS_11__tree_nodeI5TuplePvEENS_22__tree_node_destructorINS_9allocatorIS4_EEEEE3getB8ue170006Ev, symObjAddr: 0xE454, symBinAddr: 0x100011ABC, symSize: 0x28 }
  - { offsetInCU: 0x31686, offset: 0x31686, size: 0x8, addend: 0x0, symName: __ZNSt3__110unique_ptrINS_11__tree_nodeI5TuplePvEENS_22__tree_node_destructorINS_9allocatorIS4_EEEEE7releaseB8ue170006Ev, symObjAddr: 0xE47C, symBinAddr: 0x100011AE4, symSize: 0x44 }
  - { offsetInCU: 0x316BB, offset: 0x316BB, size: 0x8, addend: 0x0, symName: __ZNSt3__110unique_ptrINS_11__tree_nodeI5TuplePvEENS_22__tree_node_destructorINS_9allocatorIS4_EEEEED1B8ue170006Ev, symObjAddr: 0xE4C0, symBinAddr: 0x100011B28, symSize: 0x2C }
  - { offsetInCU: 0x316E5, offset: 0x316E5, size: 0x8, addend: 0x0, symName: __ZNSt3__115__tree_iteratorI5TuplePNS_11__tree_nodeIS1_PvEElEC1B8ue170006ES5_, symObjAddr: 0xE4EC, symBinAddr: 0x100011B54, symSize: 0x34 }
  - { offsetInCU: 0x31724, offset: 0x31724, size: 0x8, addend: 0x0, symName: __ZNSt3__14pairINS_15__tree_iteratorI5TuplePNS_11__tree_nodeIS2_PvEElEEbEC1B8ue170006IS7_RbLS4_0EEEOT_OT0_, symObjAddr: 0xE520, symBinAddr: 0x100011B88, symSize: 0x3C }
  - { offsetInCU: 0x31782, offset: 0x31782, size: 0x8, addend: 0x0, symName: __ZNKSt3__16__treeI5TupleNS_4lessIS1_EENS_9allocatorIS1_EEE10__root_ptrB8ue170006Ev, symObjAddr: 0xE55C, symBinAddr: 0x100011BC4, symSize: 0x24 }
  - { offsetInCU: 0x317A8, offset: 0x317A8, size: 0x8, addend: 0x0, symName: __ZNSt3__16__treeI5TupleNS_4lessIS1_EENS_9allocatorIS1_EEE10value_compB8ue170006Ev, symObjAddr: 0xE580, symBinAddr: 0x100011BE8, symSize: 0x28 }
  - { offsetInCU: 0x317CE, offset: 0x317CE, size: 0x8, addend: 0x0, symName: __ZNKSt3__14lessI5TupleEclB8ue170006ERKS1_S4_, symObjAddr: 0xE5A8, symBinAddr: 0x100011C10, symSize: 0x34 }
  - { offsetInCU: 0x31812, offset: 0x31812, size: 0x8, addend: 0x0, symName: __ZNSt3__117__compressed_pairImNS_4lessI5TupleEEE6secondB8ue170006Ev, symObjAddr: 0xE5DC, symBinAddr: 0x100011C44, symSize: 0x24 }
  - { offsetInCU: 0x31838, offset: 0x31838, size: 0x8, addend: 0x0, symName: __ZNSt3__122__compressed_pair_elemINS_4lessI5TupleEELi1ELb1EE5__getB8ue170006Ev, symObjAddr: 0xE600, symBinAddr: 0x100011C68, symSize: 0x14 }
  - { offsetInCU: 0x3185E, offset: 0x3185E, size: 0x8, addend: 0x0, symName: __ZNK5TupleltERKS_, symObjAddr: 0xE614, symBinAddr: 0x100011C7C, symSize: 0x30 }
  - { offsetInCU: 0x31892, offset: 0x31892, size: 0x8, addend: 0x0, symName: __ZNKSt3__16vectorINS_12basic_stringIcNS_11char_traitsIcEENS_9allocatorIcEEEENS4_IS6_EEE5beginB8ue170006Ev, symObjAddr: 0xE70C, symBinAddr: 0x100011D74, symSize: 0x30 }
  - { offsetInCU: 0x318BA, offset: 0x318BA, size: 0x8, addend: 0x0, symName: __ZNKSt3__16vectorINS_12basic_stringIcNS_11char_traitsIcEENS_9allocatorIcEEEENS4_IS6_EEE3endB8ue170006Ev, symObjAddr: 0xE73C, symBinAddr: 0x100011DA4, symSize: 0x30 }
  - { offsetInCU: 0x318E2, offset: 0x318E2, size: 0x8, addend: 0x0, symName: __ZNKSt3__16__lessIvvEclB8ue170006INS_12basic_stringIcNS_11char_traitsIcEENS_9allocatorIcEEEES8_EEbRKT_RKT0_, symObjAddr: 0xE968, symBinAddr: 0x100011FD0, symSize: 0x34 }
  - { offsetInCU: 0x31936, offset: 0x31936, size: 0x8, addend: 0x0, symName: __ZNKSt3__111__wrap_iterIPKNS_12basic_stringIcNS_11char_traitsIcEENS_9allocatorIcEEEEEdeB8ue170006Ev, symObjAddr: 0xE99C, symBinAddr: 0x100012004, symSize: 0x18 }
  - { offsetInCU: 0x3195C, offset: 0x3195C, size: 0x8, addend: 0x0, symName: __ZNSt3__111__wrap_iterIPKNS_12basic_stringIcNS_11char_traitsIcEENS_9allocatorIcEEEEEppB8ue170006Ev, symObjAddr: 0xE9B4, symBinAddr: 0x10001201C, symSize: 0x20 }
  - { offsetInCU: 0x31982, offset: 0x31982, size: 0x8, addend: 0x0, symName: __ZNKSt3__111__wrap_iterIPKNS_12basic_stringIcNS_11char_traitsIcEENS_9allocatorIcEEEEE4baseB8ue170006Ev, symObjAddr: 0xE9D4, symBinAddr: 0x10001203C, symSize: 0x18 }
  - { offsetInCU: 0x319A8, offset: 0x319A8, size: 0x8, addend: 0x0, symName: __ZNKSt3__112basic_stringIcNS_11char_traitsIcEENS_9allocatorIcEEE7compareB8ue170006ERKS5_, symObjAddr: 0xEA24, symBinAddr: 0x10001208C, symSize: 0x4C }
  - { offsetInCU: 0x319DF, offset: 0x319DF, size: 0x8, addend: 0x0, symName: __ZNKSt3__112basic_stringIcNS_11char_traitsIcEENS_9allocatorIcEEE7compareINS_17basic_string_viewIcS2_EELi0EEEiRKT_, symObjAddr: 0xEA70, symBinAddr: 0x1000120D8, symSize: 0x12C }
  - { offsetInCU: 0x31A62, offset: 0x31A62, size: 0x8, addend: 0x0, symName: __ZNKSt3__112basic_stringIcNS_11char_traitsIcEENS_9allocatorIcEEEcvNS_17basic_string_viewIcS2_EEB8ue170006Ev, symObjAddr: 0xEB9C, symBinAddr: 0x100012204, symSize: 0x50 }
  - { offsetInCU: 0x31A88, offset: 0x31A88, size: 0x8, addend: 0x0, symName: __ZNKSt3__117basic_string_viewIcNS_11char_traitsIcEEE4sizeB8ue170006Ev, symObjAddr: 0xEBEC, symBinAddr: 0x100012254, symSize: 0x18 }
  - { offsetInCU: 0x31AAE, offset: 0x31AAE, size: 0x8, addend: 0x0, symName: __ZNSt3__111char_traitsIcE7compareB8ue170006EPKcS3_m, symObjAddr: 0xEC04, symBinAddr: 0x10001226C, symSize: 0x34 }
  - { offsetInCU: 0x31AED, offset: 0x31AED, size: 0x8, addend: 0x0, symName: __ZNKSt3__112basic_stringIcNS_11char_traitsIcEENS_9allocatorIcEEE4dataB8ue170006Ev, symObjAddr: 0xEC38, symBinAddr: 0x1000122A0, symSize: 0x28 }
  - { offsetInCU: 0x31B13, offset: 0x31B13, size: 0x8, addend: 0x0, symName: __ZNKSt3__117basic_string_viewIcNS_11char_traitsIcEEE4dataB8ue170006Ev, symObjAddr: 0xEC60, symBinAddr: 0x1000122C8, symSize: 0x18 }
  - { offsetInCU: 0x31B39, offset: 0x31B39, size: 0x8, addend: 0x0, symName: __ZNKSt3__112basic_stringIcNS_11char_traitsIcEENS_9allocatorIcEEE13__get_pointerB8ue170006Ev, symObjAddr: 0xEC8C, symBinAddr: 0x1000122F4, symSize: 0x54 }
  - { offsetInCU: 0x31B5F, offset: 0x31B5F, size: 0x8, addend: 0x0, symName: __ZNKSt3__112basic_stringIcNS_11char_traitsIcEENS_9allocatorIcEEE18__get_long_pointerB8ue170006Ev, symObjAddr: 0xECE0, symBinAddr: 0x100012348, symSize: 0x28 }
  - { offsetInCU: 0x31B85, offset: 0x31B85, size: 0x8, addend: 0x0, symName: __ZNKSt3__112basic_stringIcNS_11char_traitsIcEENS_9allocatorIcEEE19__get_short_pointerB8ue170006Ev, symObjAddr: 0xED08, symBinAddr: 0x100012370, symSize: 0x28 }
  - { offsetInCU: 0x31BAB, offset: 0x31BAB, size: 0x8, addend: 0x0, symName: __ZNSt3__114pointer_traitsIPKcE10pointer_toB8ue170006ERS1_, symObjAddr: 0xED30, symBinAddr: 0x100012398, symSize: 0x14 }
  - { offsetInCU: 0x31BCE, offset: 0x31BCE, size: 0x8, addend: 0x0, symName: __ZNSt3__117basic_string_viewIcNS_11char_traitsIcEEEC1B8ue170006EPKcm, symObjAddr: 0xED44, symBinAddr: 0x1000123AC, symSize: 0x3C }
  - { offsetInCU: 0x31C16, offset: 0x31C16, size: 0x8, addend: 0x0, symName: __ZNSt3__117basic_string_viewIcNS_11char_traitsIcEEEC2B8ue170006EPKcm, symObjAddr: 0xED80, symBinAddr: 0x1000123E8, symSize: 0x2C }
  - { offsetInCU: 0x31C5E, offset: 0x31C5E, size: 0x8, addend: 0x0, symName: __ZNKSt3__16vectorINS_12basic_stringIcNS_11char_traitsIcEENS_9allocatorIcEEEENS4_IS6_EEE11__make_iterB8ue170006EPKS6_, symObjAddr: 0xEDAC, symBinAddr: 0x100012414, symSize: 0x30 }
  - { offsetInCU: 0x31C93, offset: 0x31C93, size: 0x8, addend: 0x0, symName: __ZNSt3__111__wrap_iterIPKNS_12basic_stringIcNS_11char_traitsIcEENS_9allocatorIcEEEEEC1B8ue170006ES8_, symObjAddr: 0xEDDC, symBinAddr: 0x100012444, symSize: 0x34 }
  - { offsetInCU: 0x31CCB, offset: 0x31CCB, size: 0x8, addend: 0x0, symName: __ZNSt3__111__wrap_iterIPKNS_12basic_stringIcNS_11char_traitsIcEENS_9allocatorIcEEEEEC2B8ue170006ES8_, symObjAddr: 0xEE10, symBinAddr: 0x100012478, symSize: 0x20 }
  - { offsetInCU: 0x31D03, offset: 0x31D03, size: 0x8, addend: 0x0, symName: __ZNSt3__116allocator_traitsINS_9allocatorINS_11__tree_nodeI5TuplePvEEEEE8allocateB8ue170006ERS6_m, symObjAddr: 0xEE30, symBinAddr: 0x100012498, symSize: 0x2C }
  - { offsetInCU: 0x31D36, offset: 0x31D36, size: 0x8, addend: 0x0, symName: __ZNSt3__122__tree_node_destructorINS_9allocatorINS_11__tree_nodeI5TuplePvEEEEEC1B8ue170006ERS6_b, symObjAddr: 0xEE5C, symBinAddr: 0x1000124C4, symSize: 0x48 }
  - { offsetInCU: 0x31D84, offset: 0x31D84, size: 0x8, addend: 0x0, symName: __ZNSt3__110unique_ptrINS_11__tree_nodeI5TuplePvEENS_22__tree_node_destructorINS_9allocatorIS4_EEEEEC1B8ue170006ILb1EvEEPS4_NS_16__dependent_typeINS_27__unique_ptr_deleter_sfinaeIS8_EEXT_EE20__good_rval_ref_typeE, symObjAddr: 0xEEA4, symBinAddr: 0x10001250C, symSize: 0x3C }
  - { offsetInCU: 0x31DD5, offset: 0x31DD5, size: 0x8, addend: 0x0, symName: __ZNSt3__116allocator_traitsINS_9allocatorINS_11__tree_nodeI5TuplePvEEEEE9constructB8ue170006IS3_JRKS3_EvEEvRS6_PT_DpOT0_, symObjAddr: 0xEEE0, symBinAddr: 0x100012548, symSize: 0x34 }
  - { offsetInCU: 0x31E2C, offset: 0x31E2C, size: 0x8, addend: 0x0, symName: __ZNKSt3__110unique_ptrINS_11__tree_nodeI5TuplePvEENS_22__tree_node_destructorINS_9allocatorIS4_EEEEEptB8ue170006Ev, symObjAddr: 0xEF14, symBinAddr: 0x10001257C, symSize: 0x28 }
  - { offsetInCU: 0x31E52, offset: 0x31E52, size: 0x8, addend: 0x0, symName: __ZNSt3__110unique_ptrINS_11__tree_nodeI5TuplePvEENS_22__tree_node_destructorINS_9allocatorIS4_EEEEE11get_deleterB8ue170006Ev, symObjAddr: 0xEF3C, symBinAddr: 0x1000125A4, symSize: 0x24 }
  - { offsetInCU: 0x31E78, offset: 0x31E78, size: 0x8, addend: 0x0, symName: __ZNSt3__19allocatorINS_11__tree_nodeI5TuplePvEEE8allocateB8ue170006Em, symObjAddr: 0xEF60, symBinAddr: 0x1000125C8, symSize: 0x5C }
  - { offsetInCU: 0x31EB7, offset: 0x31EB7, size: 0x8, addend: 0x0, symName: __ZNSt3__116allocator_traitsINS_9allocatorINS_11__tree_nodeI5TuplePvEEEEE8max_sizeB8ue170006IS6_vEEmRKS6_, symObjAddr: 0xEFBC, symBinAddr: 0x100012624, symSize: 0x24 }
  - { offsetInCU: 0x31EE5, offset: 0x31EE5, size: 0x8, addend: 0x0, symName: __ZNKSt3__19allocatorINS_11__tree_nodeI5TuplePvEEE8max_sizeB8ue170006Ev, symObjAddr: 0xEFE0, symBinAddr: 0x100012648, symSize: 0x20 }
  - { offsetInCU: 0x31F0B, offset: 0x31F0B, size: 0x8, addend: 0x0, symName: __ZNSt3__122__tree_node_destructorINS_9allocatorINS_11__tree_nodeI5TuplePvEEEEEC2B8ue170006ERS6_b, symObjAddr: 0xF000, symBinAddr: 0x100012668, symSize: 0x38 }
  - { offsetInCU: 0x31F53, offset: 0x31F53, size: 0x8, addend: 0x0, symName: __ZNSt3__110unique_ptrINS_11__tree_nodeI5TuplePvEENS_22__tree_node_destructorINS_9allocatorIS4_EEEEEC2B8ue170006ILb1EvEEPS4_NS_16__dependent_typeINS_27__unique_ptr_deleter_sfinaeIS8_EEXT_EE20__good_rval_ref_typeE, symObjAddr: 0xF038, symBinAddr: 0x1000126A0, symSize: 0x48 }
  - { offsetInCU: 0x31FA4, offset: 0x31FA4, size: 0x8, addend: 0x0, symName: __ZNSt3__117__compressed_pairIPNS_11__tree_nodeI5TuplePvEENS_22__tree_node_destructorINS_9allocatorIS4_EEEEEC1B8ue170006IRS5_S9_EEOT_OT0_, symObjAddr: 0xF080, symBinAddr: 0x1000126E8, symSize: 0x3C }
  - { offsetInCU: 0x31FFC, offset: 0x31FFC, size: 0x8, addend: 0x0, symName: __ZNSt3__117__compressed_pairIPNS_11__tree_nodeI5TuplePvEENS_22__tree_node_destructorINS_9allocatorIS4_EEEEEC2B8ue170006IRS5_S9_EEOT_OT0_, symObjAddr: 0xF0BC, symBinAddr: 0x100012724, symSize: 0x48 }
  - { offsetInCU: 0x32054, offset: 0x32054, size: 0x8, addend: 0x0, symName: __ZNSt3__122__compressed_pair_elemIPNS_11__tree_nodeI5TuplePvEELi0ELb0EEC2B8ue170006IRS5_vEEOT_, symObjAddr: 0xF104, symBinAddr: 0x10001276C, symSize: 0x24 }
  - { offsetInCU: 0x32096, offset: 0x32096, size: 0x8, addend: 0x0, symName: __ZNSt3__122__compressed_pair_elemINS_22__tree_node_destructorINS_9allocatorINS_11__tree_nodeI5TuplePvEEEEEELi1ELb0EEC2B8ue170006IS8_vEEOT_, symObjAddr: 0xF128, symBinAddr: 0x100012790, symSize: 0x24 }
  - { offsetInCU: 0x320D8, offset: 0x320D8, size: 0x8, addend: 0x0, symName: __ZNSt3__19allocatorINS_11__tree_nodeI5TuplePvEEE9constructB8ue170006IS2_JRKS2_EEEvPT_DpOT0_, symObjAddr: 0xF14C, symBinAddr: 0x1000127B4, symSize: 0x30 }
  - { offsetInCU: 0x3212E, offset: 0x3212E, size: 0x8, addend: 0x0, symName: __ZN5TupleC1ERKS_, symObjAddr: 0xF17C, symBinAddr: 0x1000127E4, symSize: 0x34 }
  - { offsetInCU: 0x32163, offset: 0x32163, size: 0x8, addend: 0x0, symName: __ZN5TupleC2ERKS_, symObjAddr: 0xF1B0, symBinAddr: 0x100012818, symSize: 0x34 }
  - { offsetInCU: 0x32198, offset: 0x32198, size: 0x8, addend: 0x0, symName: __ZNKSt3__117__compressed_pairIPNS_11__tree_nodeI5TuplePvEENS_22__tree_node_destructorINS_9allocatorIS4_EEEEE5firstB8ue170006Ev, symObjAddr: 0xF1E4, symBinAddr: 0x10001284C, symSize: 0x24 }
  - { offsetInCU: 0x321BE, offset: 0x321BE, size: 0x8, addend: 0x0, symName: __ZNKSt3__122__compressed_pair_elemIPNS_11__tree_nodeI5TuplePvEELi0ELb0EE5__getB8ue170006Ev, symObjAddr: 0xF208, symBinAddr: 0x100012870, symSize: 0x14 }
  - { offsetInCU: 0x321E4, offset: 0x321E4, size: 0x8, addend: 0x0, symName: __ZNSt3__117__compressed_pairIPNS_11__tree_nodeI5TuplePvEENS_22__tree_node_destructorINS_9allocatorIS4_EEEEE6secondB8ue170006Ev, symObjAddr: 0xF21C, symBinAddr: 0x100012884, symSize: 0x28 }
  - { offsetInCU: 0x3220A, offset: 0x3220A, size: 0x8, addend: 0x0, symName: __ZNSt3__122__compressed_pair_elemINS_22__tree_node_destructorINS_9allocatorINS_11__tree_nodeI5TuplePvEEEEEELi1ELb0EE5__getB8ue170006Ev, symObjAddr: 0xF244, symBinAddr: 0x1000128AC, symSize: 0x14 }
  - { offsetInCU: 0x32230, offset: 0x32230, size: 0x8, addend: 0x0, symName: __ZNSt3__16__treeI5TupleNS_4lessIS1_EENS_9allocatorIS1_EEE4sizeB8ue170006Ev, symObjAddr: 0xF584, symBinAddr: 0x100012BEC, symSize: 0x28 }
  - { offsetInCU: 0x32256, offset: 0x32256, size: 0x8, addend: 0x0, symName: __ZNKSt3__116__tree_node_baseIPvE15__parent_unsafeB8ue170006Ev, symObjAddr: 0xF5AC, symBinAddr: 0x100012C14, symSize: 0x18 }
  - { offsetInCU: 0x3227C, offset: 0x3227C, size: 0x8, addend: 0x0, symName: __ZNSt3__116__tree_node_baseIPvE12__set_parentB8ue170006EPS2_, symObjAddr: 0xF794, symBinAddr: 0x100012DFC, symSize: 0x20 }
  - { offsetInCU: 0x322B1, offset: 0x322B1, size: 0x8, addend: 0x0, symName: __ZNSt3__117__compressed_pairImNS_4lessI5TupleEEE5firstB8ue170006Ev, symObjAddr: 0xF7B4, symBinAddr: 0x100012E1C, symSize: 0x24 }
  - { offsetInCU: 0x322D7, offset: 0x322D7, size: 0x8, addend: 0x0, symName: __ZNSt3__117__compressed_pairIPNS_11__tree_nodeI5TuplePvEENS_22__tree_node_destructorINS_9allocatorIS4_EEEEE5firstB8ue170006Ev, symObjAddr: 0xF7D8, symBinAddr: 0x100012E40, symSize: 0x24 }
  - { offsetInCU: 0x322FD, offset: 0x322FD, size: 0x8, addend: 0x0, symName: __ZNSt3__122__compressed_pair_elemIPNS_11__tree_nodeI5TuplePvEELi0ELb0EE5__getB8ue170006Ev, symObjAddr: 0xF7FC, symBinAddr: 0x100012E64, symSize: 0x14 }
  - { offsetInCU: 0x32323, offset: 0x32323, size: 0x8, addend: 0x0, symName: __ZNSt3__110unique_ptrINS_11__tree_nodeI5TuplePvEENS_22__tree_node_destructorINS_9allocatorIS4_EEEEED2B8ue170006Ev, symObjAddr: 0xF810, symBinAddr: 0x100012E78, symSize: 0x30 }
  - { offsetInCU: 0x3234D, offset: 0x3234D, size: 0x8, addend: 0x0, symName: __ZNSt3__110unique_ptrINS_11__tree_nodeI5TuplePvEENS_22__tree_node_destructorINS_9allocatorIS4_EEEEE5resetB8ue170006EPS4_, symObjAddr: 0xF840, symBinAddr: 0x100012EA8, symSize: 0x78 }
  - { offsetInCU: 0x32391, offset: 0x32391, size: 0x8, addend: 0x0, symName: __ZNSt3__122__tree_node_destructorINS_9allocatorINS_11__tree_nodeI5TuplePvEEEEEclB8ue170006EPS5_, symObjAddr: 0xF8B8, symBinAddr: 0x100012F20, symSize: 0x88 }
  - { offsetInCU: 0x323C6, offset: 0x323C6, size: 0x8, addend: 0x0, symName: __ZNSt3__115__tree_iteratorI5TuplePNS_11__tree_nodeIS1_PvEElEC2B8ue170006ES5_, symObjAddr: 0xF940, symBinAddr: 0x100012FA8, symSize: 0x20 }
  - { offsetInCU: 0x323FF, offset: 0x323FF, size: 0x8, addend: 0x0, symName: __ZNSt3__14pairINS_15__tree_iteratorI5TuplePNS_11__tree_nodeIS2_PvEElEEbEC2B8ue170006IS7_RbLS4_0EEEOT_OT0_, symObjAddr: 0xF960, symBinAddr: 0x100012FC8, symSize: 0x38 }
  - { offsetInCU: 0x3245D, offset: 0x3245D, size: 0x8, addend: 0x0, symName: __ZNSt3__14pairINS_21__tree_const_iteratorI5TuplePNS_11__tree_nodeIS2_PvEElEEbEC2B8ue170006INS_15__tree_iteratorIS2_S6_lEEbLS4_0EEEONS0_IT_T0_EE, symObjAddr: 0xF998, symBinAddr: 0x100013000, symSize: 0x50 }
  - { offsetInCU: 0x324AE, offset: 0x324AE, size: 0x8, addend: 0x0, symName: __ZNSt3__121__tree_const_iteratorI5TuplePNS_11__tree_nodeIS1_PvEElEC1B8ue170006ENS_15__tree_iteratorIS1_S5_lEE, symObjAddr: 0xF9E8, symBinAddr: 0x100013050, symSize: 0x34 }
  - { offsetInCU: 0x324E7, offset: 0x324E7, size: 0x8, addend: 0x0, symName: __ZNSt3__121__tree_const_iteratorI5TuplePNS_11__tree_nodeIS1_PvEElEC2B8ue170006ENS_15__tree_iteratorIS1_S5_lEE, symObjAddr: 0xFA1C, symBinAddr: 0x100013084, symSize: 0x20 }
  - { offsetInCU: 0x32520, offset: 0x32520, size: 0x8, addend: 0x0, symName: __ZN5TupleD2Ev, symObjAddr: 0xFA3C, symBinAddr: 0x1000130A4, symSize: 0x2C }
  - { offsetInCU: 0x3254C, offset: 0x3254C, size: 0x8, addend: 0x0, symName: __ZNKSt3__13setI5TupleNS_4lessIS1_EENS_9allocatorIS1_EEE5beginB8ue170006Ev, symObjAddr: 0xFA68, symBinAddr: 0x1000130D0, symSize: 0x2C }
  - { offsetInCU: 0x32572, offset: 0x32572, size: 0x8, addend: 0x0, symName: __ZNKSt3__13setI5TupleNS_4lessIS1_EENS_9allocatorIS1_EEE3endB8ue170006Ev, symObjAddr: 0xFA94, symBinAddr: 0x1000130FC, symSize: 0x2C }
  - { offsetInCU: 0x32598, offset: 0x32598, size: 0x8, addend: 0x0, symName: __ZNKSt3__121__tree_const_iteratorI5TuplePNS_11__tree_nodeIS1_PvEElEdeB8ue170006Ev, symObjAddr: 0xFAF4, symBinAddr: 0x10001315C, symSize: 0x28 }
  - { offsetInCU: 0x325BE, offset: 0x325BE, size: 0x8, addend: 0x0, symName: __ZNSt3__121__tree_const_iteratorI5TuplePNS_11__tree_nodeIS1_PvEElEppB8ue170006Ev, symObjAddr: 0xFB1C, symBinAddr: 0x100013184, symSize: 0x38 }
  - { offsetInCU: 0x325E4, offset: 0x325E4, size: 0x8, addend: 0x0, symName: __ZNKSt3__16__treeI5TupleNS_4lessIS1_EENS_9allocatorIS1_EEE5beginB8ue170006Ev, symObjAddr: 0xFB54, symBinAddr: 0x1000131BC, symSize: 0x34 }
  - { offsetInCU: 0x3260A, offset: 0x3260A, size: 0x8, addend: 0x0, symName: __ZNKSt3__16__treeI5TupleNS_4lessIS1_EENS_9allocatorIS1_EEE12__begin_nodeB8ue170006Ev, symObjAddr: 0xFB88, symBinAddr: 0x1000131F0, symSize: 0x14 }
  - { offsetInCU: 0x32630, offset: 0x32630, size: 0x8, addend: 0x0, symName: __ZNSt3__121__tree_const_iteratorI5TuplePNS_11__tree_nodeIS1_PvEElEC1B8ue170006EPNS_15__tree_end_nodeIPNS_16__tree_node_baseIS3_EEEE, symObjAddr: 0xFB9C, symBinAddr: 0x100013204, symSize: 0x34 }
  - { offsetInCU: 0x32669, offset: 0x32669, size: 0x8, addend: 0x0, symName: __ZNSt3__121__tree_const_iteratorI5TuplePNS_11__tree_nodeIS1_PvEElEC2B8ue170006EPNS_15__tree_end_nodeIPNS_16__tree_node_baseIS3_EEEE, symObjAddr: 0xFBD0, symBinAddr: 0x100013238, symSize: 0x20 }
  - { offsetInCU: 0x326A2, offset: 0x326A2, size: 0x8, addend: 0x0, symName: __ZNKSt3__16__treeI5TupleNS_4lessIS1_EENS_9allocatorIS1_EEE3endB8ue170006Ev, symObjAddr: 0xFBF0, symBinAddr: 0x100013258, symSize: 0x34 }
  - { offsetInCU: 0x326C8, offset: 0x326C8, size: 0x8, addend: 0x0, symName: __ZNKSt3__121__tree_const_iteratorI5TuplePNS_11__tree_nodeIS1_PvEElE8__get_npB8ue170006Ev, symObjAddr: 0xFC54, symBinAddr: 0x1000132BC, symSize: 0x18 }
  - { offsetInCU: 0x326EE, offset: 0x326EE, size: 0x8, addend: 0x0, symName: __ZN8RelationD2Ev, symObjAddr: 0xFE74, symBinAddr: 0x1000134DC, symSize: 0x44 }
  - { offsetInCU: 0x3271A, offset: 0x3271A, size: 0x8, addend: 0x0, symName: __ZN6SchemeD2Ev, symObjAddr: 0xFEB8, symBinAddr: 0x100013520, symSize: 0x2C }
  - { offsetInCU: 0x32746, offset: 0x32746, size: 0x8, addend: 0x0, symName: __ZNSt3__16vectorINS_12basic_stringIcNS_11char_traitsIcEENS_9allocatorIcEEEENS4_IS6_EEED2B8ue170006Ev, symObjAddr: 0xFEE4, symBinAddr: 0x10001354C, symSize: 0x40 }
  - { offsetInCU: 0x32770, offset: 0x32770, size: 0x8, addend: 0x0, symName: __ZN6ParserD2Ev, symObjAddr: 0xFF24, symBinAddr: 0x10001358C, symSize: 0x38 }
  - { offsetInCU: 0x3279C, offset: 0x3279C, size: 0x8, addend: 0x0, symName: __ZN7DatalogD1Ev, symObjAddr: 0xFF5C, symBinAddr: 0x1000135C4, symSize: 0x2C }
  - { offsetInCU: 0x327C8, offset: 0x327C8, size: 0x8, addend: 0x0, symName: __ZN7DatalogD2Ev, symObjAddr: 0xFF88, symBinAddr: 0x1000135F0, symSize: 0x5C }
  - { offsetInCU: 0x327F4, offset: 0x327F4, size: 0x8, addend: 0x0, symName: __ZNSt3__13setINS_12basic_stringIcNS_11char_traitsIcEENS_9allocatorIcEEEENS_4lessIS6_EENS4_IS6_EEED1B8ue170006Ev, symObjAddr: 0xFFE4, symBinAddr: 0x10001364C, symSize: 0x2C }
  - { offsetInCU: 0x3281E, offset: 0x3281E, size: 0x8, addend: 0x0, symName: __ZNSt3__16vectorI9PredicateNS_9allocatorIS1_EEED1B8ue170006Ev, symObjAddr: 0x10010, symBinAddr: 0x100013678, symSize: 0x2C }
  - { offsetInCU: 0x32848, offset: 0x32848, size: 0x8, addend: 0x0, symName: __ZNSt3__16vectorI4RuleNS_9allocatorIS1_EEED1B8ue170006Ev, symObjAddr: 0x1003C, symBinAddr: 0x1000136A4, symSize: 0x2C }
  - { offsetInCU: 0x32872, offset: 0x32872, size: 0x8, addend: 0x0, symName: __ZNSt3__13setINS_12basic_stringIcNS_11char_traitsIcEENS_9allocatorIcEEEENS_4lessIS6_EENS4_IS6_EEED2B8ue170006Ev, symObjAddr: 0x10068, symBinAddr: 0x1000136D0, symSize: 0x2C }
  - { offsetInCU: 0x3289C, offset: 0x3289C, size: 0x8, addend: 0x0, symName: __ZNSt3__16__treeINS_12basic_stringIcNS_11char_traitsIcEENS_9allocatorIcEEEENS_4lessIS6_EENS4_IS6_EEED1Ev, symObjAddr: 0x10094, symBinAddr: 0x1000136FC, symSize: 0x2C }
  - { offsetInCU: 0x328C8, offset: 0x328C8, size: 0x8, addend: 0x0, symName: __ZNSt3__16__treeINS_12basic_stringIcNS_11char_traitsIcEENS_9allocatorIcEEEENS_4lessIS6_EENS4_IS6_EEED2Ev, symObjAddr: 0x100C0, symBinAddr: 0x100013728, symSize: 0x38 }
  - { offsetInCU: 0x328F4, offset: 0x328F4, size: 0x8, addend: 0x0, symName: __ZNSt3__16__treeINS_12basic_stringIcNS_11char_traitsIcEENS_9allocatorIcEEEENS_4lessIS6_EENS4_IS6_EEE7destroyEPNS_11__tree_nodeIS6_PvEE, symObjAddr: 0x100F8, symBinAddr: 0x100013760, symSize: 0xAC }
  - { offsetInCU: 0x32940, offset: 0x32940, size: 0x8, addend: 0x0, symName: __ZNKSt3__16__treeINS_12basic_stringIcNS_11char_traitsIcEENS_9allocatorIcEEEENS_4lessIS6_EENS4_IS6_EEE6__rootB8ue170006Ev, symObjAddr: 0x101A4, symBinAddr: 0x10001380C, symSize: 0x28 }
  - { offsetInCU: 0x32966, offset: 0x32966, size: 0x8, addend: 0x0, symName: __ZNSt3__16__treeINS_12basic_stringIcNS_11char_traitsIcEENS_9allocatorIcEEEENS_4lessIS6_EENS4_IS6_EEE12__node_allocB8ue170006Ev, symObjAddr: 0x101CC, symBinAddr: 0x100013834, symSize: 0x28 }
  - { offsetInCU: 0x3298C, offset: 0x3298C, size: 0x8, addend: 0x0, symName: __ZNSt3__116allocator_traitsINS_9allocatorINS_11__tree_nodeINS_12basic_stringIcNS_11char_traitsIcEENS1_IcEEEEPvEEEEE7destroyB8ue170006IS7_vvEEvRSA_PT_, symObjAddr: 0x101F4, symBinAddr: 0x10001385C, symSize: 0x28 }
  - { offsetInCU: 0x329C7, offset: 0x329C7, size: 0x8, addend: 0x0, symName: __ZNSt3__122__tree_key_value_typesINS_12basic_stringIcNS_11char_traitsIcEENS_9allocatorIcEEEEE9__get_ptrB8ue170006ERS6_, symObjAddr: 0x1021C, symBinAddr: 0x100013884, symSize: 0x14 }
  - { offsetInCU: 0x329EB, offset: 0x329EB, size: 0x8, addend: 0x0, symName: __ZNSt3__116allocator_traitsINS_9allocatorINS_11__tree_nodeINS_12basic_stringIcNS_11char_traitsIcEENS1_IcEEEEPvEEEEE10deallocateB8ue170006ERSA_PS9_m, symObjAddr: 0x10230, symBinAddr: 0x100013898, symSize: 0x34 }
  - { offsetInCU: 0x32A2D, offset: 0x32A2D, size: 0x8, addend: 0x0, symName: __ZNSt3__117__compressed_pairINS_15__tree_end_nodeIPNS_16__tree_node_baseIPvEEEENS_9allocatorINS_11__tree_nodeINS_12basic_stringIcNS_11char_traitsIcEENS7_IcEEEES3_EEEEE6secondB8ue170006Ev, symObjAddr: 0x10264, symBinAddr: 0x1000138CC, symSize: 0x24 }
  - { offsetInCU: 0x32A53, offset: 0x32A53, size: 0x8, addend: 0x0, symName: __ZNSt3__122__compressed_pair_elemINS_9allocatorINS_11__tree_nodeINS_12basic_stringIcNS_11char_traitsIcEENS1_IcEEEEPvEEEELi1ELb1EE5__getB8ue170006Ev, symObjAddr: 0x10288, symBinAddr: 0x1000138F0, symSize: 0x14 }
  - { offsetInCU: 0x32A79, offset: 0x32A79, size: 0x8, addend: 0x0, symName: __ZNSt3__19allocatorINS_11__tree_nodeINS_12basic_stringIcNS_11char_traitsIcEENS0_IcEEEEPvEEE10deallocateB8ue170006EPS8_m, symObjAddr: 0x1029C, symBinAddr: 0x100013904, symSize: 0x44 }
  - { offsetInCU: 0x32ABB, offset: 0x32ABB, size: 0x8, addend: 0x0, symName: __ZNKSt3__16__treeINS_12basic_stringIcNS_11char_traitsIcEENS_9allocatorIcEEEENS_4lessIS6_EENS4_IS6_EEE10__end_nodeB8ue170006Ev, symObjAddr: 0x102E0, symBinAddr: 0x100013948, symSize: 0x2C }
  - { offsetInCU: 0x32AE1, offset: 0x32AE1, size: 0x8, addend: 0x0, symName: __ZNKSt3__117__compressed_pairINS_15__tree_end_nodeIPNS_16__tree_node_baseIPvEEEENS_9allocatorINS_11__tree_nodeINS_12basic_stringIcNS_11char_traitsIcEENS7_IcEEEES3_EEEEE5firstB8ue170006Ev, symObjAddr: 0x1030C, symBinAddr: 0x100013974, symSize: 0x24 }
  - { offsetInCU: 0x32B07, offset: 0x32B07, size: 0x8, addend: 0x0, symName: __ZNSt3__16vectorI9PredicateNS_9allocatorIS1_EEED2B8ue170006Ev, symObjAddr: 0x10330, symBinAddr: 0x100013998, symSize: 0x44 }
  - { offsetInCU: 0x32B31, offset: 0x32B31, size: 0x8, addend: 0x0, symName: __ZNSt3__16vectorI9PredicateNS_9allocatorIS1_EEE16__destroy_vectorC1B8ue170006ERS4_, symObjAddr: 0x10374, symBinAddr: 0x1000139DC, symSize: 0x34 }
  - { offsetInCU: 0x32B6A, offset: 0x32B6A, size: 0x8, addend: 0x0, symName: __ZNSt3__16vectorI9PredicateNS_9allocatorIS1_EEE16__destroy_vectorclB8ue170006Ev, symObjAddr: 0x103A8, symBinAddr: 0x100013A10, symSize: 0x90 }
  - { offsetInCU: 0x32B90, offset: 0x32B90, size: 0x8, addend: 0x0, symName: __ZNSt3__16vectorI9PredicateNS_9allocatorIS1_EEE16__destroy_vectorC2B8ue170006ERS4_, symObjAddr: 0x10438, symBinAddr: 0x100013AA0, symSize: 0x20 }
  - { offsetInCU: 0x32BC9, offset: 0x32BC9, size: 0x8, addend: 0x0, symName: __ZNSt3__16vectorI9PredicateNS_9allocatorIS1_EEE7__clearB8ue170006Ev, symObjAddr: 0x10458, symBinAddr: 0x100013AC0, symSize: 0x28 }
  - { offsetInCU: 0x32BEF, offset: 0x32BEF, size: 0x8, addend: 0x0, symName: __ZNKSt3__16vectorI9PredicateNS_9allocatorIS1_EEE17__annotate_deleteB8ue170006Ev, symObjAddr: 0x10480, symBinAddr: 0x100013AE8, symSize: 0xD4 }
  - { offsetInCU: 0x32C15, offset: 0x32C15, size: 0x8, addend: 0x0, symName: __ZNSt3__116allocator_traitsINS_9allocatorI9PredicateEEE10deallocateB8ue170006ERS3_PS2_m, symObjAddr: 0x10554, symBinAddr: 0x100013BBC, symSize: 0x34 }
  - { offsetInCU: 0x32C57, offset: 0x32C57, size: 0x8, addend: 0x0, symName: __ZNSt3__16vectorI9PredicateNS_9allocatorIS1_EEE7__allocB8ue170006Ev, symObjAddr: 0x10588, symBinAddr: 0x100013BF0, symSize: 0x28 }
  - { offsetInCU: 0x32C7D, offset: 0x32C7D, size: 0x8, addend: 0x0, symName: __ZNKSt3__16vectorI9PredicateNS_9allocatorIS1_EEE8capacityB8ue170006Ev, symObjAddr: 0x105B0, symBinAddr: 0x100013C18, symSize: 0x40 }
  - { offsetInCU: 0x32CA3, offset: 0x32CA3, size: 0x8, addend: 0x0, symName: __ZNSt3__16vectorI9PredicateNS_9allocatorIS1_EEE22__base_destruct_at_endB8ue170006EPS1_, symObjAddr: 0x105F0, symBinAddr: 0x100013C58, symSize: 0x8C }
  - { offsetInCU: 0x32CE7, offset: 0x32CE7, size: 0x8, addend: 0x0, symName: __ZNSt3__116allocator_traitsINS_9allocatorI9PredicateEEE7destroyB8ue170006IS2_vEEvRS3_PT_, symObjAddr: 0x1067C, symBinAddr: 0x100013CE4, symSize: 0x2C }
  - { offsetInCU: 0x32D24, offset: 0x32D24, size: 0x8, addend: 0x0, symName: __ZNSt3__19allocatorI9PredicateE7destroyB8ue170006EPS1_, symObjAddr: 0x106BC, symBinAddr: 0x100013D24, symSize: 0x28 }
  - { offsetInCU: 0x32D58, offset: 0x32D58, size: 0x8, addend: 0x0, symName: __ZN9PredicateD1Ev, symObjAddr: 0x106E4, symBinAddr: 0x100013D4C, symSize: 0x2C }
  - { offsetInCU: 0x32D84, offset: 0x32D84, size: 0x8, addend: 0x0, symName: __ZN9PredicateD2Ev, symObjAddr: 0x10710, symBinAddr: 0x100013D78, symSize: 0x38 }
  - { offsetInCU: 0x32DB0, offset: 0x32DB0, size: 0x8, addend: 0x0, symName: __ZNSt3__16vectorI9ParameterNS_9allocatorIS1_EEED1B8ue170006Ev, symObjAddr: 0x10748, symBinAddr: 0x100013DB0, symSize: 0x2C }
  - { offsetInCU: 0x32DDA, offset: 0x32DDA, size: 0x8, addend: 0x0, symName: __ZNSt3__16vectorI9ParameterNS_9allocatorIS1_EEED2B8ue170006Ev, symObjAddr: 0x10774, symBinAddr: 0x100013DDC, symSize: 0x44 }
  - { offsetInCU: 0x32E04, offset: 0x32E04, size: 0x8, addend: 0x0, symName: __ZNSt3__16vectorI9ParameterNS_9allocatorIS1_EEE16__destroy_vectorC1B8ue170006ERS4_, symObjAddr: 0x107B8, symBinAddr: 0x100013E20, symSize: 0x34 }
  - { offsetInCU: 0x32E3D, offset: 0x32E3D, size: 0x8, addend: 0x0, symName: __ZNSt3__16vectorI9ParameterNS_9allocatorIS1_EEE16__destroy_vectorclB8ue170006Ev, symObjAddr: 0x107EC, symBinAddr: 0x100013E54, symSize: 0x90 }
  - { offsetInCU: 0x32E63, offset: 0x32E63, size: 0x8, addend: 0x0, symName: __ZNSt3__16vectorI9ParameterNS_9allocatorIS1_EEE16__destroy_vectorC2B8ue170006ERS4_, symObjAddr: 0x1087C, symBinAddr: 0x100013EE4, symSize: 0x20 }
  - { offsetInCU: 0x32E9C, offset: 0x32E9C, size: 0x8, addend: 0x0, symName: __ZNSt3__16vectorI9ParameterNS_9allocatorIS1_EEE7__clearB8ue170006Ev, symObjAddr: 0x1089C, symBinAddr: 0x100013F04, symSize: 0x28 }
  - { offsetInCU: 0x32EC2, offset: 0x32EC2, size: 0x8, addend: 0x0, symName: __ZNKSt3__16vectorI9ParameterNS_9allocatorIS1_EEE17__annotate_deleteB8ue170006Ev, symObjAddr: 0x108C4, symBinAddr: 0x100013F2C, symSize: 0xD4 }
  - { offsetInCU: 0x32EE8, offset: 0x32EE8, size: 0x8, addend: 0x0, symName: __ZNSt3__116allocator_traitsINS_9allocatorI9ParameterEEE10deallocateB8ue170006ERS3_PS2_m, symObjAddr: 0x10998, symBinAddr: 0x100014000, symSize: 0x34 }
  - { offsetInCU: 0x32F2A, offset: 0x32F2A, size: 0x8, addend: 0x0, symName: __ZNSt3__16vectorI9ParameterNS_9allocatorIS1_EEE7__allocB8ue170006Ev, symObjAddr: 0x109CC, symBinAddr: 0x100014034, symSize: 0x28 }
  - { offsetInCU: 0x32F50, offset: 0x32F50, size: 0x8, addend: 0x0, symName: __ZNKSt3__16vectorI9ParameterNS_9allocatorIS1_EEE8capacityB8ue170006Ev, symObjAddr: 0x109F4, symBinAddr: 0x10001405C, symSize: 0x40 }
  - { offsetInCU: 0x32F76, offset: 0x32F76, size: 0x8, addend: 0x0, symName: __ZNSt3__16vectorI9ParameterNS_9allocatorIS1_EEE22__base_destruct_at_endB8ue170006EPS1_, symObjAddr: 0x10A34, symBinAddr: 0x10001409C, symSize: 0x8C }
  - { offsetInCU: 0x32FBA, offset: 0x32FBA, size: 0x8, addend: 0x0, symName: __ZNSt3__116allocator_traitsINS_9allocatorI9ParameterEEE7destroyB8ue170006IS2_vEEvRS3_PT_, symObjAddr: 0x10AC0, symBinAddr: 0x100014128, symSize: 0x2C }
  - { offsetInCU: 0x32FF7, offset: 0x32FF7, size: 0x8, addend: 0x0, symName: __ZNSt3__19allocatorI9ParameterE7destroyB8ue170006EPS1_, symObjAddr: 0x10B00, symBinAddr: 0x100014168, symSize: 0x28 }
  - { offsetInCU: 0x3302B, offset: 0x3302B, size: 0x8, addend: 0x0, symName: __ZN9ParameterD1Ev, symObjAddr: 0x10B28, symBinAddr: 0x100014190, symSize: 0x2C }
  - { offsetInCU: 0x33057, offset: 0x33057, size: 0x8, addend: 0x0, symName: __ZN9ParameterD2Ev, symObjAddr: 0x10B54, symBinAddr: 0x1000141BC, symSize: 0x2C }
  - { offsetInCU: 0x33083, offset: 0x33083, size: 0x8, addend: 0x0, symName: __ZNKSt3__16vectorI9ParameterNS_9allocatorIS1_EEE31__annotate_contiguous_containerB8ue170006EPKvS6_S6_S6_, symObjAddr: 0x10B80, symBinAddr: 0x1000141E8, symSize: 0x20 }
  - { offsetInCU: 0x330D9, offset: 0x330D9, size: 0x8, addend: 0x0, symName: __ZNKSt3__16vectorI9ParameterNS_9allocatorIS1_EEE4dataB8ue170006Ev, symObjAddr: 0x10BA0, symBinAddr: 0x100014208, symSize: 0x28 }
  - { offsetInCU: 0x330FF, offset: 0x330FF, size: 0x8, addend: 0x0, symName: __ZNKSt3__16vectorI9ParameterNS_9allocatorIS1_EEE4sizeB8ue170006Ev, symObjAddr: 0x10BC8, symBinAddr: 0x100014230, symSize: 0x28 }
  - { offsetInCU: 0x33125, offset: 0x33125, size: 0x8, addend: 0x0, symName: __ZNSt3__19allocatorI9ParameterE10deallocateB8ue170006EPS1_m, symObjAddr: 0x10BF0, symBinAddr: 0x100014258, symSize: 0x44 }
  - { offsetInCU: 0x33167, offset: 0x33167, size: 0x8, addend: 0x0, symName: __ZNSt3__117__compressed_pairIP9ParameterNS_9allocatorIS1_EEE6secondB8ue170006Ev, symObjAddr: 0x10C34, symBinAddr: 0x10001429C, symSize: 0x24 }
  - { offsetInCU: 0x3318D, offset: 0x3318D, size: 0x8, addend: 0x0, symName: __ZNSt3__122__compressed_pair_elemINS_9allocatorI9ParameterEELi1ELb1EE5__getB8ue170006Ev, symObjAddr: 0x10C58, symBinAddr: 0x1000142C0, symSize: 0x14 }
  - { offsetInCU: 0x331B3, offset: 0x331B3, size: 0x8, addend: 0x0, symName: __ZNKSt3__16vectorI9ParameterNS_9allocatorIS1_EEE9__end_capB8ue170006Ev, symObjAddr: 0x10C6C, symBinAddr: 0x1000142D4, symSize: 0x28 }
  - { offsetInCU: 0x331D9, offset: 0x331D9, size: 0x8, addend: 0x0, symName: __ZNKSt3__117__compressed_pairIP9ParameterNS_9allocatorIS1_EEE5firstB8ue170006Ev, symObjAddr: 0x10C94, symBinAddr: 0x1000142FC, symSize: 0x24 }
  - { offsetInCU: 0x331FF, offset: 0x331FF, size: 0x8, addend: 0x0, symName: __ZNKSt3__122__compressed_pair_elemIP9ParameterLi0ELb0EE5__getB8ue170006Ev, symObjAddr: 0x10CB8, symBinAddr: 0x100014320, symSize: 0x14 }
  - { offsetInCU: 0x33225, offset: 0x33225, size: 0x8, addend: 0x0, symName: __ZNKSt3__16vectorI9PredicateNS_9allocatorIS1_EEE31__annotate_contiguous_containerB8ue170006EPKvS6_S6_S6_, symObjAddr: 0x10CCC, symBinAddr: 0x100014334, symSize: 0x20 }
  - { offsetInCU: 0x3327B, offset: 0x3327B, size: 0x8, addend: 0x0, symName: __ZNKSt3__16vectorI9PredicateNS_9allocatorIS1_EEE4dataB8ue170006Ev, symObjAddr: 0x10CEC, symBinAddr: 0x100014354, symSize: 0x28 }
  - { offsetInCU: 0x332A1, offset: 0x332A1, size: 0x8, addend: 0x0, symName: __ZNKSt3__16vectorI9PredicateNS_9allocatorIS1_EEE4sizeB8ue170006Ev, symObjAddr: 0x10D14, symBinAddr: 0x10001437C, symSize: 0x28 }
  - { offsetInCU: 0x332C7, offset: 0x332C7, size: 0x8, addend: 0x0, symName: __ZNSt3__19allocatorI9PredicateE10deallocateB8ue170006EPS1_m, symObjAddr: 0x10D3C, symBinAddr: 0x1000143A4, symSize: 0x44 }
  - { offsetInCU: 0x33309, offset: 0x33309, size: 0x8, addend: 0x0, symName: __ZNSt3__117__compressed_pairIP9PredicateNS_9allocatorIS1_EEE6secondB8ue170006Ev, symObjAddr: 0x10D80, symBinAddr: 0x1000143E8, symSize: 0x24 }
  - { offsetInCU: 0x3332F, offset: 0x3332F, size: 0x8, addend: 0x0, symName: __ZNSt3__122__compressed_pair_elemINS_9allocatorI9PredicateEELi1ELb1EE5__getB8ue170006Ev, symObjAddr: 0x10DA4, symBinAddr: 0x10001440C, symSize: 0x14 }
  - { offsetInCU: 0x33355, offset: 0x33355, size: 0x8, addend: 0x0, symName: __ZNKSt3__16vectorI9PredicateNS_9allocatorIS1_EEE9__end_capB8ue170006Ev, symObjAddr: 0x10DB8, symBinAddr: 0x100014420, symSize: 0x28 }
  - { offsetInCU: 0x3337B, offset: 0x3337B, size: 0x8, addend: 0x0, symName: __ZNKSt3__117__compressed_pairIP9PredicateNS_9allocatorIS1_EEE5firstB8ue170006Ev, symObjAddr: 0x10DE0, symBinAddr: 0x100014448, symSize: 0x24 }
  - { offsetInCU: 0x333A1, offset: 0x333A1, size: 0x8, addend: 0x0, symName: __ZNKSt3__122__compressed_pair_elemIP9PredicateLi0ELb0EE5__getB8ue170006Ev, symObjAddr: 0x10E04, symBinAddr: 0x10001446C, symSize: 0x14 }
  - { offsetInCU: 0x333C7, offset: 0x333C7, size: 0x8, addend: 0x0, symName: __ZNSt3__16vectorI4RuleNS_9allocatorIS1_EEED2B8ue170006Ev, symObjAddr: 0x10E18, symBinAddr: 0x100014480, symSize: 0x44 }
  - { offsetInCU: 0x333F1, offset: 0x333F1, size: 0x8, addend: 0x0, symName: __ZNSt3__16vectorI4RuleNS_9allocatorIS1_EEE16__destroy_vectorC1B8ue170006ERS4_, symObjAddr: 0x10E5C, symBinAddr: 0x1000144C4, symSize: 0x34 }
  - { offsetInCU: 0x3342A, offset: 0x3342A, size: 0x8, addend: 0x0, symName: __ZNSt3__16vectorI4RuleNS_9allocatorIS1_EEE16__destroy_vectorclB8ue170006Ev, symObjAddr: 0x10E90, symBinAddr: 0x1000144F8, symSize: 0x90 }
  - { offsetInCU: 0x33450, offset: 0x33450, size: 0x8, addend: 0x0, symName: __ZNSt3__16vectorI4RuleNS_9allocatorIS1_EEE16__destroy_vectorC2B8ue170006ERS4_, symObjAddr: 0x10F20, symBinAddr: 0x100014588, symSize: 0x20 }
  - { offsetInCU: 0x33489, offset: 0x33489, size: 0x8, addend: 0x0, symName: __ZNSt3__16vectorI4RuleNS_9allocatorIS1_EEE7__clearB8ue170006Ev, symObjAddr: 0x10F40, symBinAddr: 0x1000145A8, symSize: 0x28 }
  - { offsetInCU: 0x334AF, offset: 0x334AF, size: 0x8, addend: 0x0, symName: __ZNKSt3__16vectorI4RuleNS_9allocatorIS1_EEE17__annotate_deleteB8ue170006Ev, symObjAddr: 0x10F68, symBinAddr: 0x1000145D0, symSize: 0xD4 }
  - { offsetInCU: 0x334D5, offset: 0x334D5, size: 0x8, addend: 0x0, symName: __ZNSt3__116allocator_traitsINS_9allocatorI4RuleEEE10deallocateB8ue170006ERS3_PS2_m, symObjAddr: 0x1103C, symBinAddr: 0x1000146A4, symSize: 0x34 }
  - { offsetInCU: 0x33517, offset: 0x33517, size: 0x8, addend: 0x0, symName: __ZNSt3__16vectorI4RuleNS_9allocatorIS1_EEE7__allocB8ue170006Ev, symObjAddr: 0x11070, symBinAddr: 0x1000146D8, symSize: 0x28 }
  - { offsetInCU: 0x3353D, offset: 0x3353D, size: 0x8, addend: 0x0, symName: __ZNKSt3__16vectorI4RuleNS_9allocatorIS1_EEE8capacityB8ue170006Ev, symObjAddr: 0x11098, symBinAddr: 0x100014700, symSize: 0x40 }
  - { offsetInCU: 0x33563, offset: 0x33563, size: 0x8, addend: 0x0, symName: __ZNSt3__16vectorI4RuleNS_9allocatorIS1_EEE22__base_destruct_at_endB8ue170006EPS1_, symObjAddr: 0x110D8, symBinAddr: 0x100014740, symSize: 0x8C }
  - { offsetInCU: 0x335A7, offset: 0x335A7, size: 0x8, addend: 0x0, symName: __ZNSt3__116allocator_traitsINS_9allocatorI4RuleEEE7destroyB8ue170006IS2_vEEvRS3_PT_, symObjAddr: 0x11164, symBinAddr: 0x1000147CC, symSize: 0x2C }
  - { offsetInCU: 0x335E4, offset: 0x335E4, size: 0x8, addend: 0x0, symName: __ZNSt3__19allocatorI4RuleE7destroyB8ue170006EPS1_, symObjAddr: 0x111A4, symBinAddr: 0x10001480C, symSize: 0x28 }
  - { offsetInCU: 0x33618, offset: 0x33618, size: 0x8, addend: 0x0, symName: __ZN4RuleD1Ev, symObjAddr: 0x111CC, symBinAddr: 0x100014834, symSize: 0x2C }
  - { offsetInCU: 0x33644, offset: 0x33644, size: 0x8, addend: 0x0, symName: __ZN4RuleD2Ev, symObjAddr: 0x111F8, symBinAddr: 0x100014860, symSize: 0x38 }
  - { offsetInCU: 0x33670, offset: 0x33670, size: 0x8, addend: 0x0, symName: __ZNKSt3__16vectorI4RuleNS_9allocatorIS1_EEE31__annotate_contiguous_containerB8ue170006EPKvS6_S6_S6_, symObjAddr: 0x11230, symBinAddr: 0x100014898, symSize: 0x20 }
  - { offsetInCU: 0x336C6, offset: 0x336C6, size: 0x8, addend: 0x0, symName: __ZNKSt3__16vectorI4RuleNS_9allocatorIS1_EEE4dataB8ue170006Ev, symObjAddr: 0x11250, symBinAddr: 0x1000148B8, symSize: 0x28 }
  - { offsetInCU: 0x336EC, offset: 0x336EC, size: 0x8, addend: 0x0, symName: __ZNKSt3__16vectorI4RuleNS_9allocatorIS1_EEE4sizeB8ue170006Ev, symObjAddr: 0x11278, symBinAddr: 0x1000148E0, symSize: 0x28 }
  - { offsetInCU: 0x33712, offset: 0x33712, size: 0x8, addend: 0x0, symName: __ZNSt3__19allocatorI4RuleE10deallocateB8ue170006EPS1_m, symObjAddr: 0x112A0, symBinAddr: 0x100014908, symSize: 0x44 }
  - { offsetInCU: 0x33754, offset: 0x33754, size: 0x8, addend: 0x0, symName: __ZNSt3__117__compressed_pairIP4RuleNS_9allocatorIS1_EEE6secondB8ue170006Ev, symObjAddr: 0x112E4, symBinAddr: 0x10001494C, symSize: 0x24 }
  - { offsetInCU: 0x3377A, offset: 0x3377A, size: 0x8, addend: 0x0, symName: __ZNSt3__122__compressed_pair_elemINS_9allocatorI4RuleEELi1ELb1EE5__getB8ue170006Ev, symObjAddr: 0x11308, symBinAddr: 0x100014970, symSize: 0x14 }
  - { offsetInCU: 0x337A0, offset: 0x337A0, size: 0x8, addend: 0x0, symName: __ZNKSt3__16vectorI4RuleNS_9allocatorIS1_EEE9__end_capB8ue170006Ev, symObjAddr: 0x1131C, symBinAddr: 0x100014984, symSize: 0x28 }
  - { offsetInCU: 0x337C6, offset: 0x337C6, size: 0x8, addend: 0x0, symName: __ZNKSt3__117__compressed_pairIP4RuleNS_9allocatorIS1_EEE5firstB8ue170006Ev, symObjAddr: 0x11344, symBinAddr: 0x1000149AC, symSize: 0x24 }
  - { offsetInCU: 0x337EC, offset: 0x337EC, size: 0x8, addend: 0x0, symName: __ZNKSt3__122__compressed_pair_elemIP4RuleLi0ELb0EE5__getB8ue170006Ev, symObjAddr: 0x11368, symBinAddr: 0x1000149D0, symSize: 0x14 }
  - { offsetInCU: 0x33812, offset: 0x33812, size: 0x8, addend: 0x0, symName: __ZN7ScannerD2Ev, symObjAddr: 0x1137C, symBinAddr: 0x1000149E4, symSize: 0x44 }
  - { offsetInCU: 0x3383E, offset: 0x3383E, size: 0x8, addend: 0x0, symName: __ZNSt3__15stackIcNS_5dequeIcNS_9allocatorIcEEEEED1Ev, symObjAddr: 0x113C0, symBinAddr: 0x100014A28, symSize: 0x2C }
  - { offsetInCU: 0x3386A, offset: 0x3386A, size: 0x8, addend: 0x0, symName: __ZNSt3__15stackIcNS_5dequeIcNS_9allocatorIcEEEEED2Ev, symObjAddr: 0x113EC, symBinAddr: 0x100014A54, symSize: 0x2C }
  - { offsetInCU: 0x33896, offset: 0x33896, size: 0x8, addend: 0x0, symName: __ZNSt3__15dequeIcNS_9allocatorIcEEED1B8ue170006Ev, symObjAddr: 0x11418, symBinAddr: 0x100014A80, symSize: 0x2C }
  - { offsetInCU: 0x338C0, offset: 0x338C0, size: 0x8, addend: 0x0, symName: __ZNSt3__15dequeIcNS_9allocatorIcEEED2B8ue170006Ev, symObjAddr: 0x11444, symBinAddr: 0x100014AAC, symSize: 0xA4 }
  - { offsetInCU: 0x33916, offset: 0x33916, size: 0x8, addend: 0x0, symName: __ZNSt3__15dequeIcNS_9allocatorIcEEE5clearEv, symObjAddr: 0x114E8, symBinAddr: 0x100014B50, symSize: 0x180 }
  - { offsetInCU: 0x33971, offset: 0x33971, size: 0x8, addend: 0x0, symName: __ZNKSt3__15dequeIcNS_9allocatorIcEEE17__annotate_deleteB8ue170006Ev, symObjAddr: 0x11668, symBinAddr: 0x100014CD0, symSize: 0xE8 }
  - { offsetInCU: 0x339B4, offset: 0x339B4, size: 0x8, addend: 0x0, symName: __ZNSt3__114__split_bufferIPcNS_9allocatorIS1_EEE5beginB8ue170006Ev, symObjAddr: 0x11750, symBinAddr: 0x100014DB8, symSize: 0x18 }
  - { offsetInCU: 0x339DA, offset: 0x339DA, size: 0x8, addend: 0x0, symName: __ZNSt3__114__split_bufferIPcNS_9allocatorIS1_EEE3endB8ue170006Ev, symObjAddr: 0x11768, symBinAddr: 0x100014DD0, symSize: 0x18 }
  - { offsetInCU: 0x33A00, offset: 0x33A00, size: 0x8, addend: 0x0, symName: __ZNSt3__15dequeIcNS_9allocatorIcEEE7__allocB8ue170006Ev, symObjAddr: 0x11780, symBinAddr: 0x100014DE8, symSize: 0x28 }
  - { offsetInCU: 0x33A26, offset: 0x33A26, size: 0x8, addend: 0x0, symName: __ZNSt3__114__split_bufferIPcNS_9allocatorIS1_EEED1Ev, symObjAddr: 0x117A8, symBinAddr: 0x100014E10, symSize: 0x2C }
  - { offsetInCU: 0x33A52, offset: 0x33A52, size: 0x8, addend: 0x0, symName: __ZNSt3__15dequeIcNS_9allocatorIcEEE5beginB8ue170006Ev, symObjAddr: 0x117D4, symBinAddr: 0x100014E3C, symSize: 0xB8 }
  - { offsetInCU: 0x33A87, offset: 0x33A87, size: 0x8, addend: 0x0, symName: __ZNSt3__15dequeIcNS_9allocatorIcEEE3endB8ue170006Ev, symObjAddr: 0x1188C, symBinAddr: 0x100014EF4, symSize: 0xBC }
  - { offsetInCU: 0x33ACB, offset: 0x33ACB, size: 0x8, addend: 0x0, symName: __ZNSt3__116allocator_traitsINS_9allocatorIcEEE7destroyB8ue170006IcvEEvRS2_PT_, symObjAddr: 0x1197C, symBinAddr: 0x100014FE4, symSize: 0x2C }
  - { offsetInCU: 0x33B08, offset: 0x33B08, size: 0x8, addend: 0x0, symName: __ZNKSt3__116__deque_iteratorIcPcRcPS1_lLl4096EEdeB8ue170006Ev, symObjAddr: 0x119A8, symBinAddr: 0x100015010, symSize: 0x18 }
  - { offsetInCU: 0x33B2E, offset: 0x33B2E, size: 0x8, addend: 0x0, symName: __ZNSt3__116__deque_iteratorIcPcRcPS1_lLl4096EEppB8ue170006Ev, symObjAddr: 0x119C0, symBinAddr: 0x100015028, symSize: 0x68 }
  - { offsetInCU: 0x33B54, offset: 0x33B54, size: 0x8, addend: 0x0, symName: __ZNSt3__15dequeIcNS_9allocatorIcEEE6__sizeB8ue170006Ev, symObjAddr: 0x11A28, symBinAddr: 0x100015090, symSize: 0x28 }
  - { offsetInCU: 0x33B7A, offset: 0x33B7A, size: 0x8, addend: 0x0, symName: __ZNSt3__114__split_bufferIPcNS_9allocatorIS1_EEE5frontB8ue170006Ev, symObjAddr: 0x11A50, symBinAddr: 0x1000150B8, symSize: 0x18 }
  - { offsetInCU: 0x33BA0, offset: 0x33BA0, size: 0x8, addend: 0x0, symName: __ZNSt3__114__split_bufferIPcNS_9allocatorIS1_EEE9pop_frontB8ue170006Ev, symObjAddr: 0x11A68, symBinAddr: 0x1000150D0, symSize: 0x2C }
  - { offsetInCU: 0x33BC6, offset: 0x33BC6, size: 0x8, addend: 0x0, symName: __ZNKSt3__114__split_bufferIPcNS_9allocatorIS1_EEE5emptyB8ue170006Ev, symObjAddr: 0x11A94, symBinAddr: 0x1000150FC, symSize: 0x28 }
  - { offsetInCU: 0x33BEC, offset: 0x33BEC, size: 0x8, addend: 0x0, symName: __ZNSt3__116__deque_iteratorIcPcRcPS1_lLl4096EEC1B8ue170006ES3_S1_, symObjAddr: 0x11ABC, symBinAddr: 0x100015124, symSize: 0x3C }
  - { offsetInCU: 0x33C34, offset: 0x33C34, size: 0x8, addend: 0x0, symName: __ZNSt3__116__deque_iteratorIcPcRcPS1_lLl4096EEC2B8ue170006ES3_S1_, symObjAddr: 0x11AF8, symBinAddr: 0x100015160, symSize: 0x2C }
  - { offsetInCU: 0x33C7C, offset: 0x33C7C, size: 0x8, addend: 0x0, symName: __ZNSt3__19allocatorIcE7destroyB8ue170006EPc, symObjAddr: 0x11B54, symBinAddr: 0x1000151BC, symSize: 0x14 }
  - { offsetInCU: 0x33CB0, offset: 0x33CB0, size: 0x8, addend: 0x0, symName: __ZNSt3__117__compressed_pairImNS_9allocatorIcEEE5firstB8ue170006Ev, symObjAddr: 0x11B68, symBinAddr: 0x1000151D0, symSize: 0x24 }
  - { offsetInCU: 0x33CD6, offset: 0x33CD6, size: 0x8, addend: 0x0, symName: __ZNSt3__114__split_bufferIPcNS_9allocatorIS1_EEE19__destruct_at_beginB8ue170006EPS1_, symObjAddr: 0x11B8C, symBinAddr: 0x1000151F4, symSize: 0x2C }
  - { offsetInCU: 0x33D0A, offset: 0x33D0A, size: 0x8, addend: 0x0, symName: __ZNSt3__114__split_bufferIPcNS_9allocatorIS1_EEE19__destruct_at_beginEPS1_NS_17integral_constantIbLb1EEE, symObjAddr: 0x11BB8, symBinAddr: 0x100015220, symSize: 0x20 }
  - { offsetInCU: 0x33D4B, offset: 0x33D4B, size: 0x8, addend: 0x0, symName: __ZNKSt3__15dequeIcNS_9allocatorIcEEE22__annotate_whole_blockB8ue170006EmNS3_22__asan_annotation_typeE, symObjAddr: 0x11BD8, symBinAddr: 0x100015240, symSize: 0xAC }
  - { offsetInCU: 0x33DBC, offset: 0x33DBC, size: 0x8, addend: 0x0, symName: __ZNKSt3__15dequeIcNS_9allocatorIcEEE23__annotate_poison_blockB8ue170006EPKvS5_, symObjAddr: 0x11C84, symBinAddr: 0x1000152EC, symSize: 0x44 }
  - { offsetInCU: 0x33E00, offset: 0x33E00, size: 0x8, addend: 0x0, symName: __ZNSt3__117__compressed_pairImNS_9allocatorIcEEE6secondB8ue170006Ev, symObjAddr: 0x11CC8, symBinAddr: 0x100015330, symSize: 0x24 }
  - { offsetInCU: 0x33E26, offset: 0x33E26, size: 0x8, addend: 0x0, symName: __ZNSt3__114__split_bufferIPcNS_9allocatorIS1_EEED2Ev, symObjAddr: 0x11CEC, symBinAddr: 0x100015354, symSize: 0x8C }
  - { offsetInCU: 0x33E52, offset: 0x33E52, size: 0x8, addend: 0x0, symName: __ZNSt3__114__split_bufferIPcNS_9allocatorIS1_EEE5clearB8ue170006Ev, symObjAddr: 0x11D78, symBinAddr: 0x1000153E0, symSize: 0x28 }
  - { offsetInCU: 0x33E78, offset: 0x33E78, size: 0x8, addend: 0x0, symName: __ZNSt3__116allocator_traitsINS_9allocatorIPcEEE10deallocateB8ue170006ERS3_PS2_m, symObjAddr: 0x11DA0, symBinAddr: 0x100015408, symSize: 0x34 }
  - { offsetInCU: 0x33EBA, offset: 0x33EBA, size: 0x8, addend: 0x0, symName: __ZNSt3__114__split_bufferIPcNS_9allocatorIS1_EEE7__allocB8ue170006Ev, symObjAddr: 0x11DD4, symBinAddr: 0x10001543C, symSize: 0x28 }
  - { offsetInCU: 0x33EE0, offset: 0x33EE0, size: 0x8, addend: 0x0, symName: __ZNKSt3__114__split_bufferIPcNS_9allocatorIS1_EEE8capacityB8ue170006Ev, symObjAddr: 0x11DFC, symBinAddr: 0x100015464, symSize: 0x40 }
  - { offsetInCU: 0x33F06, offset: 0x33F06, size: 0x8, addend: 0x0, symName: __ZNSt3__114__split_bufferIPcNS_9allocatorIS1_EEE17__destruct_at_endB8ue170006EPS1_, symObjAddr: 0x11E3C, symBinAddr: 0x1000154A4, symSize: 0x2C }
  - { offsetInCU: 0x33F3A, offset: 0x33F3A, size: 0x8, addend: 0x0, symName: __ZNSt3__114__split_bufferIPcNS_9allocatorIS1_EEE17__destruct_at_endB8ue170006EPS1_NS_17integral_constantIbLb0EEE, symObjAddr: 0x11E68, symBinAddr: 0x1000154D0, symSize: 0x80 }
  - { offsetInCU: 0x33F7B, offset: 0x33F7B, size: 0x8, addend: 0x0, symName: __ZNSt3__116allocator_traitsINS_9allocatorIPcEEE7destroyB8ue170006IS2_vEEvRS3_PT_, symObjAddr: 0x11EE8, symBinAddr: 0x100015550, symSize: 0x2C }
  - { offsetInCU: 0x33FB8, offset: 0x33FB8, size: 0x8, addend: 0x0, symName: __ZNSt3__19allocatorIPcE7destroyB8ue170006EPS1_, symObjAddr: 0x11F28, symBinAddr: 0x100015590, symSize: 0x14 }
  - { offsetInCU: 0x33FEC, offset: 0x33FEC, size: 0x8, addend: 0x0, symName: __ZNSt3__19allocatorIPcE10deallocateB8ue170006EPS1_m, symObjAddr: 0x11F3C, symBinAddr: 0x1000155A4, symSize: 0x40 }
  - { offsetInCU: 0x3402E, offset: 0x3402E, size: 0x8, addend: 0x0, symName: __ZNSt3__117__compressed_pairIPPcNS_9allocatorIS1_EEE6secondB8ue170006Ev, symObjAddr: 0x11F7C, symBinAddr: 0x1000155E4, symSize: 0x24 }
  - { offsetInCU: 0x34054, offset: 0x34054, size: 0x8, addend: 0x0, symName: __ZNSt3__122__compressed_pair_elemINS_9allocatorIPcEELi1ELb1EE5__getB8ue170006Ev, symObjAddr: 0x11FA0, symBinAddr: 0x100015608, symSize: 0x14 }
  - { offsetInCU: 0x3407A, offset: 0x3407A, size: 0x8, addend: 0x0, symName: __ZNKSt3__114__split_bufferIPcNS_9allocatorIS1_EEE9__end_capB8ue170006Ev, symObjAddr: 0x11FB4, symBinAddr: 0x10001561C, symSize: 0x28 }
  - { offsetInCU: 0x340A0, offset: 0x340A0, size: 0x8, addend: 0x0, symName: __ZNKSt3__117__compressed_pairIPPcNS_9allocatorIS1_EEE5firstB8ue170006Ev, symObjAddr: 0x11FDC, symBinAddr: 0x100015644, symSize: 0x24 }
  - { offsetInCU: 0x340C6, offset: 0x340C6, size: 0x8, addend: 0x0, symName: __ZNKSt3__122__compressed_pair_elemIPPcLi0ELb0EE5__getB8ue170006Ev, symObjAddr: 0x12000, symBinAddr: 0x100015668, symSize: 0x14 }
  - { offsetInCU: 0x340EC, offset: 0x340EC, size: 0x8, addend: 0x0, symName: __ZNSt3__118basic_stringstreamIcNS_11char_traitsIcEENS_9allocatorIcEEED2Ev, symObjAddr: 0x12014, symBinAddr: 0x10001567C, symSize: 0x6C }
  - { offsetInCU: 0x34126, offset: 0x34126, size: 0x8, addend: 0x0, symName: __ZThn16_NSt3__118basic_stringstreamIcNS_11char_traitsIcEENS_9allocatorIcEEED1Ev, symObjAddr: 0x12080, symBinAddr: 0x1000156E8, symSize: 0x1C }
  - { offsetInCU: 0x3413D, offset: 0x3413D, size: 0x8, addend: 0x0, symName: __ZTv0_n24_NSt3__118basic_stringstreamIcNS_11char_traitsIcEENS_9allocatorIcEEED1Ev, symObjAddr: 0x1209C, symBinAddr: 0x100015704, symSize: 0x28 }
  - { offsetInCU: 0x34159, offset: 0x34159, size: 0x8, addend: 0x0, symName: __ZNSt3__115basic_stringbufIcNS_11char_traitsIcEENS_9allocatorIcEEED1Ev, symObjAddr: 0x120C4, symBinAddr: 0x10001572C, symSize: 0x2C }
  - { offsetInCU: 0x34186, offset: 0x34186, size: 0x8, addend: 0x0, symName: __ZNSt3__115basic_stringbufIcNS_11char_traitsIcEENS_9allocatorIcEEED2Ev, symObjAddr: 0x120F0, symBinAddr: 0x100015758, symSize: 0x48 }
  - { offsetInCU: 0x341B3, offset: 0x341B3, size: 0x8, addend: 0x0, symName: __ZNSt3__114basic_ifstreamIcNS_11char_traitsIcEEED2Ev, symObjAddr: 0x12138, symBinAddr: 0x1000157A0, symSize: 0x64 }
  - { offsetInCU: 0x341ED, offset: 0x341ED, size: 0x8, addend: 0x0, symName: __ZTv0_n24_NSt3__114basic_ifstreamIcNS_11char_traitsIcEEED1Ev, symObjAddr: 0x1219C, symBinAddr: 0x100015804, symSize: 0x28 }
  - { offsetInCU: 0x34204, offset: 0x34204, size: 0x8, addend: 0x0, symName: __ZNSt3__112basic_stringIcNS_11char_traitsIcEENS_9allocatorIcEEEC2B8ue170006ILi0EEEPKc, symObjAddr: 0x121C4, symBinAddr: 0x10001582C, symSize: 0x58 }
  - { offsetInCU: 0x34243, offset: 0x34243, size: 0x8, addend: 0x0, symName: __ZNSt3__19basic_iosIcNS_11char_traitsIcEEEC2B8ue170006Ev, symObjAddr: 0x1221C, symBinAddr: 0x100015884, symSize: 0x44 }
  - { offsetInCU: 0x3426D, offset: 0x3426D, size: 0x8, addend: 0x0, symName: __ZNSt3__114basic_iostreamIcNS_11char_traitsIcEEEC2B8ue170006EPNS_15basic_streambufIcS2_EE, symObjAddr: 0x12260, symBinAddr: 0x1000158C8, symSize: 0xAC }
  - { offsetInCU: 0x342B3, offset: 0x342B3, size: 0x8, addend: 0x0, symName: __ZNSt3__115basic_stringbufIcNS_11char_traitsIcEENS_9allocatorIcEEEC1B8ue170006Ej, symObjAddr: 0x1230C, symBinAddr: 0x100015974, symSize: 0x34 }
  - { offsetInCU: 0x342EC, offset: 0x342EC, size: 0x8, addend: 0x0, symName: __ZNSt3__18ios_baseC2B8ue170006Ev, symObjAddr: 0x12340, symBinAddr: 0x1000159A8, symSize: 0x24 }
  - { offsetInCU: 0x34316, offset: 0x34316, size: 0x8, addend: 0x0, symName: __ZNSt3__113basic_istreamIcNS_11char_traitsIcEEEC2B8ue170006EPNS_15basic_streambufIcS2_EE, symObjAddr: 0x12364, symBinAddr: 0x1000159CC, symSize: 0x64 }
  - { offsetInCU: 0x3435B, offset: 0x3435B, size: 0x8, addend: 0x0, symName: __ZNSt3__113basic_ostreamIcNS_11char_traitsIcEEEC2B8ue170006Ev, symObjAddr: 0x123C8, symBinAddr: 0x100015A30, symSize: 0x34 }
  - { offsetInCU: 0x34392, offset: 0x34392, size: 0x8, addend: 0x0, symName: __ZNSt3__19basic_iosIcNS_11char_traitsIcEEE4initB8ue170006EPNS_15basic_streambufIcS2_EE, symObjAddr: 0x123FC, symBinAddr: 0x100015A64, symSize: 0x44 }
  - { offsetInCU: 0x343C9, offset: 0x343C9, size: 0x8, addend: 0x0, symName: __ZNSt3__115basic_stringbufIcNS_11char_traitsIcEENS_9allocatorIcEEEC2B8ue170006Ej, symObjAddr: 0x12440, symBinAddr: 0x100015AA8, symSize: 0x60 }
  - { offsetInCU: 0x34402, offset: 0x34402, size: 0x8, addend: 0x0, symName: __ZNSt3__16vectorI5TokenNS_9allocatorIS1_EEED2B8ue170006Ev, symObjAddr: 0x124A0, symBinAddr: 0x100015B08, symSize: 0x40 }
  - { offsetInCU: 0x3442C, offset: 0x3442C, size: 0x8, addend: 0x0, symName: __ZNSt3__16vectorINS_12basic_stringIcNS_11char_traitsIcEENS_9allocatorIcEEEENS4_IS6_EEEC2B8ue170006ESt16initializer_listIS6_E, symObjAddr: 0x124E0, symBinAddr: 0x100015B48, symSize: 0x120 }
  - { offsetInCU: 0x3447C, offset: 0x3447C, size: 0x8, addend: 0x0, symName: __ZNSt3__117__compressed_pairIPNS_12basic_stringIcNS_11char_traitsIcEENS_9allocatorIcEEEENS4_IS6_EEEC1B8ue170006IDnNS_18__default_init_tagEEEOT_OT0_, symObjAddr: 0x12600, symBinAddr: 0x100015C68, symSize: 0x3C }
  - { offsetInCU: 0x344D4, offset: 0x344D4, size: 0x8, addend: 0x0, symName: __ZNKSt16initializer_listINSt3__112basic_stringIcNS0_11char_traitsIcEENS0_9allocatorIcEEEEE4sizeB8ue170006Ev, symObjAddr: 0x1263C, symBinAddr: 0x100015CA4, symSize: 0x18 }
  - { offsetInCU: 0x344FA, offset: 0x344FA, size: 0x8, addend: 0x0, symName: __ZNSt3__16vectorINS_12basic_stringIcNS_11char_traitsIcEENS_9allocatorIcEEEENS4_IS6_EEE18__construct_at_endIPKS6_SB_EEvT_T0_m, symObjAddr: 0x12654, symBinAddr: 0x100015CBC, symSize: 0x8C }
  - { offsetInCU: 0x34570, offset: 0x34570, size: 0x8, addend: 0x0, symName: __ZNKSt16initializer_listINSt3__112basic_stringIcNS0_11char_traitsIcEENS0_9allocatorIcEEEEE5beginB8ue170006Ev, symObjAddr: 0x126E0, symBinAddr: 0x100015D48, symSize: 0x18 }
  - { offsetInCU: 0x34596, offset: 0x34596, size: 0x8, addend: 0x0, symName: __ZNKSt16initializer_listINSt3__112basic_stringIcNS0_11char_traitsIcEENS0_9allocatorIcEEEEE3endB8ue170006Ev, symObjAddr: 0x126F8, symBinAddr: 0x100015D60, symSize: 0x28 }
  - { offsetInCU: 0x345BC, offset: 0x345BC, size: 0x8, addend: 0x0, symName: __ZNSt3__117__compressed_pairIPNS_12basic_stringIcNS_11char_traitsIcEENS_9allocatorIcEEEENS4_IS6_EEEC2B8ue170006IDnNS_18__default_init_tagEEEOT_OT0_, symObjAddr: 0x12720, symBinAddr: 0x100015D88, symSize: 0x40 }
  - { offsetInCU: 0x34614, offset: 0x34614, size: 0x8, addend: 0x0, symName: __ZNSt3__122__compressed_pair_elemINS_9allocatorINS_12basic_stringIcNS_11char_traitsIcEENS1_IcEEEEEELi1ELb1EEC2B8ue170006ENS_18__default_init_tagE, symObjAddr: 0x12760, symBinAddr: 0x100015DC8, symSize: 0x2C }
  - { offsetInCU: 0x34649, offset: 0x34649, size: 0x8, addend: 0x0, symName: __ZNSt3__19allocatorINS_12basic_stringIcNS_11char_traitsIcEENS0_IcEEEEEC2B8ue170006Ev, symObjAddr: 0x1278C, symBinAddr: 0x100015DF4, symSize: 0x2C }
  - { offsetInCU: 0x34673, offset: 0x34673, size: 0x8, addend: 0x0, symName: __ZNSt3__116__non_trivial_ifILb1ENS_9allocatorINS_12basic_stringIcNS_11char_traitsIcEENS1_IcEEEEEEEC2B8ue170006Ev, symObjAddr: 0x127B8, symBinAddr: 0x100015E20, symSize: 0x14 }
  - { offsetInCU: 0x346BF, offset: 0x346BF, size: 0x8, addend: 0x0, symName: __ZNSt3__14pairIPKNS_12basic_stringIcNS_11char_traitsIcEENS_9allocatorIcEEEES8_EC1B8ue170006IS8_S8_LPv0EEEOT_OT0_, symObjAddr: 0x129FC, symBinAddr: 0x100016064, symSize: 0x3C }
  - { offsetInCU: 0x3471D, offset: 0x3471D, size: 0x8, addend: 0x0, symName: __ZNSt3__14pairIPKNS_12basic_stringIcNS_11char_traitsIcEENS_9allocatorIcEEEES8_EC2B8ue170006IS8_S8_LPv0EEEOT_OT0_, symObjAddr: 0x12A38, symBinAddr: 0x1000160A0, symSize: 0x34 }
  - { offsetInCU: 0x3477B, offset: 0x3477B, size: 0x8, addend: 0x0, symName: __ZNSt3__118__unwrap_iter_implIPKNS_12basic_stringIcNS_11char_traitsIcEENS_9allocatorIcEEEELb1EE8__unwrapB8ue170006ES8_, symObjAddr: 0x12A6C, symBinAddr: 0x1000160D4, symSize: 0x24 }
  - { offsetInCU: 0x3479E, offset: 0x3479E, size: 0x8, addend: 0x0, symName: __ZNSt3__116allocator_traitsINS_9allocatorINS_12basic_stringIcNS_11char_traitsIcEENS1_IcEEEEEEE9constructB8ue170006IS6_JRKS6_EvEEvRS7_PT_DpOT0_, symObjAddr: 0x12AA4, symBinAddr: 0x10001610C, symSize: 0x34 }
  - { offsetInCU: 0x347F5, offset: 0x347F5, size: 0x8, addend: 0x0, symName: __ZNSt3__19allocatorINS_12basic_stringIcNS_11char_traitsIcEENS0_IcEEEEE9constructB8ue170006IS5_JRKS5_EEEvPT_DpOT0_, symObjAddr: 0x12AD8, symBinAddr: 0x100016140, symSize: 0x30 }
...
