---
triple:          'arm64-apple-darwin'
binary-path:     project5
relocations:
  - { offsetInCU: 0x5C, offset: 0x5C, size: 0x8, addend: 0x0, symName: __ZNSt3__119piecewise_constructE, symObjAddr: 0x3952E, symBinAddr: 0x10003DCE6, symSize: 0x0 }
  - { offsetInCU: 0x24AD3, offset: 0x24AD3, size: 0x8, addend: 0x0, symName: __ZNSt3__124__put_character_sequenceB8ue170006IcNS_11char_traitsIcEEEERNS_13basic_ostreamIT_T0_EES7_PKS4_m, symObjAddr: 0x3F54, symBinAddr: 0x1000075B4, symSize: 0x1EC }
  - { offsetInCU: 0x26699, offset: 0x26699, size: 0x8, addend: 0x0, symName: __ZNSt3__17advanceB8ue170006INS_21__tree_const_iteratorINS_12basic_stringIcNS_11char_traitsIcEENS_9allocatorIcEEEEPNS_11__tree_nodeIS7_PvEElEEllvEEvRT_T0_, symObjAddr: 0x17758, symBinAddr: 0x10001ADB8, symSize: 0x38 }
  - { offsetInCU: 0x29192, offset: 0x29192, size: 0x8, addend: 0x0, symName: __ZNSt3__17advanceB8ue170006INS_21__tree_const_iteratorI5TuplePNS_11__tree_nodeIS2_PvEElEEllvEEvRT_T0_, symObjAddr: 0x1C354, symBinAddr: 0x10001F9B4, symSize: 0x38 }
  - { offsetInCU: 0x2992F, offset: 0x2992F, size: 0x8, addend: 0x0, symName: __ZNSt3__17advanceB8ue170006IPNS_12basic_stringIcNS_11char_traitsIcEENS_9allocatorIcEEEEllvEEvRT_T0_, symObjAddr: 0x22C5C, symBinAddr: 0x1000262BC, symSize: 0x38 }
  - { offsetInCU: 0x2A25C, offset: 0x2A25C, size: 0x8, addend: 0x0, symName: __ZNSt3__17advanceB8ue170006INS_21__tree_const_iteratorIiPNS_11__tree_nodeIiPvEElEEllvEEvRT_T0_, symObjAddr: 0x2BB30, symBinAddr: 0x10002F190, symSize: 0x38 }
  - { offsetInCU: 0x2CE09, offset: 0x2CE09, size: 0x8, addend: 0x0, symName: __ZNSt3__17advanceB8ue170006IPillvEEvRT_T0_, symObjAddr: 0x31B6C, symBinAddr: 0x1000351CC, symSize: 0x38 }
  - { offsetInCU: 0x32774, offset: 0x32774, size: 0x8, addend: 0x0, symName: __ZNSt3__1neB8ue170006IPNS_12basic_stringIcNS_11char_traitsIcEENS_9allocatorIcEEEEEEbRKNS_11__wrap_iterIT_EESC_, symObjAddr: 0x1B34, symBinAddr: 0x100005194, symSize: 0x34 }
  - { offsetInCU: 0x327B7, offset: 0x327B7, size: 0x8, addend: 0x0, symName: __ZNSt3__1lsB8ue170006IcNS_11char_traitsIcEENS_9allocatorIcEEEERNS_13basic_ostreamIT_T0_EES9_RKNS_12basic_stringIS6_S7_T1_EE, symObjAddr: 0x1CE4, symBinAddr: 0x100005344, symSize: 0x4C }
  - { offsetInCU: 0x3280F, offset: 0x3280F, size: 0x8, addend: 0x0, symName: __ZNSt3__112__to_addressB8ue170006IcEEPT_S2_, symObjAddr: 0x2C24, symBinAddr: 0x100006284, symSize: 0x14 }
  - { offsetInCU: 0x32844, offset: 0x32844, size: 0x8, addend: 0x0, symName: __ZNSt3__1neB8ue170006IPcEEbRKNS_11__wrap_iterIT_EES6_, symObjAddr: 0x39FC, symBinAddr: 0x10000705C, symSize: 0x34 }
  - { offsetInCU: 0x32887, offset: 0x32887, size: 0x8, addend: 0x0, symName: __ZNSt3__1lsB8ue170006INS_11char_traitsIcEEEERNS_13basic_ostreamIcT_EES6_c, symObjAddr: 0x3A70, symBinAddr: 0x1000070D0, symSize: 0x34 }
  - { offsetInCU: 0x328CD, offset: 0x328CD, size: 0x8, addend: 0x0, symName: __ZNSt3__1eqB8ue170006IcNS_11char_traitsIcEENS_9allocatorIcEEEEbRKNS_12basic_stringIT_T0_T1_EEPKS6_, symObjAddr: 0x3AF8, symBinAddr: 0x100007158, symSize: 0xAC }
  - { offsetInCU: 0x32967, offset: 0x32967, size: 0x8, addend: 0x0, symName: __ZNSt3__1eqB8ue170006IPcEEbRKNS_11__wrap_iterIT_EES6_, symObjAddr: 0x3EF4, symBinAddr: 0x100007554, symSize: 0x48 }
  - { offsetInCU: 0x329AA, offset: 0x329AA, size: 0x8, addend: 0x0, symName: __ZNSt3__116__pad_and_outputB8ue170006IcNS_11char_traitsIcEEEENS_19ostreambuf_iteratorIT_T0_EES6_PKS4_S8_S8_RNS_8ios_baseES4_, symObjAddr: 0x415C, symBinAddr: 0x1000077BC, symSize: 0x240 }
  - { offsetInCU: 0x32A79, offset: 0x32A79, size: 0x8, addend: 0x0, symName: __ZNSt3__19use_facetB8ue170006INS_5ctypeIcEEEERKT_RKNS_6localeE, symObjAddr: 0x4710, symBinAddr: 0x100007D70, symSize: 0x2C }
  - { offsetInCU: 0x32F46, offset: 0x32F46, size: 0x8, addend: 0x0, symName: __ZNSt3__119__libcpp_deallocateB8ue170006EPvmm, symObjAddr: 0x4A00, symBinAddr: 0x100008060, symSize: 0x60 }
  - { offsetInCU: 0x32FAB, offset: 0x32FAB, size: 0x8, addend: 0x0, symName: __ZNSt3__124__is_overaligned_for_newB8ue170006Em, symObjAddr: 0x4A60, symBinAddr: 0x1000080C0, symSize: 0x20 }
  - { offsetInCU: 0x32FD9, offset: 0x32FD9, size: 0x8, addend: 0x0, symName: __ZNSt3__127__do_deallocate_handle_sizeB8ue170006IJSt11align_val_tEEEvPvmDpT_, symObjAddr: 0x4A80, symBinAddr: 0x1000080E0, symSize: 0x30 }
  - { offsetInCU: 0x3302C, offset: 0x3302C, size: 0x8, addend: 0x0, symName: __ZNSt3__127__do_deallocate_handle_sizeB8ue170006IJEEEvPvmDpT_, symObjAddr: 0x4AB0, symBinAddr: 0x100008110, symSize: 0x28 }
  - { offsetInCU: 0x3306A, offset: 0x3306A, size: 0x8, addend: 0x0, symName: __ZNSt3__124__libcpp_operator_deleteB8ue170006IJPvSt11align_val_tEEEvDpT_, symObjAddr: 0x4AD8, symBinAddr: 0x100008138, symSize: 0x2C }
  - { offsetInCU: 0x330B3, offset: 0x330B3, size: 0x8, addend: 0x0, symName: __ZNSt3__124__libcpp_operator_deleteB8ue170006IJPvEEEvDpT_, symObjAddr: 0x4B04, symBinAddr: 0x100008164, symSize: 0x24 }
  - { offsetInCU: 0x330E8, offset: 0x330E8, size: 0x8, addend: 0x0, symName: __ZNSt3__118__constexpr_strlenB8ue170006EPKc, symObjAddr: 0x4BCC, symBinAddr: 0x10000822C, symSize: 0x24 }
  - { offsetInCU: 0x33114, offset: 0x33114, size: 0x8, addend: 0x0, symName: __ZNSt3__112__to_addressB8ue170006I5TokenEEPT_S3_, symObjAddr: 0x4E9C, symBinAddr: 0x1000084FC, symSize: 0x14 }
  - { offsetInCU: 0x33149, offset: 0x33149, size: 0x8, addend: 0x0, symName: __ZNSt3__116__constrain_hashB8ue170006Emm, symObjAddr: 0x6760, symBinAddr: 0x100009DC0, symSize: 0x98 }
  - { offsetInCU: 0x33183, offset: 0x33183, size: 0x8, addend: 0x0, symName: __ZNSt3__13maxB8ue170006ImEERKT_S3_S3_, symObjAddr: 0x6A94, symBinAddr: 0x10000A0F4, symSize: 0x2C }
  - { offsetInCU: 0x331C6, offset: 0x331C6, size: 0x8, addend: 0x0, symName: __ZNSt3__116__is_hash_power2B8ue170006Em, symObjAddr: 0x6AC0, symBinAddr: 0x10000A120, symSize: 0x50 }
  - { offsetInCU: 0x3324A, offset: 0x3324A, size: 0x8, addend: 0x0, symName: __ZNSt3__17launderB8ue170006IKNS_4pairIKN5Token9TokenTypeENS_12basic_stringIcNS_11char_traitsIcEENS_9allocatorIcEEEEEEEEPT_SE_, symObjAddr: 0x6E94, symBinAddr: 0x10000A4F4, symSize: 0x24 }
  - { offsetInCU: 0x33281, offset: 0x33281, size: 0x8, addend: 0x0, symName: __ZNSt3__19__launderB8ue170006IKNS_4pairIKN5Token9TokenTypeENS_12basic_stringIcNS_11char_traitsIcEENS_9allocatorIcEEEEEEEEPT_SE_, symObjAddr: 0x6EB8, symBinAddr: 0x10000A518, symSize: 0x14 }
  - { offsetInCU: 0x33309, offset: 0x33309, size: 0x8, addend: 0x0, symName: __ZNSt3__117__libcpp_allocateB8ue170006Emm, symObjAddr: 0x7120, symBinAddr: 0x10000A780, symSize: 0x60 }
  - { offsetInCU: 0x33363, offset: 0x33363, size: 0x8, addend: 0x0, symName: __ZNSt3__121__libcpp_operator_newB8ue170006IJmSt11align_val_tEEEPvDpT_, symObjAddr: 0x7198, symBinAddr: 0x10000A7F8, symSize: 0x2C }
  - { offsetInCU: 0x333B0, offset: 0x333B0, size: 0x8, addend: 0x0, symName: __ZNSt3__121__libcpp_operator_newB8ue170006IJmEEEPvDpT_, symObjAddr: 0x71C4, symBinAddr: 0x10000A824, symSize: 0x24 }
  - { offsetInCU: 0x333E9, offset: 0x333E9, size: 0x8, addend: 0x0, symName: __ZNSt3__17launderB8ue170006INS_4pairIKN5Token9TokenTypeENS_12basic_stringIcNS_11char_traitsIcEENS_9allocatorIcEEEEEEEEPT_SD_, symObjAddr: 0x7404, symBinAddr: 0x10000AA64, symSize: 0x24 }
  - { offsetInCU: 0x33420, offset: 0x33420, size: 0x8, addend: 0x0, symName: __ZNSt3__19__launderB8ue170006INS_4pairIKN5Token9TokenTypeENS_12basic_stringIcNS_11char_traitsIcEENS_9allocatorIcEEEEEEEEPT_SD_, symObjAddr: 0x7428, symBinAddr: 0x10000AA88, symSize: 0x14 }
  - { offsetInCU: 0x33457, offset: 0x33457, size: 0x8, addend: 0x0, symName: __ZNSt3__116__next_hash_pow2B8ue170006Em, symObjAddr: 0x7918, symBinAddr: 0x10000AF78, symSize: 0x6C }
  - { offsetInCU: 0x3349F, offset: 0x3349F, size: 0x8, addend: 0x0, symName: __ZNSt3__112__libcpp_clzB8ue170006Em, symObjAddr: 0x7CC0, symBinAddr: 0x10000B320, symSize: 0x1C }
  - { offsetInCU: 0x334CB, offset: 0x334CB, size: 0x8, addend: 0x0, symName: __ZNSt3__13maxB8ue170006ImNS_6__lessIvvEEEERKT_S5_S5_T0_, symObjAddr: 0x7CDC, symBinAddr: 0x10000B33C, symSize: 0x54 }
  - { offsetInCU: 0x3359B, offset: 0x3359B, size: 0x8, addend: 0x0, symName: __ZNSt3__13minB8ue170006ImEERKT_S3_S3_, symObjAddr: 0x8570, symBinAddr: 0x10000BBD0, symSize: 0x2C }
  - { offsetInCU: 0x337C8, offset: 0x337C8, size: 0x8, addend: 0x0, symName: __ZNSt3__13minB8ue170006ImNS_6__lessIvvEEEERKT_S5_S5_T0_, symObjAddr: 0x85FC, symBinAddr: 0x10000BC5C, symSize: 0x54 }
  - { offsetInCU: 0x33823, offset: 0x33823, size: 0x8, addend: 0x0, symName: __ZNSt3__120__throw_length_errorB8ue170006EPKc, symObjAddr: 0x86A8, symBinAddr: 0x10000BD08, symSize: 0x64 }
  - { offsetInCU: 0x3384C, offset: 0x3384C, size: 0x8, addend: 0x0, symName: __ZNSt3__119__allocate_at_leastB8ue170006INS_9allocatorI5TokenEEEENS_19__allocation_resultINS_16allocator_traitsIT_E7pointerEEERS6_m, symObjAddr: 0x8908, symBinAddr: 0x10000BF68, symSize: 0x40 }
  - { offsetInCU: 0x3388F, offset: 0x3388F, size: 0x8, addend: 0x0, symName: __ZNSt3__142__uninitialized_allocator_move_if_noexceptB8ue170006INS_9allocatorI5TokenEENS_16reverse_iteratorIPS2_EES6_S6_EET2_RT_T0_T1_S7_, symObjAddr: 0x8B94, symBinAddr: 0x10000C1F4, symSize: 0x12C }
  - { offsetInCU: 0x3392F, offset: 0x3392F, size: 0x8, addend: 0x0, symName: __ZNSt3__14swapB8ue170006IP5TokenEENS_9enable_ifIXaasr21is_move_constructibleIT_EE5valuesr18is_move_assignableIS4_EE5valueEvE4typeERS4_S7_, symObjAddr: 0x8D0C, symBinAddr: 0x10000C36C, symSize: 0x3C }
  - { offsetInCU: 0x33980, offset: 0x33980, size: 0x8, addend: 0x0, symName: __ZNSt3__122__make_exception_guardB8ue170006INS_29_AllocatorDestroyRangeReverseINS_9allocatorI5TokenEENS_16reverse_iteratorIPS3_EEEEEENS_28__exception_guard_exceptionsIT_EESA_, symObjAddr: 0x8E58, symBinAddr: 0x10000C4B8, symSize: 0x4C }
  - { offsetInCU: 0x339B6, offset: 0x339B6, size: 0x8, addend: 0x0, symName: __ZNSt3__1neB8ue170006IP5TokenS2_EEbRKNS_16reverse_iteratorIT_EERKNS3_IT0_EE, symObjAddr: 0x8EE8, symBinAddr: 0x10000C548, symSize: 0x48 }
  - { offsetInCU: 0x33A02, offset: 0x33A02, size: 0x8, addend: 0x0, symName: __ZNSt3__112__to_addressB8ue170006INS_16reverse_iteratorIP5TokenEEvEEu7__decayIDTclsr19__to_address_helperIT_EE6__callclsr3stdE7declvalIRKS5_EEEEES7_, symObjAddr: 0x8F64, symBinAddr: 0x10000C5C4, symSize: 0x24 }
  - { offsetInCU: 0x33A56, offset: 0x33A56, size: 0x8, addend: 0x0, symName: __ZNSt3__1neB8ue170006ERKNS_25__hash_map_const_iteratorINS_21__hash_const_iteratorIPNS_11__hash_nodeINS_17__hash_value_typeIN5Token9TokenTypeENS_12basic_stringIcNS_11char_traitsIcEENS_9allocatorIcEEEEEEPvEEEEEESJ_, symObjAddr: 0x9A3C, symBinAddr: 0x10000D09C, symSize: 0x30 }
  - { offsetInCU: 0x33A93, offset: 0x33A93, size: 0x8, addend: 0x0, symName: __ZNSt3__1neB8ue170006ERKNS_21__hash_const_iteratorIPNS_11__hash_nodeINS_17__hash_value_typeIN5Token9TokenTypeENS_12basic_stringIcNS_11char_traitsIcEENS_9allocatorIcEEEEEEPvEEEESH_, symObjAddr: 0x9AC0, symBinAddr: 0x10000D120, symSize: 0x34 }
  - { offsetInCU: 0x33AD0, offset: 0x33AD0, size: 0x8, addend: 0x0, symName: __ZNSt3__1eqB8ue170006ERKNS_21__hash_const_iteratorIPNS_11__hash_nodeINS_17__hash_value_typeIN5Token9TokenTypeENS_12basic_stringIcNS_11char_traitsIcEENS_9allocatorIcEEEEEEPvEEEESH_, symObjAddr: 0x9AF4, symBinAddr: 0x10000D154, symSize: 0x30 }
  - { offsetInCU: 0x33B69, offset: 0x33B69, size: 0x8, addend: 0x0, symName: __ZNSt3__119__allocator_destroyB8ue170006INS_9allocatorI5TokenEENS_16reverse_iteratorINS4_IPS2_EEEES7_EEvRT_T0_T1_, symObjAddr: 0x9E2C, symBinAddr: 0x10000D48C, symSize: 0x70 }
  - { offsetInCU: 0x33BCE, offset: 0x33BCE, size: 0x8, addend: 0x0, symName: __ZNSt3__1neB8ue170006INS_16reverse_iteratorIP5TokenEES4_EEbRKNS1_IT_EERKNS1_IT0_EE, symObjAddr: 0x9ED8, symBinAddr: 0x10000D538, symSize: 0x60 }
  - { offsetInCU: 0x33C1A, offset: 0x33C1A, size: 0x8, addend: 0x0, symName: __ZNSt3__112__to_addressB8ue170006INS_16reverse_iteratorINS1_IP5TokenEEEEvEEu7__decayIDTclsr19__to_address_helperIT_EE6__callclsr3stdE7declvalIRKS6_EEEEES8_, symObjAddr: 0x9F64, symBinAddr: 0x10000D5C4, symSize: 0x24 }
  - { offsetInCU: 0x33C79, offset: 0x33C79, size: 0x8, addend: 0x0, symName: __ZNSt3__122__make_exception_guardB8ue170006INS_6vectorI5TokenNS_9allocatorIS2_EEE16__destroy_vectorEEENS_28__exception_guard_exceptionsIT_EES8_, symObjAddr: 0xB28C, symBinAddr: 0x10000E8EC, symSize: 0x40 }
  - { offsetInCU: 0x33CAE, offset: 0x33CAE, size: 0x8, addend: 0x0, symName: __ZNSt3__130__uninitialized_allocator_copyB8ue170006INS_9allocatorI5TokenEEPS2_S4_S4_EET2_RT_T0_T1_S5_, symObjAddr: 0xB500, symBinAddr: 0x10000EB60, symSize: 0x80 }
  - { offsetInCU: 0x33D4B, offset: 0x33D4B, size: 0x8, addend: 0x0, symName: __ZNSt3__114__unwrap_rangeB8ue170006IP5TokenS2_EENS_4pairIT0_S4_EET_S6_, symObjAddr: 0xB580, symBinAddr: 0x10000EBE0, symSize: 0x60 }
  - { offsetInCU: 0x33D97, offset: 0x33D97, size: 0x8, addend: 0x0, symName: __ZNSt3__135__uninitialized_allocator_copy_implB8ue170006INS_9allocatorI5TokenEEPS2_S4_S4_EET2_RT_T0_T1_S5_, symObjAddr: 0xB5E0, symBinAddr: 0x10000EC40, symSize: 0xF4 }
  - { offsetInCU: 0x33E35, offset: 0x33E35, size: 0x8, addend: 0x0, symName: __ZNSt3__113__unwrap_iterB8ue170006IP5TokenNS_18__unwrap_iter_implIS2_Lb1EEELi0EEEDTclsrT0_8__unwrapclsr3stdE7declvalIT_EEEES6_, symObjAddr: 0xB6D4, symBinAddr: 0x10000ED34, symSize: 0x24 }
  - { offsetInCU: 0x33E79, offset: 0x33E79, size: 0x8, addend: 0x0, symName: __ZNSt3__113__rewrap_iterB8ue170006IP5TokenS2_NS_18__unwrap_iter_implIS2_Lb1EEEEET_S5_T0_, symObjAddr: 0xB6F8, symBinAddr: 0x10000ED58, symSize: 0x3C }
  - { offsetInCU: 0x33ECE, offset: 0x33ECE, size: 0x8, addend: 0x0, symName: __ZNSt3__19make_pairB8ue170006IP5TokenS2_EENS_4pairINS_18__unwrap_ref_decayIT_E4typeENS4_IT0_E4typeEEEOS5_OS8_, symObjAddr: 0xB734, symBinAddr: 0x10000ED94, symSize: 0x38 }
  - { offsetInCU: 0x33FF1, offset: 0x33FF1, size: 0x8, addend: 0x0, symName: __ZNSt3__122__make_exception_guardB8ue170006INS_29_AllocatorDestroyRangeReverseINS_9allocatorI5TokenEEPS3_EEEENS_28__exception_guard_exceptionsIT_EES8_, symObjAddr: 0xB7DC, symBinAddr: 0x10000EE3C, symSize: 0x4C }
  - { offsetInCU: 0x34027, offset: 0x34027, size: 0x8, addend: 0x0, symName: __ZNSt3__119__allocator_destroyB8ue170006INS_9allocatorI5TokenEENS_16reverse_iteratorIPS2_EES6_EEvRT_T0_T1_, symObjAddr: 0xBA6C, symBinAddr: 0x10000F0CC, symSize: 0x70 }
  - { offsetInCU: 0x34110, offset: 0x34110, size: 0x8, addend: 0x0, symName: __ZNSt3__1neB8ue170006IPK9PredicateEEbRKNS_11__wrap_iterIT_EES8_, symObjAddr: 0xC6B0, symBinAddr: 0x10000FD10, symSize: 0x34 }
  - { offsetInCU: 0x34153, offset: 0x34153, size: 0x8, addend: 0x0, symName: __ZNSt3__1neB8ue170006IP9ParameterEEbRKNS_11__wrap_iterIT_EES7_, symObjAddr: 0xC7CC, symBinAddr: 0x10000FE2C, symSize: 0x34 }
  - { offsetInCU: 0x34196, offset: 0x34196, size: 0x8, addend: 0x0, symName: __ZNSt3__1lsB8ue170006INS_11char_traitsIcEEEERNS_13basic_ostreamIcT_EES6_PKc, symObjAddr: 0xC8E8, symBinAddr: 0x10000FF48, symSize: 0x48 }
  - { offsetInCU: 0x341DC, offset: 0x341DC, size: 0x8, addend: 0x0, symName: __ZNSt3__14endlB8ue170006IcNS_11char_traitsIcEEEERNS_13basic_ostreamIT_T0_EES7_, symObjAddr: 0xC95C, symBinAddr: 0x10000FFBC, symSize: 0x58 }
  - { offsetInCU: 0x3421C, offset: 0x3421C, size: 0x8, addend: 0x0, symName: __ZNSt3__1plB8ue170006IcNS_11char_traitsIcEENS_9allocatorIcEEEENS_12basic_stringIT_T0_T1_EEPKS6_OS9_, symObjAddr: 0xC9B4, symBinAddr: 0x100010014, symSize: 0x44 }
  - { offsetInCU: 0x34275, offset: 0x34275, size: 0x8, addend: 0x0, symName: __ZNSt3__120__throw_out_of_rangeB8ue170006EPKc, symObjAddr: 0xCC54, symBinAddr: 0x1000102B4, symSize: 0x64 }
  - { offsetInCU: 0x3429E, offset: 0x3429E, size: 0x8, addend: 0x0, symName: __ZNSt3__112__to_addressB8ue170006I9PredicateEEPT_S3_, symObjAddr: 0xD0F4, symBinAddr: 0x100010754, symSize: 0x14 }
  - { offsetInCU: 0x342D3, offset: 0x342D3, size: 0x8, addend: 0x0, symName: __ZNSt3__119__allocate_at_leastB8ue170006INS_9allocatorI9PredicateEEEENS_19__allocation_resultINS_16allocator_traitsIT_E7pointerEEERS6_m, symObjAddr: 0xD738, symBinAddr: 0x100010D98, symSize: 0x40 }
  - { offsetInCU: 0x34316, offset: 0x34316, size: 0x8, addend: 0x0, symName: __ZNSt3__142__uninitialized_allocator_move_if_noexceptB8ue170006INS_9allocatorI9PredicateEENS_16reverse_iteratorIPS2_EES6_S6_EET2_RT_T0_T1_S7_, symObjAddr: 0xD9C4, symBinAddr: 0x100011024, symSize: 0x12C }
  - { offsetInCU: 0x343B6, offset: 0x343B6, size: 0x8, addend: 0x0, symName: __ZNSt3__14swapB8ue170006IP9PredicateEENS_9enable_ifIXaasr21is_move_constructibleIT_EE5valuesr18is_move_assignableIS4_EE5valueEvE4typeERS4_S7_, symObjAddr: 0xDB3C, symBinAddr: 0x10001119C, symSize: 0x3C }
  - { offsetInCU: 0x34407, offset: 0x34407, size: 0x8, addend: 0x0, symName: __ZNSt3__122__make_exception_guardB8ue170006INS_29_AllocatorDestroyRangeReverseINS_9allocatorI9PredicateEENS_16reverse_iteratorIPS3_EEEEEENS_28__exception_guard_exceptionsIT_EESA_, symObjAddr: 0xDC88, symBinAddr: 0x1000112E8, symSize: 0x4C }
  - { offsetInCU: 0x3443D, offset: 0x3443D, size: 0x8, addend: 0x0, symName: __ZNSt3__1neB8ue170006IP9PredicateS2_EEbRKNS_16reverse_iteratorIT_EERKNS3_IT0_EE, symObjAddr: 0xDD18, symBinAddr: 0x100011378, symSize: 0x48 }
  - { offsetInCU: 0x34489, offset: 0x34489, size: 0x8, addend: 0x0, symName: __ZNSt3__112__to_addressB8ue170006INS_16reverse_iteratorIP9PredicateEEvEEu7__decayIDTclsr19__to_address_helperIT_EE6__callclsr3stdE7declvalIRKS5_EEEEES7_, symObjAddr: 0xDD94, symBinAddr: 0x1000113F4, symSize: 0x24 }
  - { offsetInCU: 0x344E8, offset: 0x344E8, size: 0x8, addend: 0x0, symName: __ZNSt3__119__allocator_destroyB8ue170006INS_9allocatorI9PredicateEENS_16reverse_iteratorINS4_IPS2_EEEES7_EEvRT_T0_T1_, symObjAddr: 0xE35C, symBinAddr: 0x1000119BC, symSize: 0x70 }
  - { offsetInCU: 0x3454D, offset: 0x3454D, size: 0x8, addend: 0x0, symName: __ZNSt3__1neB8ue170006INS_16reverse_iteratorIP9PredicateEES4_EEbRKNS1_IT_EERKNS1_IT0_EE, symObjAddr: 0xE408, symBinAddr: 0x100011A68, symSize: 0x60 }
  - { offsetInCU: 0x34599, offset: 0x34599, size: 0x8, addend: 0x0, symName: __ZNSt3__112__to_addressB8ue170006INS_16reverse_iteratorINS1_IP9PredicateEEEEvEEu7__decayIDTclsr19__to_address_helperIT_EE6__callclsr3stdE7declvalIRKS6_EEEEES8_, symObjAddr: 0xE494, symBinAddr: 0x100011AF4, symSize: 0x24 }
  - { offsetInCU: 0x345F8, offset: 0x345F8, size: 0x8, addend: 0x0, symName: __ZNSt3__112__to_addressB8ue170006I9ParameterEEPT_S3_, symObjAddr: 0xF5C8, symBinAddr: 0x100012C28, symSize: 0x14 }
  - { offsetInCU: 0x3462D, offset: 0x3462D, size: 0x8, addend: 0x0, symName: __ZNSt3__119__allocate_at_leastB8ue170006INS_9allocatorI9ParameterEEEENS_19__allocation_resultINS_16allocator_traitsIT_E7pointerEEERS6_m, symObjAddr: 0xFC3C, symBinAddr: 0x10001329C, symSize: 0x40 }
  - { offsetInCU: 0x34670, offset: 0x34670, size: 0x8, addend: 0x0, symName: __ZNSt3__142__uninitialized_allocator_move_if_noexceptB8ue170006INS_9allocatorI9ParameterEENS_16reverse_iteratorIPS2_EES6_S6_EET2_RT_T0_T1_S7_, symObjAddr: 0xFEC8, symBinAddr: 0x100013528, symSize: 0x12C }
  - { offsetInCU: 0x34710, offset: 0x34710, size: 0x8, addend: 0x0, symName: __ZNSt3__14swapB8ue170006IP9ParameterEENS_9enable_ifIXaasr21is_move_constructibleIT_EE5valuesr18is_move_assignableIS4_EE5valueEvE4typeERS4_S7_, symObjAddr: 0x10040, symBinAddr: 0x1000136A0, symSize: 0x3C }
  - { offsetInCU: 0x34761, offset: 0x34761, size: 0x8, addend: 0x0, symName: __ZNSt3__122__make_exception_guardB8ue170006INS_29_AllocatorDestroyRangeReverseINS_9allocatorI9ParameterEENS_16reverse_iteratorIPS3_EEEEEENS_28__exception_guard_exceptionsIT_EESA_, symObjAddr: 0x1018C, symBinAddr: 0x1000137EC, symSize: 0x4C }
  - { offsetInCU: 0x34797, offset: 0x34797, size: 0x8, addend: 0x0, symName: __ZNSt3__1neB8ue170006IP9ParameterS2_EEbRKNS_16reverse_iteratorIT_EERKNS3_IT0_EE, symObjAddr: 0x1021C, symBinAddr: 0x10001387C, symSize: 0x48 }
  - { offsetInCU: 0x347E3, offset: 0x347E3, size: 0x8, addend: 0x0, symName: __ZNSt3__112__to_addressB8ue170006INS_16reverse_iteratorIP9ParameterEEvEEu7__decayIDTclsr19__to_address_helperIT_EE6__callclsr3stdE7declvalIRKS5_EEEEES7_, symObjAddr: 0x10264, symBinAddr: 0x1000138C4, symSize: 0x24 }
  - { offsetInCU: 0x34842, offset: 0x34842, size: 0x8, addend: 0x0, symName: __ZNSt3__119__allocator_destroyB8ue170006INS_9allocatorI9ParameterEENS_16reverse_iteratorINS4_IPS2_EEEES7_EEvRT_T0_T1_, symObjAddr: 0x10514, symBinAddr: 0x100013B74, symSize: 0x70 }
  - { offsetInCU: 0x348A7, offset: 0x348A7, size: 0x8, addend: 0x0, symName: __ZNSt3__1neB8ue170006INS_16reverse_iteratorIP9ParameterEES4_EEbRKNS1_IT_EERKNS1_IT0_EE, symObjAddr: 0x105C0, symBinAddr: 0x100013C20, symSize: 0x60 }
  - { offsetInCU: 0x348F3, offset: 0x348F3, size: 0x8, addend: 0x0, symName: __ZNSt3__112__to_addressB8ue170006INS_16reverse_iteratorINS1_IP9ParameterEEEEvEEu7__decayIDTclsr19__to_address_helperIT_EE6__callclsr3stdE7declvalIRKS6_EEEEES8_, symObjAddr: 0x1064C, symBinAddr: 0x100013CAC, symSize: 0x24 }
  - { offsetInCU: 0x34952, offset: 0x34952, size: 0x8, addend: 0x0, symName: __ZNSt3__1neB8ue170006IPK9ParameterEEbRKNS_11__wrap_iterIT_EES8_, symObjAddr: 0x10EA0, symBinAddr: 0x100014500, symSize: 0x34 }
  - { offsetInCU: 0x34995, offset: 0x34995, size: 0x8, addend: 0x0, symName: __ZNSt3__1eqB8ue170006IPK9ParameterEEbRKNS_11__wrap_iterIT_EES8_, symObjAddr: 0x10F90, symBinAddr: 0x1000145F0, symSize: 0x48 }
  - { offsetInCU: 0x349D8, offset: 0x349D8, size: 0x8, addend: 0x0, symName: __ZNSt3__1eqB8ue170006IPK9PredicateEEbRKNS_11__wrap_iterIT_EES8_, symObjAddr: 0x11AA8, symBinAddr: 0x100015108, symSize: 0x48 }
  - { offsetInCU: 0x34A1B, offset: 0x34A1B, size: 0x8, addend: 0x0, symName: __ZNSt3__122__make_exception_guardB8ue170006INS_6vectorI9ParameterNS_9allocatorIS2_EEE16__destroy_vectorEEENS_28__exception_guard_exceptionsIT_EES8_, symObjAddr: 0x11D08, symBinAddr: 0x100015368, symSize: 0x40 }
  - { offsetInCU: 0x34A50, offset: 0x34A50, size: 0x8, addend: 0x0, symName: __ZNSt3__130__uninitialized_allocator_copyB8ue170006INS_9allocatorI9ParameterEEPS2_S4_S4_EET2_RT_T0_T1_S5_, symObjAddr: 0x11F7C, symBinAddr: 0x1000155DC, symSize: 0x80 }
  - { offsetInCU: 0x34AED, offset: 0x34AED, size: 0x8, addend: 0x0, symName: __ZNSt3__114__unwrap_rangeB8ue170006IP9ParameterS2_EENS_4pairIT0_S4_EET_S6_, symObjAddr: 0x11FFC, symBinAddr: 0x10001565C, symSize: 0x60 }
  - { offsetInCU: 0x34B39, offset: 0x34B39, size: 0x8, addend: 0x0, symName: __ZNSt3__135__uninitialized_allocator_copy_implB8ue170006INS_9allocatorI9ParameterEEPS2_S4_S4_EET2_RT_T0_T1_S5_, symObjAddr: 0x1205C, symBinAddr: 0x1000156BC, symSize: 0xF4 }
  - { offsetInCU: 0x34BD7, offset: 0x34BD7, size: 0x8, addend: 0x0, symName: __ZNSt3__113__unwrap_iterB8ue170006IP9ParameterNS_18__unwrap_iter_implIS2_Lb1EEELi0EEEDTclsrT0_8__unwrapclsr3stdE7declvalIT_EEEES6_, symObjAddr: 0x12150, symBinAddr: 0x1000157B0, symSize: 0x24 }
  - { offsetInCU: 0x34C1B, offset: 0x34C1B, size: 0x8, addend: 0x0, symName: __ZNSt3__113__rewrap_iterB8ue170006IP9ParameterS2_NS_18__unwrap_iter_implIS2_Lb1EEEEET_S5_T0_, symObjAddr: 0x12174, symBinAddr: 0x1000157D4, symSize: 0x3C }
  - { offsetInCU: 0x34C70, offset: 0x34C70, size: 0x8, addend: 0x0, symName: __ZNSt3__19make_pairB8ue170006IP9ParameterS2_EENS_4pairINS_18__unwrap_ref_decayIT_E4typeENS4_IT0_E4typeEEEOS5_OS8_, symObjAddr: 0x121B0, symBinAddr: 0x100015810, symSize: 0x38 }
  - { offsetInCU: 0x34D93, offset: 0x34D93, size: 0x8, addend: 0x0, symName: __ZNSt3__122__make_exception_guardB8ue170006INS_29_AllocatorDestroyRangeReverseINS_9allocatorI9ParameterEEPS3_EEEENS_28__exception_guard_exceptionsIT_EES8_, symObjAddr: 0x12258, symBinAddr: 0x1000158B8, symSize: 0x4C }
  - { offsetInCU: 0x34DC9, offset: 0x34DC9, size: 0x8, addend: 0x0, symName: __ZNSt3__119__allocator_destroyB8ue170006INS_9allocatorI9ParameterEENS_16reverse_iteratorIPS2_EES6_EEvRT_T0_T1_, symObjAddr: 0x124E8, symBinAddr: 0x100015B48, symSize: 0x70 }
  - { offsetInCU: 0x34E7F, offset: 0x34E7F, size: 0x8, addend: 0x0, symName: __ZNSt3__1eqB8ue170006IP9ParameterEEbRKNS_11__wrap_iterIT_EES7_, symObjAddr: 0x127EC, symBinAddr: 0x100015E4C, symSize: 0x48 }
  - { offsetInCU: 0x34EC2, offset: 0x34EC2, size: 0x8, addend: 0x0, symName: __ZNSt3__1ltB8ue170006IcNS_11char_traitsIcEENS_9allocatorIcEEEEbRKNS_12basic_stringIT_T0_T1_EESB_, symObjAddr: 0x12FCC, symBinAddr: 0x10001662C, symSize: 0x38 }
  - { offsetInCU: 0x34F1A, offset: 0x34F1A, size: 0x8, addend: 0x0, symName: __ZNSt3__112__to_addressB8ue170006IKcEEPT_S3_, symObjAddr: 0x13258, symBinAddr: 0x1000168B8, symSize: 0x14 }
  - { offsetInCU: 0x34FA0, offset: 0x34FA0, size: 0x8, addend: 0x0, symName: __ZNSt3__127__tree_balance_after_insertB8ue170006IPNS_16__tree_node_baseIPvEEEEvT_S5_, symObjAddr: 0x137C0, symBinAddr: 0x100016E20, symSize: 0x32C }
  - { offsetInCU: 0x3501C, offset: 0x3501C, size: 0x8, addend: 0x0, symName: __ZNSt3__120__tree_is_left_childB8ue170006IPNS_16__tree_node_baseIPvEEEEbT_, symObjAddr: 0x13B2C, symBinAddr: 0x10001718C, symSize: 0x2C }
  - { offsetInCU: 0x35051, offset: 0x35051, size: 0x8, addend: 0x0, symName: __ZNSt3__118__tree_left_rotateB8ue170006IPNS_16__tree_node_baseIPvEEEEvT_, symObjAddr: 0x13B58, symBinAddr: 0x1000171B8, symSize: 0xD8 }
  - { offsetInCU: 0x35093, offset: 0x35093, size: 0x8, addend: 0x0, symName: __ZNSt3__119__tree_right_rotateB8ue170006IPNS_16__tree_node_baseIPvEEEEvT_, symObjAddr: 0x13C30, symBinAddr: 0x100017290, symSize: 0xCC }
  - { offsetInCU: 0x35108, offset: 0x35108, size: 0x8, addend: 0x0, symName: __ZNSt3__122__make_exception_guardB8ue170006INS_6vectorI9PredicateNS_9allocatorIS2_EEE16__destroy_vectorEEENS_28__exception_guard_exceptionsIT_EES8_, symObjAddr: 0x14DCC, symBinAddr: 0x10001842C, symSize: 0x40 }
  - { offsetInCU: 0x3513D, offset: 0x3513D, size: 0x8, addend: 0x0, symName: __ZNSt3__130__uninitialized_allocator_copyB8ue170006INS_9allocatorI9PredicateEEPS2_S4_S4_EET2_RT_T0_T1_S5_, symObjAddr: 0x14FEC, symBinAddr: 0x10001864C, symSize: 0x80 }
  - { offsetInCU: 0x351DA, offset: 0x351DA, size: 0x8, addend: 0x0, symName: __ZNSt3__114__unwrap_rangeB8ue170006IP9PredicateS2_EENS_4pairIT0_S4_EET_S6_, symObjAddr: 0x1506C, symBinAddr: 0x1000186CC, symSize: 0x60 }
  - { offsetInCU: 0x35226, offset: 0x35226, size: 0x8, addend: 0x0, symName: __ZNSt3__135__uninitialized_allocator_copy_implB8ue170006INS_9allocatorI9PredicateEEPS2_S4_S4_EET2_RT_T0_T1_S5_, symObjAddr: 0x150CC, symBinAddr: 0x10001872C, symSize: 0xF4 }
  - { offsetInCU: 0x352C4, offset: 0x352C4, size: 0x8, addend: 0x0, symName: __ZNSt3__113__unwrap_iterB8ue170006IP9PredicateNS_18__unwrap_iter_implIS2_Lb1EEELi0EEEDTclsrT0_8__unwrapclsr3stdE7declvalIT_EEEES6_, symObjAddr: 0x151C0, symBinAddr: 0x100018820, symSize: 0x24 }
  - { offsetInCU: 0x35308, offset: 0x35308, size: 0x8, addend: 0x0, symName: __ZNSt3__113__rewrap_iterB8ue170006IP9PredicateS2_NS_18__unwrap_iter_implIS2_Lb1EEEEET_S5_T0_, symObjAddr: 0x151E4, symBinAddr: 0x100018844, symSize: 0x3C }
  - { offsetInCU: 0x3535D, offset: 0x3535D, size: 0x8, addend: 0x0, symName: __ZNSt3__19make_pairB8ue170006IP9PredicateS2_EENS_4pairINS_18__unwrap_ref_decayIT_E4typeENS4_IT0_E4typeEEEOS5_OS8_, symObjAddr: 0x15220, symBinAddr: 0x100018880, symSize: 0x38 }
  - { offsetInCU: 0x35480, offset: 0x35480, size: 0x8, addend: 0x0, symName: __ZNSt3__122__make_exception_guardB8ue170006INS_29_AllocatorDestroyRangeReverseINS_9allocatorI9PredicateEEPS3_EEEENS_28__exception_guard_exceptionsIT_EES8_, symObjAddr: 0x152C8, symBinAddr: 0x100018928, symSize: 0x4C }
  - { offsetInCU: 0x354B6, offset: 0x354B6, size: 0x8, addend: 0x0, symName: __ZNSt3__119__allocator_destroyB8ue170006INS_9allocatorI9PredicateEENS_16reverse_iteratorIPS2_EES6_EEvRT_T0_T1_, symObjAddr: 0x15558, symBinAddr: 0x100018BB8, symSize: 0x70 }
  - { offsetInCU: 0x3556C, offset: 0x3556C, size: 0x8, addend: 0x0, symName: __ZNSt3__122__make_exception_guardB8ue170006INS_6vectorI4RuleNS_9allocatorIS2_EEE16__destroy_vectorEEENS_28__exception_guard_exceptionsIT_EES8_, symObjAddr: 0x15924, symBinAddr: 0x100018F84, symSize: 0x40 }
  - { offsetInCU: 0x355A1, offset: 0x355A1, size: 0x8, addend: 0x0, symName: __ZNSt3__119__allocate_at_leastB8ue170006INS_9allocatorI4RuleEEEENS_19__allocation_resultINS_16allocator_traitsIT_E7pointerEEERS6_m, symObjAddr: 0x15C14, symBinAddr: 0x100019274, symSize: 0x40 }
  - { offsetInCU: 0x355E4, offset: 0x355E4, size: 0x8, addend: 0x0, symName: __ZNSt3__112__to_addressB8ue170006I4RuleEEPT_S3_, symObjAddr: 0x15F04, symBinAddr: 0x100019564, symSize: 0x14 }
  - { offsetInCU: 0x35619, offset: 0x35619, size: 0x8, addend: 0x0, symName: __ZNSt3__130__uninitialized_allocator_copyB8ue170006INS_9allocatorI4RuleEEPS2_S4_S4_EET2_RT_T0_T1_S5_, symObjAddr: 0x15FB4, symBinAddr: 0x100019614, symSize: 0x80 }
  - { offsetInCU: 0x356B6, offset: 0x356B6, size: 0x8, addend: 0x0, symName: __ZNSt3__114__unwrap_rangeB8ue170006IP4RuleS2_EENS_4pairIT0_S4_EET_S6_, symObjAddr: 0x160AC, symBinAddr: 0x10001970C, symSize: 0x60 }
  - { offsetInCU: 0x35702, offset: 0x35702, size: 0x8, addend: 0x0, symName: __ZNSt3__135__uninitialized_allocator_copy_implB8ue170006INS_9allocatorI4RuleEEPS2_S4_S4_EET2_RT_T0_T1_S5_, symObjAddr: 0x1610C, symBinAddr: 0x10001976C, symSize: 0xF4 }
  - { offsetInCU: 0x357A0, offset: 0x357A0, size: 0x8, addend: 0x0, symName: __ZNSt3__113__unwrap_iterB8ue170006IP4RuleNS_18__unwrap_iter_implIS2_Lb1EEELi0EEEDTclsrT0_8__unwrapclsr3stdE7declvalIT_EEEES6_, symObjAddr: 0x16200, symBinAddr: 0x100019860, symSize: 0x24 }
  - { offsetInCU: 0x357E4, offset: 0x357E4, size: 0x8, addend: 0x0, symName: __ZNSt3__113__rewrap_iterB8ue170006IP4RuleS2_NS_18__unwrap_iter_implIS2_Lb1EEEEET_S5_T0_, symObjAddr: 0x16224, symBinAddr: 0x100019884, symSize: 0x3C }
  - { offsetInCU: 0x35839, offset: 0x35839, size: 0x8, addend: 0x0, symName: __ZNSt3__19make_pairB8ue170006IP4RuleS2_EENS_4pairINS_18__unwrap_ref_decayIT_E4typeENS4_IT0_E4typeEEEOS5_OS8_, symObjAddr: 0x16260, symBinAddr: 0x1000198C0, symSize: 0x38 }
  - { offsetInCU: 0x3595C, offset: 0x3595C, size: 0x8, addend: 0x0, symName: __ZNSt3__122__make_exception_guardB8ue170006INS_29_AllocatorDestroyRangeReverseINS_9allocatorI4RuleEEPS3_EEEENS_28__exception_guard_exceptionsIT_EES8_, symObjAddr: 0x16308, symBinAddr: 0x100019968, symSize: 0x4C }
  - { offsetInCU: 0x35992, offset: 0x35992, size: 0x8, addend: 0x0, symName: __ZNSt3__119__allocator_destroyB8ue170006INS_9allocatorI4RuleEENS_16reverse_iteratorIPS2_EES6_EEvRT_T0_T1_, symObjAddr: 0x1663C, symBinAddr: 0x100019C9C, symSize: 0x70 }
  - { offsetInCU: 0x359F5, offset: 0x359F5, size: 0x8, addend: 0x0, symName: __ZNSt3__1neB8ue170006IP4RuleS2_EEbRKNS_16reverse_iteratorIT_EERKNS3_IT0_EE, symObjAddr: 0x166E0, symBinAddr: 0x100019D40, symSize: 0x48 }
  - { offsetInCU: 0x35A41, offset: 0x35A41, size: 0x8, addend: 0x0, symName: __ZNSt3__112__to_addressB8ue170006INS_16reverse_iteratorIP4RuleEEvEEu7__decayIDTclsr19__to_address_helperIT_EE6__callclsr3stdE7declvalIRKS5_EEEEES7_, symObjAddr: 0x16754, symBinAddr: 0x100019DB4, symSize: 0x24 }
  - { offsetInCU: 0x35AF3, offset: 0x35AF3, size: 0x8, addend: 0x0, symName: __ZNSt3__1neB8ue170006ERKNS_21__tree_const_iteratorINS_12basic_stringIcNS_11char_traitsIcEENS_9allocatorIcEEEEPNS_11__tree_nodeIS6_PvEElEESD_, symObjAddr: 0x17018, symBinAddr: 0x10001A678, symSize: 0x34 }
  - { offsetInCU: 0x35B30, offset: 0x35B30, size: 0x8, addend: 0x0, symName: __ZNSt3__1eqB8ue170006ERKNS_21__tree_const_iteratorINS_12basic_stringIcNS_11char_traitsIcEENS_9allocatorIcEEEEPNS_11__tree_nodeIS6_PvEElEESD_, symObjAddr: 0x17110, symBinAddr: 0x10001A770, symSize: 0x30 }
  - { offsetInCU: 0x35B6D, offset: 0x35B6D, size: 0x8, addend: 0x0, symName: __ZNSt3__14nextB8ue170006INS_21__tree_const_iteratorINS_12basic_stringIcNS_11char_traitsIcEENS_9allocatorIcEEEEPNS_11__tree_nodeIS7_PvEElEEEENS_9enable_ifIXsr29__has_input_iterator_categoryIT_EE5valueESE_E4typeESE_NS_15iterator_traitsISE_E15difference_typeE, symObjAddr: 0x175E8, symBinAddr: 0x10001AC48, symSize: 0x3C }
  - { offsetInCU: 0x35BB0, offset: 0x35BB0, size: 0x8, addend: 0x0, symName: __ZNSt3__116__tree_prev_iterB8ue170006IPNS_16__tree_node_baseIPvEEPNS_15__tree_end_nodeIS4_EEEET_T0_, symObjAddr: 0x17690, symBinAddr: 0x10001ACF0, symSize: 0x88 }
  - { offsetInCU: 0x35BFC, offset: 0x35BFC, size: 0x8, addend: 0x0, symName: __ZNSt3__110__tree_maxB8ue170006IPNS_16__tree_node_baseIPvEEEET_S5_, symObjAddr: 0x17718, symBinAddr: 0x10001AD78, symSize: 0x40 }
  - { offsetInCU: 0x35C31, offset: 0x35C31, size: 0x8, addend: 0x0, symName: __ZNSt3__121__convert_to_integralB8ue170006El, symObjAddr: 0x17790, symBinAddr: 0x10001ADF0, symSize: 0x14 }
  - { offsetInCU: 0x35C5D, offset: 0x35C5D, size: 0x8, addend: 0x0, symName: __ZNSt3__19__advanceB8ue170006INS_21__tree_const_iteratorINS_12basic_stringIcNS_11char_traitsIcEENS_9allocatorIcEEEEPNS_11__tree_nodeIS7_PvEElEEEEvRT_NS_15iterator_traitsISD_E15difference_typeENS_26bidirectional_iterator_tagE, symObjAddr: 0x177A4, symBinAddr: 0x10001AE04, symSize: 0xA4 }
  - { offsetInCU: 0x35CA6, offset: 0x35CA6, size: 0x8, addend: 0x0, symName: __ZNSt3__116__tree_next_iterB8ue170006IPNS_15__tree_end_nodeIPNS_16__tree_node_baseIPvEEEES5_EET_T0_, symObjAddr: 0x17848, symBinAddr: 0x10001AEA8, symSize: 0x80 }
  - { offsetInCU: 0x35CE4, offset: 0x35CE4, size: 0x8, addend: 0x0, symName: __ZNSt3__110__tree_minB8ue170006IPNS_16__tree_node_baseIPvEEEET_S5_, symObjAddr: 0x178C8, symBinAddr: 0x10001AF28, symSize: 0x40 }
  - { offsetInCU: 0x35D6A, offset: 0x35D6A, size: 0x8, addend: 0x0, symName: __ZNSt3__1neB8ue170006ERKNS_25__hash_map_const_iteratorINS_21__hash_const_iteratorIPNS_11__hash_nodeINS_17__hash_value_typeINS_12basic_stringIcNS_11char_traitsIcEENS_9allocatorIcEEEE8RelationEEPvEEEEEESI_, symObjAddr: 0x18E44, symBinAddr: 0x10001C4A4, symSize: 0x30 }
  - { offsetInCU: 0x35DA7, offset: 0x35DA7, size: 0x8, addend: 0x0, symName: __ZNSt3__1neB8ue170006ERKNS_21__hash_const_iteratorIPNS_11__hash_nodeINS_17__hash_value_typeINS_12basic_stringIcNS_11char_traitsIcEENS_9allocatorIcEEEE8RelationEEPvEEEESG_, symObjAddr: 0x18F18, symBinAddr: 0x10001C578, symSize: 0x34 }
  - { offsetInCU: 0x35DE4, offset: 0x35DE4, size: 0x8, addend: 0x0, symName: __ZNSt3__1eqB8ue170006ERKNS_21__hash_const_iteratorIPNS_11__hash_nodeINS_17__hash_value_typeINS_12basic_stringIcNS_11char_traitsIcEENS_9allocatorIcEEEE8RelationEEPvEEEESG_, symObjAddr: 0x18F4C, symBinAddr: 0x10001C5AC, symSize: 0x30 }
  - { offsetInCU: 0x35E21, offset: 0x35E21, size: 0x8, addend: 0x0, symName: __ZNSt3__116__do_string_hashB8ue170006IPKcEEmT_S3_, symObjAddr: 0x19824, symBinAddr: 0x10001CE84, symSize: 0x3C }
  - { offsetInCU: 0x35E67, offset: 0x35E67, size: 0x8, addend: 0x0, symName: __ZNSt3__110__loadwordB8ue170006ImEET_PKv, symObjAddr: 0x1A218, symBinAddr: 0x10001D878, symSize: 0x20 }
  - { offsetInCU: 0x35EAA, offset: 0x35EAA, size: 0x8, addend: 0x0, symName: __ZNSt3__14swapB8ue170006ImEENS_9enable_ifIXaasr21is_move_constructibleIT_EE5valuesr18is_move_assignableIS2_EE5valueEvE4typeERS2_S5_, symObjAddr: 0x1A3D4, symBinAddr: 0x10001DA34, symSize: 0x3C }
  - { offsetInCU: 0x35EFB, offset: 0x35EFB, size: 0x8, addend: 0x0, symName: __ZNSt3__110__loadwordB8ue170006IjEET_PKv, symObjAddr: 0x1A464, symBinAddr: 0x10001DAC4, symSize: 0x20 }
  - { offsetInCU: 0x35F3E, offset: 0x35F3E, size: 0x8, addend: 0x0, symName: __ZNSt3__1eqB8ue170006INS_9allocatorIcEEEEbRKNS_12basic_stringIcNS_11char_traitsIcEET_EES9_, symObjAddr: 0x1A65C, symBinAddr: 0x10001DCBC, symSize: 0x148 }
  - { offsetInCU: 0x35FB1, offset: 0x35FB1, size: 0x8, addend: 0x0, symName: __ZNSt3__17launderB8ue170006IKNS_4pairIKNS_12basic_stringIcNS_11char_traitsIcEENS_9allocatorIcEEEE8RelationEEEEPT_SD_, symObjAddr: 0x1A7A4, symBinAddr: 0x10001DE04, symSize: 0x24 }
  - { offsetInCU: 0x35FE8, offset: 0x35FE8, size: 0x8, addend: 0x0, symName: __ZNSt3__19__launderB8ue170006IKNS_4pairIKNS_12basic_stringIcNS_11char_traitsIcEENS_9allocatorIcEEEE8RelationEEEEPT_SD_, symObjAddr: 0x1A7C8, symBinAddr: 0x10001DE28, symSize: 0x14 }
  - { offsetInCU: 0x3603D, offset: 0x3603D, size: 0x8, addend: 0x0, symName: __ZNSt3__1neB8ue170006ERKNS_21__tree_const_iteratorI5TuplePNS_11__tree_nodeIS1_PvEElEES8_, symObjAddr: 0x1B280, symBinAddr: 0x10001E8E0, symSize: 0x34 }
  - { offsetInCU: 0x3607A, offset: 0x3607A, size: 0x8, addend: 0x0, symName: __ZNSt3__1eqB8ue170006ERKNS_21__tree_const_iteratorI5TuplePNS_11__tree_nodeIS1_PvEElEES8_, symObjAddr: 0x1B378, symBinAddr: 0x10001E9D8, symSize: 0x30 }
  - { offsetInCU: 0x360B7, offset: 0x360B7, size: 0x8, addend: 0x0, symName: __ZNSt3__14nextB8ue170006INS_21__tree_const_iteratorI5TuplePNS_11__tree_nodeIS2_PvEElEEEENS_9enable_ifIXsr29__has_input_iterator_categoryIT_EE5valueES9_E4typeES9_NS_15iterator_traitsIS9_E15difference_typeE, symObjAddr: 0x1BD5C, symBinAddr: 0x10001F3BC, symSize: 0x3C }
  - { offsetInCU: 0x360FA, offset: 0x360FA, size: 0x8, addend: 0x0, symName: __ZNSt3__1ltB8ue170006INS_12basic_stringIcNS_11char_traitsIcEENS_9allocatorIcEEEENS4_IS6_EEEEbRKNS_6vectorIT_T0_EESD_, symObjAddr: 0x1BE8C, symBinAddr: 0x10001F4EC, symSize: 0x68 }
  - { offsetInCU: 0x36149, offset: 0x36149, size: 0x8, addend: 0x0, symName: __ZNSt3__123lexicographical_compareB8ue170006INS_11__wrap_iterIPKNS_12basic_stringIcNS_11char_traitsIcEENS_9allocatorIcEEEEEESA_EEbT_SB_T0_SC_, symObjAddr: 0x1BEF4, symBinAddr: 0x10001F554, symSize: 0x60 }
  - { offsetInCU: 0x361B1, offset: 0x361B1, size: 0x8, addend: 0x0, symName: __ZNSt3__123lexicographical_compareB8ue170006INS_11__wrap_iterIPKNS_12basic_stringIcNS_11char_traitsIcEENS_9allocatorIcEEEEEESA_NS_6__lessIvvEEEEbT_SD_T0_SE_T1_, symObjAddr: 0x1BFB4, symBinAddr: 0x10001F614, symSize: 0x64 }
  - { offsetInCU: 0x36230, offset: 0x36230, size: 0x8, addend: 0x0, symName: __ZNSt3__125__lexicographical_compareB8ue170006IRNS_6__lessIvvEENS_11__wrap_iterIPKNS_12basic_stringIcNS_11char_traitsIcEENS_9allocatorIcEEEEEESD_EEbT0_SE_T1_SF_T_, symObjAddr: 0x1C018, symBinAddr: 0x10001F678, symSize: 0x11C }
  - { offsetInCU: 0x362AF, offset: 0x362AF, size: 0x8, addend: 0x0, symName: __ZNSt3__1neB8ue170006IPKNS_12basic_stringIcNS_11char_traitsIcEENS_9allocatorIcEEEEEEbRKNS_11__wrap_iterIT_EESD_, symObjAddr: 0x1C134, symBinAddr: 0x10001F794, symSize: 0x34 }
  - { offsetInCU: 0x362F2, offset: 0x362F2, size: 0x8, addend: 0x0, symName: __ZNSt3__1eqB8ue170006IPKNS_12basic_stringIcNS_11char_traitsIcEENS_9allocatorIcEEEEEEbRKNS_11__wrap_iterIT_EESD_, symObjAddr: 0x1C168, symBinAddr: 0x10001F7C8, symSize: 0x48 }
  - { offsetInCU: 0x36335, offset: 0x36335, size: 0x8, addend: 0x0, symName: __ZNSt3__19__advanceB8ue170006INS_21__tree_const_iteratorI5TuplePNS_11__tree_nodeIS2_PvEElEEEEvRT_NS_15iterator_traitsIS8_E15difference_typeENS_26bidirectional_iterator_tagE, symObjAddr: 0x1C38C, symBinAddr: 0x10001F9EC, symSize: 0xA4 }
  - { offsetInCU: 0x3639C, offset: 0x3639C, size: 0x8, addend: 0x0, symName: __ZNSt3__122__make_exception_guardB8ue170006INS_6vectorINS_12basic_stringIcNS_11char_traitsIcEENS_9allocatorIcEEEENS5_IS7_EEE16__destroy_vectorEEENS_28__exception_guard_exceptionsIT_EESC_, symObjAddr: 0x1D048, symBinAddr: 0x1000206A8, symSize: 0x40 }
  - { offsetInCU: 0x363D1, offset: 0x363D1, size: 0x8, addend: 0x0, symName: __ZNSt3__119__allocate_at_leastB8ue170006INS_9allocatorINS_12basic_stringIcNS_11char_traitsIcEENS1_IcEEEEEEEENS_19__allocation_resultINS_16allocator_traitsIT_E7pointerEEERSA_m, symObjAddr: 0x1D338, symBinAddr: 0x100020998, symSize: 0x40 }
  - { offsetInCU: 0x36414, offset: 0x36414, size: 0x8, addend: 0x0, symName: __ZNSt3__112__to_addressB8ue170006INS_12basic_stringIcNS_11char_traitsIcEENS_9allocatorIcEEEEEEPT_S8_, symObjAddr: 0x1D620, symBinAddr: 0x100020C80, symSize: 0x14 }
  - { offsetInCU: 0x36449, offset: 0x36449, size: 0x8, addend: 0x0, symName: __ZNSt3__130__uninitialized_allocator_copyB8ue170006INS_9allocatorINS_12basic_stringIcNS_11char_traitsIcEENS1_IcEEEEEEPS6_S8_S8_EET2_RT_T0_T1_S9_, symObjAddr: 0x1D6D0, symBinAddr: 0x100020D30, symSize: 0x80 }
  - { offsetInCU: 0x364E6, offset: 0x364E6, size: 0x8, addend: 0x0, symName: __ZNSt3__114__unwrap_rangeB8ue170006IPNS_12basic_stringIcNS_11char_traitsIcEENS_9allocatorIcEEEES7_EENS_4pairIT0_S9_EET_SB_, symObjAddr: 0x1D7C8, symBinAddr: 0x100020E28, symSize: 0x60 }
  - { offsetInCU: 0x36532, offset: 0x36532, size: 0x8, addend: 0x0, symName: __ZNSt3__135__uninitialized_allocator_copy_implB8ue170006INS_9allocatorINS_12basic_stringIcNS_11char_traitsIcEENS1_IcEEEEEEPS6_S8_S8_EET2_RT_T0_T1_S9_, symObjAddr: 0x1D828, symBinAddr: 0x100020E88, symSize: 0xF4 }
  - { offsetInCU: 0x365D0, offset: 0x365D0, size: 0x8, addend: 0x0, symName: __ZNSt3__113__unwrap_iterB8ue170006IPNS_12basic_stringIcNS_11char_traitsIcEENS_9allocatorIcEEEENS_18__unwrap_iter_implIS7_Lb1EEELi0EEEDTclsrT0_8__unwrapclsr3stdE7declvalIT_EEEESB_, symObjAddr: 0x1D91C, symBinAddr: 0x100020F7C, symSize: 0x24 }
  - { offsetInCU: 0x36614, offset: 0x36614, size: 0x8, addend: 0x0, symName: __ZNSt3__113__rewrap_iterB8ue170006IPNS_12basic_stringIcNS_11char_traitsIcEENS_9allocatorIcEEEES7_NS_18__unwrap_iter_implIS7_Lb1EEEEET_SA_T0_, symObjAddr: 0x1D940, symBinAddr: 0x100020FA0, symSize: 0x3C }
  - { offsetInCU: 0x36669, offset: 0x36669, size: 0x8, addend: 0x0, symName: __ZNSt3__19make_pairB8ue170006IPNS_12basic_stringIcNS_11char_traitsIcEENS_9allocatorIcEEEES7_EENS_4pairINS_18__unwrap_ref_decayIT_E4typeENS9_IT0_E4typeEEEOSA_OSD_, symObjAddr: 0x1D97C, symBinAddr: 0x100020FDC, symSize: 0x38 }
  - { offsetInCU: 0x3678C, offset: 0x3678C, size: 0x8, addend: 0x0, symName: __ZNSt3__122__make_exception_guardB8ue170006INS_29_AllocatorDestroyRangeReverseINS_9allocatorINS_12basic_stringIcNS_11char_traitsIcEENS2_IcEEEEEEPS7_EEEENS_28__exception_guard_exceptionsIT_EESC_, symObjAddr: 0x1DA24, symBinAddr: 0x100021084, symSize: 0x4C }
  - { offsetInCU: 0x367C2, offset: 0x367C2, size: 0x8, addend: 0x0, symName: __ZNSt3__119__allocator_destroyB8ue170006INS_9allocatorINS_12basic_stringIcNS_11char_traitsIcEENS1_IcEEEEEENS_16reverse_iteratorIPS6_EESA_EEvRT_T0_T1_, symObjAddr: 0x1DCB4, symBinAddr: 0x100021314, symSize: 0x70 }
  - { offsetInCU: 0x36825, offset: 0x36825, size: 0x8, addend: 0x0, symName: __ZNSt3__1neB8ue170006IPNS_12basic_stringIcNS_11char_traitsIcEENS_9allocatorIcEEEES7_EEbRKNS_16reverse_iteratorIT_EERKNS8_IT0_EE, symObjAddr: 0x1DD58, symBinAddr: 0x1000213B8, symSize: 0x48 }
  - { offsetInCU: 0x36871, offset: 0x36871, size: 0x8, addend: 0x0, symName: __ZNSt3__112__to_addressB8ue170006INS_16reverse_iteratorIPNS_12basic_stringIcNS_11char_traitsIcEENS_9allocatorIcEEEEEEvEEu7__decayIDTclsr19__to_address_helperIT_EE6__callclsr3stdE7declvalIRKSA_EEEEESC_, symObjAddr: 0x1DDCC, symBinAddr: 0x10002142C, symSize: 0x24 }
  - { offsetInCU: 0x36923, offset: 0x36923, size: 0x8, addend: 0x0, symName: __ZNSt3__17launderB8ue170006INS_4pairIKNS_12basic_stringIcNS_11char_traitsIcEENS_9allocatorIcEEEE8RelationEEEEPT_SC_, symObjAddr: 0x1E2C8, symBinAddr: 0x100021928, symSize: 0x24 }
  - { offsetInCU: 0x3695A, offset: 0x3695A, size: 0x8, addend: 0x0, symName: __ZNSt3__19__launderB8ue170006INS_4pairIKNS_12basic_stringIcNS_11char_traitsIcEENS_9allocatorIcEEEE8RelationEEEEPT_SC_, symObjAddr: 0x1E2EC, symBinAddr: 0x10002194C, symSize: 0x14 }
  - { offsetInCU: 0x369C4, offset: 0x369C4, size: 0x8, addend: 0x0, symName: __ZNSt3__142__uninitialized_allocator_move_if_noexceptB8ue170006INS_9allocatorINS_12basic_stringIcNS_11char_traitsIcEENS1_IcEEEEEENS_16reverse_iteratorIPS6_EESA_SA_EET2_RT_T0_T1_SB_, symObjAddr: 0x20DCC, symBinAddr: 0x10002442C, symSize: 0x11C }
  - { offsetInCU: 0x36A64, offset: 0x36A64, size: 0x8, addend: 0x0, symName: __ZNSt3__14swapB8ue170006IPNS_12basic_stringIcNS_11char_traitsIcEENS_9allocatorIcEEEEEENS_9enable_ifIXaasr21is_move_constructibleIT_EE5valuesr18is_move_assignableIS9_EE5valueEvE4typeERS9_SC_, symObjAddr: 0x20EE8, symBinAddr: 0x100024548, symSize: 0x3C }
  - { offsetInCU: 0x36AB5, offset: 0x36AB5, size: 0x8, addend: 0x0, symName: __ZNSt3__122__make_exception_guardB8ue170006INS_29_AllocatorDestroyRangeReverseINS_9allocatorINS_12basic_stringIcNS_11char_traitsIcEENS2_IcEEEEEENS_16reverse_iteratorIPS7_EEEEEENS_28__exception_guard_exceptionsIT_EESE_, symObjAddr: 0x20F24, symBinAddr: 0x100024584, symSize: 0x4C }
  - { offsetInCU: 0x36AEB, offset: 0x36AEB, size: 0x8, addend: 0x0, symName: __ZNSt3__119__allocator_destroyB8ue170006INS_9allocatorINS_12basic_stringIcNS_11char_traitsIcEENS1_IcEEEEEENS_16reverse_iteratorINS8_IPS6_EEEESB_EEvRT_T0_T1_, symObjAddr: 0x21200, symBinAddr: 0x100024860, symSize: 0x70 }
  - { offsetInCU: 0x36B50, offset: 0x36B50, size: 0x8, addend: 0x0, symName: __ZNSt3__1neB8ue170006INS_16reverse_iteratorIPNS_12basic_stringIcNS_11char_traitsIcEENS_9allocatorIcEEEEEES9_EEbRKNS1_IT_EERKNS1_IT0_EE, symObjAddr: 0x212AC, symBinAddr: 0x10002490C, symSize: 0x60 }
  - { offsetInCU: 0x36B9C, offset: 0x36B9C, size: 0x8, addend: 0x0, symName: __ZNSt3__112__to_addressB8ue170006INS_16reverse_iteratorINS1_IPNS_12basic_stringIcNS_11char_traitsIcEENS_9allocatorIcEEEEEEEEvEEu7__decayIDTclsr19__to_address_helperIT_EE6__callclsr3stdE7declvalIRKSB_EEEEESD_, symObjAddr: 0x2130C, symBinAddr: 0x10002496C, symSize: 0x24 }
  - { offsetInCU: 0x36C61, offset: 0x36C61, size: 0x8, addend: 0x0, symName: __ZNSt3__18distanceB8ue170006IPNS_12basic_stringIcNS_11char_traitsIcEENS_9allocatorIcEEEEEENS_15iterator_traitsIT_E15difference_typeES9_S9_, symObjAddr: 0x22A98, symBinAddr: 0x1000260F8, symSize: 0x2C }
  - { offsetInCU: 0x36CA4, offset: 0x36CA4, size: 0x8, addend: 0x0, symName: __ZNSt3__14nextB8ue170006IPNS_12basic_stringIcNS_11char_traitsIcEENS_9allocatorIcEEEEEENS_9enable_ifIXsr29__has_input_iterator_categoryIT_EE5valueES9_E4typeES9_NS_15iterator_traitsIS9_E15difference_typeE, symObjAddr: 0x22AC4, symBinAddr: 0x100026124, symSize: 0x34 }
  - { offsetInCU: 0x36CE7, offset: 0x36CE7, size: 0x8, addend: 0x0, symName: __ZNSt3__14copyB8ue170006IPNS_12basic_stringIcNS_11char_traitsIcEENS_9allocatorIcEEEES7_EET0_T_S9_S8_, symObjAddr: 0x22AF8, symBinAddr: 0x100026158, symSize: 0x40 }
  - { offsetInCU: 0x36D41, offset: 0x36D41, size: 0x8, addend: 0x0, symName: __ZNSt3__16__copyB8ue170006INS_17_ClassicAlgPolicyEPNS_12basic_stringIcNS_11char_traitsIcEENS_9allocatorIcEEEES8_S8_EENS_4pairIT0_T2_EESA_T1_SB_, symObjAddr: 0x22B38, symBinAddr: 0x100026198, symSize: 0x44 }
  - { offsetInCU: 0x36DAE, offset: 0x36DAE, size: 0x8, addend: 0x0, symName: __ZNSt3__19__advanceB8ue170006IPNS_12basic_stringIcNS_11char_traitsIcEENS_9allocatorIcEEEEEEvRT_NS_15iterator_traitsIS8_E15difference_typeENS_26random_access_iterator_tagE, symObjAddr: 0x22C94, symBinAddr: 0x1000262F4, symSize: 0x30 }
  - { offsetInCU: 0x36DF6, offset: 0x36DF6, size: 0x8, addend: 0x0, symName: __ZNSt3__123__dispatch_copy_or_moveB8ue170006INS_17_ClassicAlgPolicyENS_11__copy_loopIS1_EENS_14__copy_trivialEPNS_12basic_stringIcNS_11char_traitsIcEENS_9allocatorIcEEEESB_SB_EENS_4pairIT2_T4_EESD_T3_SE_, symObjAddr: 0x22CC4, symBinAddr: 0x100026324, symSize: 0x44 }
  - { offsetInCU: 0x36E74, offset: 0x36E74, size: 0x8, addend: 0x0, symName: __ZNSt3__121__unwrap_and_dispatchB8ue170006INS_10__overloadINS_11__copy_loopINS_17_ClassicAlgPolicyEEENS_14__copy_trivialEEEPNS_12basic_stringIcNS_11char_traitsIcEENS_9allocatorIcEEEESD_SD_Li0EEENS_4pairIT0_T2_EESF_T1_SG_, symObjAddr: 0x22D08, symBinAddr: 0x100026368, symSize: 0xB4 }
  - { offsetInCU: 0x36F5D, offset: 0x36F5D, size: 0x8, addend: 0x0, symName: __ZNSt3__114__rewrap_rangeB8ue170006IPNS_12basic_stringIcNS_11char_traitsIcEENS_9allocatorIcEEEES7_EET_S8_T0_, symObjAddr: 0x22E44, symBinAddr: 0x1000264A4, symSize: 0x2C }
  - { offsetInCU: 0x36FA9, offset: 0x36FA9, size: 0x8, addend: 0x0, symName: __ZNSt3__110__distanceB8ue170006IPNS_12basic_stringIcNS_11char_traitsIcEENS_9allocatorIcEEEEEENS_15iterator_traitsIT_E15difference_typeES9_S9_NS_26random_access_iterator_tagE, symObjAddr: 0x22F84, symBinAddr: 0x1000265E4, symSize: 0x28 }
  - { offsetInCU: 0x36FF6, offset: 0x36FF6, size: 0x8, addend: 0x0, symName: __ZNSt3__111__tree_leafB8ue170006IPNS_16__tree_node_baseIPvEEEET_S5_, symObjAddr: 0x231C0, symBinAddr: 0x100026820, symSize: 0x70 }
  - { offsetInCU: 0x3702B, offset: 0x3702B, size: 0x8, addend: 0x0, symName: __ZNSt3__1eqB8ue170006ERKNS_19__hash_map_iteratorINS_15__hash_iteratorIPNS_11__hash_nodeINS_17__hash_value_typeINS_12basic_stringIcNS_11char_traitsIcEENS_9allocatorIcEEEE8RelationEEPvEEEEEESI_, symObjAddr: 0x238D4, symBinAddr: 0x100026F34, symSize: 0x30 }
  - { offsetInCU: 0x37068, offset: 0x37068, size: 0x8, addend: 0x0, symName: __ZNSt3__1eqB8ue170006ERKNS_15__hash_iteratorIPNS_11__hash_nodeINS_17__hash_value_typeINS_12basic_stringIcNS_11char_traitsIcEENS_9allocatorIcEEEE8RelationEEPvEEEESG_, symObjAddr: 0x23B18, symBinAddr: 0x100027178, symSize: 0x30 }
  - { offsetInCU: 0x370A5, offset: 0x370A5, size: 0x8, addend: 0x0, symName: __ZNSt3__1plB8ue170006IcNS_11char_traitsIcEENS_9allocatorIcEEEENS_12basic_stringIT_T0_T1_EEOS9_PKS6_, symObjAddr: 0x23BB8, symBinAddr: 0x100027218, symSize: 0x40 }
  - { offsetInCU: 0x37308, offset: 0x37308, size: 0x8, addend: 0x0, symName: __ZNSt3__1neB8ue170006IPK4RuleEEbRKNS_11__wrap_iterIT_EES8_, symObjAddr: 0x23F14, symBinAddr: 0x100027574, symSize: 0x34 }
  - { offsetInCU: 0x3734B, offset: 0x3734B, size: 0x8, addend: 0x0, symName: __ZNSt3__1neB8ue170006IP9PredicateEEbRKNS_11__wrap_iterIT_EES7_, symObjAddr: 0x24228, symBinAddr: 0x100027888, symSize: 0x34 }
  - { offsetInCU: 0x3738E, offset: 0x3738E, size: 0x8, addend: 0x0, symName: __ZNSt3__112__to_addressB8ue170006I8RelationEEPT_S3_, symObjAddr: 0x25A34, symBinAddr: 0x100029094, symSize: 0x14 }
  - { offsetInCU: 0x373C3, offset: 0x373C3, size: 0x8, addend: 0x0, symName: __ZNSt3__1eqB8ue170006IPK4RuleEEbRKNS_11__wrap_iterIT_EES8_, symObjAddr: 0x25B40, symBinAddr: 0x1000291A0, symSize: 0x48 }
  - { offsetInCU: 0x37406, offset: 0x37406, size: 0x8, addend: 0x0, symName: __ZNSt3__1eqB8ue170006IP9PredicateEEbRKNS_11__wrap_iterIT_EES7_, symObjAddr: 0x25F2C, symBinAddr: 0x10002958C, symSize: 0x48 }
  - { offsetInCU: 0x378A2, offset: 0x378A2, size: 0x8, addend: 0x0, symName: __ZNSt3__14swapB8ue170006IPP8RelationEENS_9enable_ifIXaasr21is_move_constructibleIT_EE5valuesr18is_move_assignableIS5_EE5valueEvE4typeERS5_S8_, symObjAddr: 0x2756C, symBinAddr: 0x10002ABCC, symSize: 0x3C }
  - { offsetInCU: 0x378F3, offset: 0x378F3, size: 0x8, addend: 0x0, symName: __ZNSt3__14moveB8ue170006IPP8RelationS3_EET0_T_S5_S4_, symObjAddr: 0x2769C, symBinAddr: 0x10002ACFC, symSize: 0x40 }
  - { offsetInCU: 0x3794D, offset: 0x3794D, size: 0x8, addend: 0x0, symName: __ZNSt3__112__to_addressB8ue170006IP8RelationEEPT_S4_, symObjAddr: 0x277A4, symBinAddr: 0x10002AE04, symSize: 0x14 }
  - { offsetInCU: 0x37982, offset: 0x37982, size: 0x8, addend: 0x0, symName: __ZNSt3__16__moveB8ue170006INS_17_ClassicAlgPolicyEPP8RelationS4_S4_EENS_4pairIT0_T2_EES6_T1_S7_, symObjAddr: 0x277B8, symBinAddr: 0x10002AE18, symSize: 0x44 }
  - { offsetInCU: 0x379EE, offset: 0x379EE, size: 0x8, addend: 0x0, symName: __ZNSt3__123__dispatch_copy_or_moveB8ue170006INS_17_ClassicAlgPolicyENS_11__move_loopIS1_EENS_14__move_trivialEPP8RelationS7_S7_EENS_4pairIT2_T4_EES9_T3_SA_, symObjAddr: 0x277FC, symBinAddr: 0x10002AE5C, symSize: 0x44 }
  - { offsetInCU: 0x37A6C, offset: 0x37A6C, size: 0x8, addend: 0x0, symName: __ZNSt3__121__unwrap_and_dispatchB8ue170006INS_10__overloadINS_11__move_loopINS_17_ClassicAlgPolicyEEENS_14__move_trivialEEEPP8RelationS9_S9_Li0EEENS_4pairIT0_T2_EESB_T1_SC_, symObjAddr: 0x27840, symBinAddr: 0x10002AEA0, symSize: 0xB4 }
  - { offsetInCU: 0x37AFA, offset: 0x37AFA, size: 0x8, addend: 0x0, symName: __ZNSt3__114__unwrap_rangeB8ue170006IPP8RelationS3_EENS_4pairIT0_S5_EET_S7_, symObjAddr: 0x278F4, symBinAddr: 0x10002AF54, symSize: 0x60 }
  - { offsetInCU: 0x37CBE, offset: 0x37CBE, size: 0x8, addend: 0x0, symName: __ZNSt3__113__unwrap_iterB8ue170006IPP8RelationNS_18__unwrap_iter_implIS3_Lb1EEELi0EEEDTclsrT0_8__unwrapclsr3stdE7declvalIT_EEEES7_, symObjAddr: 0x2799C, symBinAddr: 0x10002AFFC, symSize: 0x24 }
  - { offsetInCU: 0x37D02, offset: 0x37D02, size: 0x8, addend: 0x0, symName: __ZNSt3__19make_pairB8ue170006IPP8RelationS3_EENS_4pairINS_18__unwrap_ref_decayIT_E4typeENS5_IT0_E4typeEEEOS6_OS9_, symObjAddr: 0x279C0, symBinAddr: 0x10002B020, symSize: 0x38 }
  - { offsetInCU: 0x37D51, offset: 0x37D51, size: 0x8, addend: 0x0, symName: __ZNSt3__114__rewrap_rangeB8ue170006IPP8RelationS3_EET_S4_T0_, symObjAddr: 0x279F8, symBinAddr: 0x10002B058, symSize: 0x2C }
  - { offsetInCU: 0x37D9D, offset: 0x37D9D, size: 0x8, addend: 0x0, symName: __ZNSt3__113__rewrap_iterB8ue170006IPP8RelationS3_NS_18__unwrap_iter_implIS3_Lb1EEEEET_S6_T0_, symObjAddr: 0x27A24, symBinAddr: 0x10002B084, symSize: 0x3C }
  - { offsetInCU: 0x37DF2, offset: 0x37DF2, size: 0x8, addend: 0x0, symName: __ZNSt3__119__copy_trivial_implB8ue170006IP8RelationS2_EENS_4pairIPT_PT0_EES5_S5_S7_, symObjAddr: 0x27A60, symBinAddr: 0x10002B0C0, symSize: 0x80 }
  - { offsetInCU: 0x37E5A, offset: 0x37E5A, size: 0x8, addend: 0x0, symName: __ZNSt3__119__constexpr_memmoveB8ue170006IP8RelationS2_Li0EEEPT_S4_PT0_NS_15__element_countE, symObjAddr: 0x27AE0, symBinAddr: 0x10002B140, symSize: 0x64 }
  - { offsetInCU: 0x37EC8, offset: 0x37EC8, size: 0x8, addend: 0x0, symName: __ZNSt3__19make_pairB8ue170006IRPP8RelationS3_EENS_4pairINS_18__unwrap_ref_decayIT_E4typeENS6_IT0_E4typeEEEOS7_OSA_, symObjAddr: 0x27B44, symBinAddr: 0x10002B1A4, symSize: 0x38 }
  - { offsetInCU: 0x37F6A, offset: 0x37F6A, size: 0x8, addend: 0x0, symName: __ZNSt3__18distanceB8ue170006INS_13move_iteratorIPP8RelationEEEENS_15iterator_traitsIT_E15difference_typeES7_S7_, symObjAddr: 0x27DAC, symBinAddr: 0x10002B40C, symSize: 0x3C }
  - { offsetInCU: 0x37FAD, offset: 0x37FAD, size: 0x8, addend: 0x0, symName: __ZNSt3__110__distanceB8ue170006INS_13move_iteratorIPP8RelationEEEENS_15iterator_traitsIT_E15difference_typeES7_S7_NS_26random_access_iterator_tagE, symObjAddr: 0x27FB0, symBinAddr: 0x10002B610, symSize: 0x30 }
  - { offsetInCU: 0x37FFA, offset: 0x37FFA, size: 0x8, addend: 0x0, symName: __ZNSt3__1miB8ue170006IPP8RelationS3_EEDTmicldtfp_4baseEcldtfp0_4baseEERKNS_13move_iteratorIT_EERKNS5_IT0_EE, symObjAddr: 0x27FE0, symBinAddr: 0x10002B640, symSize: 0x48 }
  - { offsetInCU: 0x38049, offset: 0x38049, size: 0x8, addend: 0x0, symName: __ZNSt3__113move_backwardB8ue170006IPP8RelationS3_EET0_T_S5_S4_, symObjAddr: 0x28188, symBinAddr: 0x10002B7E8, symSize: 0x40 }
  - { offsetInCU: 0x380A3, offset: 0x380A3, size: 0x8, addend: 0x0, symName: __ZNSt3__115__move_backwardB8ue170006INS_17_ClassicAlgPolicyEPP8RelationS4_S4_EENS_4pairIT0_T2_EES6_T1_S7_, symObjAddr: 0x281C8, symBinAddr: 0x10002B828, symSize: 0x44 }
  - { offsetInCU: 0x3810F, offset: 0x3810F, size: 0x8, addend: 0x0, symName: __ZNSt3__123__dispatch_copy_or_moveB8ue170006INS_17_ClassicAlgPolicyENS_20__move_backward_loopIS1_EENS_23__move_backward_trivialEPP8RelationS7_S7_EENS_4pairIT2_T4_EES9_T3_SA_, symObjAddr: 0x2820C, symBinAddr: 0x10002B86C, symSize: 0x44 }
  - { offsetInCU: 0x3818D, offset: 0x3818D, size: 0x8, addend: 0x0, symName: __ZNSt3__121__unwrap_and_dispatchB8ue170006INS_10__overloadINS_20__move_backward_loopINS_17_ClassicAlgPolicyEEENS_23__move_backward_trivialEEEPP8RelationS9_S9_Li0EEENS_4pairIT0_T2_EESB_T1_SC_, symObjAddr: 0x28250, symBinAddr: 0x10002B8B0, symSize: 0xB4 }
  - { offsetInCU: 0x38261, offset: 0x38261, size: 0x8, addend: 0x0, symName: __ZNSt3__128__copy_backward_trivial_implB8ue170006IP8RelationS2_EENS_4pairIPT_PT0_EES5_S5_S7_, symObjAddr: 0x2834C, symBinAddr: 0x10002B9AC, symSize: 0x90 }
  - { offsetInCU: 0x382C9, offset: 0x382C9, size: 0x8, addend: 0x0, symName: __ZNSt3__19make_pairB8ue170006IRPP8RelationS4_EENS_4pairINS_18__unwrap_ref_decayIT_E4typeENS6_IT0_E4typeEEEOS7_OSA_, symObjAddr: 0x283DC, symBinAddr: 0x10002BA3C, symSize: 0x38 }
  - { offsetInCU: 0x38318, offset: 0x38318, size: 0x8, addend: 0x0, symName: __ZNSt3__119__allocate_at_leastB8ue170006INS_9allocatorIP8RelationEEEENS_19__allocation_resultINS_16allocator_traitsIT_E7pointerEEERS7_m, symObjAddr: 0x28610, symBinAddr: 0x10002BC70, symSize: 0x40 }
  - { offsetInCU: 0x3835B, offset: 0x3835B, size: 0x8, addend: 0x0, symName: __ZNSt3__1neB8ue170006IcNS_11char_traitsIcEENS_9allocatorIcEEEEbRKNS_12basic_stringIT_T0_T1_EESB_, symObjAddr: 0x29E48, symBinAddr: 0x10002D4A8, symSize: 0x34 }
  - { offsetInCU: 0x383D1, offset: 0x383D1, size: 0x8, addend: 0x0, symName: __ZNSt3__1neB8ue170006ERKNS_21__tree_const_iteratorIiPNS_11__tree_nodeIiPvEElEES7_, symObjAddr: 0x2B4B8, symBinAddr: 0x10002EB18, symSize: 0x34 }
  - { offsetInCU: 0x3840E, offset: 0x3840E, size: 0x8, addend: 0x0, symName: __ZNSt3__1eqB8ue170006ERKNS_21__tree_const_iteratorIiPNS_11__tree_nodeIiPvEElEES7_, symObjAddr: 0x2B5B0, symBinAddr: 0x10002EC10, symSize: 0x30 }
  - { offsetInCU: 0x3844B, offset: 0x3844B, size: 0x8, addend: 0x0, symName: __ZNSt3__14nextB8ue170006INS_21__tree_const_iteratorIiPNS_11__tree_nodeIiPvEElEEEENS_9enable_ifIXsr29__has_input_iterator_categoryIT_EE5valueES8_E4typeES8_NS_15iterator_traitsIS8_E15difference_typeE, symObjAddr: 0x2BA88, symBinAddr: 0x10002F0E8, symSize: 0x3C }
  - { offsetInCU: 0x3848E, offset: 0x3848E, size: 0x8, addend: 0x0, symName: __ZNSt3__19__advanceB8ue170006INS_21__tree_const_iteratorIiPNS_11__tree_nodeIiPvEElEEEEvRT_NS_15iterator_traitsIS7_E15difference_typeENS_26bidirectional_iterator_tagE, symObjAddr: 0x2BB68, symBinAddr: 0x10002F1C8, symSize: 0xA4 }
  - { offsetInCU: 0x384D7, offset: 0x384D7, size: 0x8, addend: 0x0, symName: __ZNSt3__112__to_addressB8ue170006IiEEPT_S2_, symObjAddr: 0x2C364, symBinAddr: 0x10002F9C4, symSize: 0x14 }
  - { offsetInCU: 0x3850C, offset: 0x3850C, size: 0x8, addend: 0x0, symName: __ZNSt3__119__allocate_at_leastB8ue170006INS_9allocatorIiEEEENS_19__allocation_resultINS_16allocator_traitsIT_E7pointerEEERS5_m, symObjAddr: 0x2C988, symBinAddr: 0x10002FFE8, symSize: 0x40 }
  - { offsetInCU: 0x3854F, offset: 0x3854F, size: 0x8, addend: 0x0, symName: __ZNSt3__142__uninitialized_allocator_move_if_noexceptB8ue170006INS_9allocatorIiEENS_16reverse_iteratorIPiEES5_ivEET1_RT_T0_S9_S6_, symObjAddr: 0x2CBF4, symBinAddr: 0x100030254, symSize: 0x78 }
  - { offsetInCU: 0x385CD, offset: 0x385CD, size: 0x8, addend: 0x0, symName: __ZNSt3__14swapB8ue170006IPiEENS_9enable_ifIXaasr21is_move_constructibleIT_EE5valuesr18is_move_assignableIS3_EE5valueEvE4typeERS3_S6_, symObjAddr: 0x2CCB8, symBinAddr: 0x100030318, symSize: 0x3C }
  - { offsetInCU: 0x3861E, offset: 0x3861E, size: 0x8, addend: 0x0, symName: __ZNSt3__14moveB8ue170006INS_16reverse_iteratorIPiEES3_EET0_T_S5_S4_, symObjAddr: 0x2CDE8, symBinAddr: 0x100030448, symSize: 0x78 }
  - { offsetInCU: 0x38678, offset: 0x38678, size: 0x8, addend: 0x0, symName: __ZNSt3__16__moveB8ue170006INS_17_ClassicAlgPolicyENS_16reverse_iteratorIPiEES4_S4_EENS_4pairIT0_T2_EES6_T1_S7_, symObjAddr: 0x2CE60, symBinAddr: 0x1000304C0, symSize: 0x64 }
  - { offsetInCU: 0x386E4, offset: 0x386E4, size: 0x8, addend: 0x0, symName: __ZNSt3__123__dispatch_copy_or_moveB8ue170006INS_17_ClassicAlgPolicyENS_11__move_loopIS1_EENS_14__move_trivialENS_16reverse_iteratorIPiEES7_S7_EENS_4pairIT2_T4_EES9_T3_SA_, symObjAddr: 0x2CEC4, symBinAddr: 0x100030524, symSize: 0x64 }
  - { offsetInCU: 0x38762, offset: 0x38762, size: 0x8, addend: 0x0, symName: __ZNSt3__121__unwrap_and_dispatchB8ue170006INS_10__overloadINS_11__move_loopINS_17_ClassicAlgPolicyEEENS_14__move_trivialEEENS_16reverse_iteratorIPiEES9_S9_Li0EEENS_4pairIT0_T2_EESB_T1_SC_, symObjAddr: 0x2CF28, symBinAddr: 0x100030588, symSize: 0x12C }
  - { offsetInCU: 0x387F2, offset: 0x387F2, size: 0x8, addend: 0x0, symName: __ZNSt3__114__unwrap_rangeB8ue170006INS_16reverse_iteratorIPiEES3_EENS_4pairIT0_S5_EET_S7_, symObjAddr: 0x2D054, symBinAddr: 0x1000306B4, symSize: 0x84 }
  - { offsetInCU: 0x38964, offset: 0x38964, size: 0x8, addend: 0x0, symName: __ZNSt3__113__unwrap_iterB8ue170006INS_16reverse_iteratorIPiEENS_18__unwrap_iter_implIS3_Lb0EEELi0EEEDTclsrT0_8__unwrapclsr3stdE7declvalIT_EEEES7_, symObjAddr: 0x2D178, symBinAddr: 0x1000307D8, symSize: 0x44 }
  - { offsetInCU: 0x389A8, offset: 0x389A8, size: 0x8, addend: 0x0, symName: __ZNSt3__19make_pairB8ue170006INS_16reverse_iteratorIPiEES3_EENS_4pairINS_18__unwrap_ref_decayIT_E4typeENS5_IT0_E4typeEEEOS6_OS9_, symObjAddr: 0x2D1BC, symBinAddr: 0x10003081C, symSize: 0x38 }
  - { offsetInCU: 0x389F7, offset: 0x389F7, size: 0x8, addend: 0x0, symName: __ZNSt3__114__rewrap_rangeB8ue170006INS_16reverse_iteratorIPiEES3_EET_S4_T0_, symObjAddr: 0x2D1F4, symBinAddr: 0x100030854, symSize: 0x5C }
  - { offsetInCU: 0x38A43, offset: 0x38A43, size: 0x8, addend: 0x0, symName: __ZNSt3__113__rewrap_iterB8ue170006INS_16reverse_iteratorIPiEES3_NS_18__unwrap_iter_implIS3_Lb0EEEEET_S6_T0_, symObjAddr: 0x2D250, symBinAddr: 0x1000308B0, symSize: 0x74 }
  - { offsetInCU: 0x38A98, offset: 0x38A98, size: 0x8, addend: 0x0, symName: __ZNSt3__1neB8ue170006IPiS1_EEbRKNS_16reverse_iteratorIT_EERKNS2_IT0_EE, symObjAddr: 0x2D2C4, symBinAddr: 0x100030924, symSize: 0x48 }
  - { offsetInCU: 0x38B96, offset: 0x38B96, size: 0x8, addend: 0x0, symName: __ZNSt3__1neB8ue170006IPKiEEbRKNS_11__wrap_iterIT_EES7_, symObjAddr: 0x2D768, symBinAddr: 0x100030DC8, symSize: 0x34 }
  - { offsetInCU: 0x38BD9, offset: 0x38BD9, size: 0x8, addend: 0x0, symName: __ZNSt3__1eqB8ue170006IPKiEEbRKNS_11__wrap_iterIT_EES7_, symObjAddr: 0x2D930, symBinAddr: 0x100030F90, symSize: 0x48 }
  - { offsetInCU: 0x38C1C, offset: 0x38C1C, size: 0x8, addend: 0x0, symName: __ZNSt3__1neB8ue170006ERKNS_19__hash_map_iteratorINS_15__hash_iteratorIPNS_11__hash_nodeINS_17__hash_value_typeINS_12basic_stringIcNS_11char_traitsIcEENS_9allocatorIcEEEE8RelationEEPvEEEEEESI_, symObjAddr: 0x2DD2C, symBinAddr: 0x10003138C, symSize: 0x30 }
  - { offsetInCU: 0x38C59, offset: 0x38C59, size: 0x8, addend: 0x0, symName: __ZNSt3__1neB8ue170006ERKNS_15__hash_iteratorIPNS_11__hash_nodeINS_17__hash_value_typeINS_12basic_stringIcNS_11char_traitsIcEENS_9allocatorIcEEEE8RelationEEPvEEEESG_, symObjAddr: 0x2DE10, symBinAddr: 0x100031470, symSize: 0x34 }
  - { offsetInCU: 0x38C96, offset: 0x38C96, size: 0x8, addend: 0x0, symName: __ZNSt3__1neB8ue170006ERKNS_16__deque_iteratorI8RelationPS1_RS1_PS2_lLl56EEES7_, symObjAddr: 0x2E66C, symBinAddr: 0x100031CCC, symSize: 0x34 }
  - { offsetInCU: 0x38CD3, offset: 0x38CD3, size: 0x8, addend: 0x0, symName: __ZNSt3__1eqB8ue170006ERKNS_16__deque_iteratorI8RelationPS1_RS1_PS2_lLl56EEES7_, symObjAddr: 0x2E710, symBinAddr: 0x100031D70, symSize: 0x30 }
  - { offsetInCU: 0x397A0, offset: 0x397A0, size: 0x8, addend: 0x0, symName: __ZNSt3__1eqB8ue170006ERKNS_19__hash_map_iteratorINS_15__hash_iteratorIPNS_11__hash_nodeINS_17__hash_value_typeINS_12basic_stringIcNS_11char_traitsIcEENS_9allocatorIcEEEENS_6vectorIiNS7_IiEEEEEEPvEEEEEESK_, symObjAddr: 0x2E928, symBinAddr: 0x100031F88, symSize: 0x30 }
  - { offsetInCU: 0x397DD, offset: 0x397DD, size: 0x8, addend: 0x0, symName: __ZNSt3__1neB8ue170006ERKNS_19__hash_map_iteratorINS_15__hash_iteratorIPNS_11__hash_nodeINS_17__hash_value_typeINS_12basic_stringIcNS_11char_traitsIcEENS_9allocatorIcEEEENS_6vectorIiNS7_IiEEEEEEPvEEEEEESK_, symObjAddr: 0x2EDDC, symBinAddr: 0x10003243C, symSize: 0x30 }
  - { offsetInCU: 0x3981A, offset: 0x3981A, size: 0x8, addend: 0x0, symName: __ZNSt3__1eqB8ue170006ERKNS_15__hash_iteratorIPNS_11__hash_nodeINS_17__hash_value_typeINS_12basic_stringIcNS_11char_traitsIcEENS_9allocatorIcEEEENS_6vectorIiNS6_IiEEEEEEPvEEEESI_, symObjAddr: 0x2F770, symBinAddr: 0x100032DD0, symSize: 0x30 }
  - { offsetInCU: 0x39857, offset: 0x39857, size: 0x8, addend: 0x0, symName: __ZNSt3__17launderB8ue170006IKNS_4pairIKNS_12basic_stringIcNS_11char_traitsIcEENS_9allocatorIcEEEENS_6vectorIiNS5_IiEEEEEEEEPT_SF_, symObjAddr: 0x2FCB8, symBinAddr: 0x100033318, symSize: 0x24 }
  - { offsetInCU: 0x3988E, offset: 0x3988E, size: 0x8, addend: 0x0, symName: __ZNSt3__19__launderB8ue170006IKNS_4pairIKNS_12basic_stringIcNS_11char_traitsIcEENS_9allocatorIcEEEENS_6vectorIiNS5_IiEEEEEEEEPT_SF_, symObjAddr: 0x2FCDC, symBinAddr: 0x10003333C, symSize: 0x14 }
  - { offsetInCU: 0x3992F, offset: 0x3992F, size: 0x8, addend: 0x0, symName: __ZNSt3__116forward_as_tupleB8ue170006IJRKNS_12basic_stringIcNS_11char_traitsIcEENS_9allocatorIcEEEEEEENS_5tupleIJDpOT_EEESC_, symObjAddr: 0x301F4, symBinAddr: 0x100033854, symSize: 0x2C }
  - { offsetInCU: 0x39968, offset: 0x39968, size: 0x8, addend: 0x0, symName: __ZNSt3__116forward_as_tupleB8ue170006IJEEENS_5tupleIJDpOT_EEES4_, symObjAddr: 0x30220, symBinAddr: 0x100033880, symSize: 0x4 }
  - { offsetInCU: 0x399B6, offset: 0x399B6, size: 0x8, addend: 0x0, symName: __ZNSt3__13getB8ue170006ILm0EJRKNS_12basic_stringIcNS_11char_traitsIcEENS_9allocatorIcEEEEEEERNS_13tuple_elementIXT_ENS_5tupleIJDpT0_EEEE4typeERSD_, symObjAddr: 0x30A0C, symBinAddr: 0x10003406C, symSize: 0x24 }
  - { offsetInCU: 0x39A50, offset: 0x39A50, size: 0x8, addend: 0x0, symName: __ZNSt3__17launderB8ue170006INS_4pairIKNS_12basic_stringIcNS_11char_traitsIcEENS_9allocatorIcEEEENS_6vectorIiNS5_IiEEEEEEEEPT_SE_, symObjAddr: 0x31638, symBinAddr: 0x100034C98, symSize: 0x24 }
  - { offsetInCU: 0x39A87, offset: 0x39A87, size: 0x8, addend: 0x0, symName: __ZNSt3__19__launderB8ue170006INS_4pairIKNS_12basic_stringIcNS_11char_traitsIcEENS_9allocatorIcEEEENS_6vectorIiNS5_IiEEEEEEEEPT_SE_, symObjAddr: 0x3165C, symBinAddr: 0x100034CBC, symSize: 0x14 }
  - { offsetInCU: 0x39ABE, offset: 0x39ABE, size: 0x8, addend: 0x0, symName: __ZNSt3__18distanceB8ue170006IPiEENS_15iterator_traitsIT_E15difference_typeES3_S3_, symObjAddr: 0x31870, symBinAddr: 0x100034ED0, symSize: 0x2C }
  - { offsetInCU: 0x39B01, offset: 0x39B01, size: 0x8, addend: 0x0, symName: __ZNSt3__14nextB8ue170006IPiEENS_9enable_ifIXsr29__has_input_iterator_categoryIT_EE5valueES3_E4typeES3_NS_15iterator_traitsIS3_E15difference_typeE, symObjAddr: 0x3189C, symBinAddr: 0x100034EFC, symSize: 0x34 }
  - { offsetInCU: 0x39B44, offset: 0x39B44, size: 0x8, addend: 0x0, symName: __ZNSt3__14copyB8ue170006IPiS1_EET0_T_S3_S2_, symObjAddr: 0x318D0, symBinAddr: 0x100034F30, symSize: 0x40 }
  - { offsetInCU: 0x39B9E, offset: 0x39B9E, size: 0x8, addend: 0x0, symName: __ZNSt3__16__copyB8ue170006INS_17_ClassicAlgPolicyEPiS2_S2_EENS_4pairIT0_T2_EES4_T1_S5_, symObjAddr: 0x3199C, symBinAddr: 0x100034FFC, symSize: 0x44 }
  - { offsetInCU: 0x39C0B, offset: 0x39C0B, size: 0x8, addend: 0x0, symName: __ZNSt3__19__advanceB8ue170006IPiEEvRT_NS_15iterator_traitsIS2_E15difference_typeENS_26random_access_iterator_tagE, symObjAddr: 0x31BA4, symBinAddr: 0x100035204, symSize: 0x28 }
  - { offsetInCU: 0x39C53, offset: 0x39C53, size: 0x8, addend: 0x0, symName: __ZNSt3__130__uninitialized_allocator_copyB8ue170006INS_9allocatorIiEEPiS3_S3_EET2_RT_T0_T1_S4_, symObjAddr: 0x31BCC, symBinAddr: 0x10003522C, symSize: 0x80 }
  - { offsetInCU: 0x39CF0, offset: 0x39CF0, size: 0x8, addend: 0x0, symName: __ZNSt3__114__unwrap_rangeB8ue170006IPiS1_EENS_4pairIT0_S3_EET_S5_, symObjAddr: 0x31C4C, symBinAddr: 0x1000352AC, symSize: 0x60 }
  - { offsetInCU: 0x39D3C, offset: 0x39D3C, size: 0x8, addend: 0x0, symName: __ZNSt3__135__uninitialized_allocator_copy_implB8ue170006INS_9allocatorIiEEiiiLPv0EEEPT2_RT_PT0_S9_S5_, symObjAddr: 0x31CAC, symBinAddr: 0x10003530C, symSize: 0x38 }
  - { offsetInCU: 0x39DBE, offset: 0x39DBE, size: 0x8, addend: 0x0, symName: __ZNSt3__113__unwrap_iterB8ue170006IPiNS_18__unwrap_iter_implIS1_Lb1EEELi0EEEDTclsrT0_8__unwrapclsr3stdE7declvalIT_EEEES5_, symObjAddr: 0x31CE4, symBinAddr: 0x100035344, symSize: 0x24 }
  - { offsetInCU: 0x39E02, offset: 0x39E02, size: 0x8, addend: 0x0, symName: __ZNSt3__113__rewrap_iterB8ue170006IPiS1_NS_18__unwrap_iter_implIS1_Lb1EEEEET_S4_T0_, symObjAddr: 0x31D08, symBinAddr: 0x100035368, symSize: 0x3C }
  - { offsetInCU: 0x39E57, offset: 0x39E57, size: 0x8, addend: 0x0, symName: __ZNSt3__19make_pairB8ue170006IPiS1_EENS_4pairINS_18__unwrap_ref_decayIT_E4typeENS3_IT0_E4typeEEEOS4_OS7_, symObjAddr: 0x31D44, symBinAddr: 0x1000353A4, symSize: 0x38 }
  - { offsetInCU: 0x39FFC, offset: 0x39FFC, size: 0x8, addend: 0x0, symName: __ZNSt3__123__dispatch_copy_or_moveB8ue170006INS_17_ClassicAlgPolicyENS_11__copy_loopIS1_EENS_14__copy_trivialEPiS5_S5_EENS_4pairIT2_T4_EES7_T3_S8_, symObjAddr: 0x31E60, symBinAddr: 0x1000354C0, symSize: 0x44 }
  - { offsetInCU: 0x3A07A, offset: 0x3A07A, size: 0x8, addend: 0x0, symName: __ZNSt3__121__unwrap_and_dispatchB8ue170006INS_10__overloadINS_11__copy_loopINS_17_ClassicAlgPolicyEEENS_14__copy_trivialEEEPiS7_S7_Li0EEENS_4pairIT0_T2_EES9_T1_SA_, symObjAddr: 0x31EA4, symBinAddr: 0x100035504, symSize: 0xB4 }
  - { offsetInCU: 0x3A14E, offset: 0x3A14E, size: 0x8, addend: 0x0, symName: __ZNSt3__114__rewrap_rangeB8ue170006IPiS1_EET_S2_T0_, symObjAddr: 0x31FA0, symBinAddr: 0x100035600, symSize: 0x2C }
  - { offsetInCU: 0x3A19A, offset: 0x3A19A, size: 0x8, addend: 0x0, symName: __ZNSt3__119__copy_trivial_implB8ue170006IiiEENS_4pairIPT_PT0_EES3_S3_S5_, symObjAddr: 0x31FCC, symBinAddr: 0x10003562C, symSize: 0x80 }
  - { offsetInCU: 0x3A202, offset: 0x3A202, size: 0x8, addend: 0x0, symName: __ZNSt3__119__constexpr_memmoveB8ue170006IiiLi0EEEPT_S2_PT0_NS_15__element_countE, symObjAddr: 0x3204C, symBinAddr: 0x1000356AC, symSize: 0x64 }
  - { offsetInCU: 0x3A270, offset: 0x3A270, size: 0x8, addend: 0x0, symName: __ZNSt3__19make_pairB8ue170006IRPiS1_EENS_4pairINS_18__unwrap_ref_decayIT_E4typeENS4_IT0_E4typeEEEOS5_OS8_, symObjAddr: 0x320B0, symBinAddr: 0x100035710, symSize: 0x38 }
  - { offsetInCU: 0x3A2BF, offset: 0x3A2BF, size: 0x8, addend: 0x0, symName: __ZNSt3__110__distanceB8ue170006IPiEENS_15iterator_traitsIT_E15difference_typeES3_S3_NS_26random_access_iterator_tagE, symObjAddr: 0x32250, symBinAddr: 0x1000358B0, symSize: 0x28 }
  - { offsetInCU: 0x3A30C, offset: 0x3A30C, size: 0x8, addend: 0x0, symName: __ZNSt3__1neB8ue170006ERKNS_15__hash_iteratorIPNS_11__hash_nodeINS_17__hash_value_typeINS_12basic_stringIcNS_11char_traitsIcEENS_9allocatorIcEEEENS_6vectorIiNS6_IiEEEEEEPvEEEESI_, symObjAddr: 0x322B0, symBinAddr: 0x100035910, symSize: 0x34 }
  - { offsetInCU: 0x3A349, offset: 0x3A349, size: 0x8, addend: 0x0, symName: __ZNSt3__18distanceB8ue170006INS_21__tree_const_iteratorIiPNS_11__tree_nodeIiPvEElEEEENS_15iterator_traitsIT_E15difference_typeES8_S8_, symObjAddr: 0x32464, symBinAddr: 0x100035AC4, symSize: 0x3C }
  - { offsetInCU: 0x3A38C, offset: 0x3A38C, size: 0x8, addend: 0x0, symName: __ZNSt3__110__distanceB8ue170006INS_21__tree_const_iteratorIiPNS_11__tree_nodeIiPvEElEEEENS_15iterator_traitsIT_E15difference_typeES8_S8_NS_18input_iterator_tagE, symObjAddr: 0x32568, symBinAddr: 0x100035BC8, symSize: 0x5C }
  - { offsetInCU: 0x3A3E7, offset: 0x3A3E7, size: 0x8, addend: 0x0, symName: __ZNSt3__122__make_exception_guardB8ue170006INS_6vectorIiNS_9allocatorIiEEE16__destroy_vectorEEENS_28__exception_guard_exceptionsIT_EES7_, symObjAddr: 0x325C4, symBinAddr: 0x100035C24, symSize: 0x40 }
  - { offsetInCU: 0x3A41C, offset: 0x3A41C, size: 0x8, addend: 0x0, symName: __ZNSt3__130__uninitialized_allocator_copyB8ue170006INS_9allocatorIiEENS_21__tree_const_iteratorIiPNS_11__tree_nodeIiPvEElEES8_PiEET2_RT_T0_T1_SA_, symObjAddr: 0x32740, symBinAddr: 0x100035DA0, symSize: 0x90 }
  - { offsetInCU: 0x3A4B9, offset: 0x3A4B9, size: 0x8, addend: 0x0, symName: __ZNSt3__114__unwrap_rangeB8ue170006INS_21__tree_const_iteratorIiPNS_11__tree_nodeIiPvEElEES6_EENS_4pairIT0_S8_EET_SA_, symObjAddr: 0x327D0, symBinAddr: 0x100035E30, symSize: 0x70 }
  - { offsetInCU: 0x3A505, offset: 0x3A505, size: 0x8, addend: 0x0, symName: __ZNSt3__135__uninitialized_allocator_copy_implB8ue170006INS_9allocatorIiEENS_21__tree_const_iteratorIiPNS_11__tree_nodeIiPvEElEES8_PiEET2_RT_T0_T1_SA_, symObjAddr: 0x32840, symBinAddr: 0x100035EA0, symSize: 0x104 }
  - { offsetInCU: 0x3A5A3, offset: 0x3A5A3, size: 0x8, addend: 0x0, symName: __ZNSt3__19make_pairB8ue170006INS_21__tree_const_iteratorIiPNS_11__tree_nodeIiPvEElEES6_EENS_4pairINS_18__unwrap_ref_decayIT_E4typeENS8_IT0_E4typeEEEOS9_OSC_, symObjAddr: 0x32944, symBinAddr: 0x100035FA4, symSize: 0x38 }
  - { offsetInCU: 0x3A5F2, offset: 0x3A5F2, size: 0x8, addend: 0x0, symName: __ZNSt3__113__unwrap_iterB8ue170006INS_21__tree_const_iteratorIiPNS_11__tree_nodeIiPvEElEENS_18__unwrap_iter_implIS6_Lb0EEELi0EEEDTclsrT0_8__unwrapclsr3stdE7declvalIT_EEEESA_, symObjAddr: 0x3297C, symBinAddr: 0x100035FDC, symSize: 0x34 }
  - { offsetInCU: 0x3A67E, offset: 0x3A67E, size: 0x8, addend: 0x0, symName: __ZNSt3__122__make_exception_guardB8ue170006INS_29_AllocatorDestroyRangeReverseINS_9allocatorIiEEPiEEEENS_28__exception_guard_exceptionsIT_EES7_, symObjAddr: 0x32A3C, symBinAddr: 0x10003609C, symSize: 0x4C }
  - { offsetInCU: 0x3A6B4, offset: 0x3A6B4, size: 0x8, addend: 0x0, symName: __ZNSt3__119__allocator_destroyB8ue170006INS_9allocatorIiEENS_16reverse_iteratorIPiEES5_EEvRT_T0_T1_, symObjAddr: 0x32C68, symBinAddr: 0x1000362C8, symSize: 0x70 }
  - { offsetInCU: 0x3A717, offset: 0x3A717, size: 0x8, addend: 0x0, symName: __ZNSt3__112__to_addressB8ue170006INS_16reverse_iteratorIPiEEvEEu7__decayIDTclsr19__to_address_helperIT_EE6__callclsr3stdE7declvalIRKS4_EEEEES6_, symObjAddr: 0x32CD8, symBinAddr: 0x100036338, symSize: 0x24 }
  - { offsetInCU: 0x3A776, offset: 0x3A776, size: 0x8, addend: 0x0, symName: __ZNSt3__1eqB8ue170006IPNS_12basic_stringIcNS_11char_traitsIcEENS_9allocatorIcEEEEEEbRKNS_11__wrap_iterIT_EESC_, symObjAddr: 0x3310C, symBinAddr: 0x10003676C, symSize: 0x48 }
  - { offsetInCU: 0x3A7B9, offset: 0x3A7B9, size: 0x8, addend: 0x0, symName: __ZNSt3__116forward_as_tupleB8ue170006IJRKiEEENS_5tupleIJDpOT_EEES6_, symObjAddr: 0x33830, symBinAddr: 0x100036E90, symSize: 0x2C }
  - { offsetInCU: 0x3A7F2, offset: 0x3A7F2, size: 0x8, addend: 0x0, symName: __ZNSt3__17launderB8ue170006IKNS_4pairIKi4NodeEEEEPT_S7_, symObjAddr: 0x33EDC, symBinAddr: 0x10003753C, symSize: 0x24 }
  - { offsetInCU: 0x3A829, offset: 0x3A829, size: 0x8, addend: 0x0, symName: __ZNSt3__19__launderB8ue170006IKNS_4pairIKi4NodeEEEEPT_S7_, symObjAddr: 0x33F00, symBinAddr: 0x100037560, symSize: 0x14 }
  - { offsetInCU: 0x3A87E, offset: 0x3A87E, size: 0x8, addend: 0x0, symName: __ZNSt3__13getB8ue170006ILm0EJRKiEEERNS_13tuple_elementIXT_ENS_5tupleIJDpT0_EEEE4typeERS7_, symObjAddr: 0x343D0, symBinAddr: 0x100037A30, symSize: 0x24 }
  - { offsetInCU: 0x3A909, offset: 0x3A909, size: 0x8, addend: 0x0, symName: __ZNSt3__17launderB8ue170006INS_4pairIKi4NodeEEEEPT_S6_, symObjAddr: 0x348B0, symBinAddr: 0x100037F10, symSize: 0x24 }
  - { offsetInCU: 0x3A940, offset: 0x3A940, size: 0x8, addend: 0x0, symName: __ZNSt3__19__launderB8ue170006INS_4pairIKi4NodeEEEEPT_S6_, symObjAddr: 0x348D4, symBinAddr: 0x100037F34, symSize: 0x14 }
  - { offsetInCU: 0x3A977, offset: 0x3A977, size: 0x8, addend: 0x0, symName: __ZNSt3__1neB8ue170006ERKNS_20__map_const_iteratorINS_21__tree_const_iteratorINS_12__value_typeIi4NodeEEPNS_11__tree_nodeIS4_PvEElEEEESC_, symObjAddr: 0x34CC0, symBinAddr: 0x100038320, symSize: 0x30 }
  - { offsetInCU: 0x3A9B4, offset: 0x3A9B4, size: 0x8, addend: 0x0, symName: __ZNSt3__1neB8ue170006ERKNS_21__tree_const_iteratorINS_12__value_typeIi4NodeEEPNS_11__tree_nodeIS3_PvEElEESA_, symObjAddr: 0x3500C, symBinAddr: 0x10003866C, symSize: 0x34 }
  - { offsetInCU: 0x3A9F1, offset: 0x3A9F1, size: 0x8, addend: 0x0, symName: __ZNSt3__1eqB8ue170006ERKNS_21__tree_const_iteratorINS_12__value_typeIi4NodeEEPNS_11__tree_nodeIS3_PvEElEESA_, symObjAddr: 0x35040, symBinAddr: 0x1000386A0, symSize: 0x30 }
  - { offsetInCU: 0x3AA61, offset: 0x3AA61, size: 0x8, addend: 0x0, symName: __ZNSt3__1neB8ue170006ERKNS_16__deque_iteratorIcPcRcPS1_lLl4096EEES6_, symObjAddr: 0x358BC, symBinAddr: 0x100038F1C, symSize: 0x34 }
  - { offsetInCU: 0x3AA9E, offset: 0x3AA9E, size: 0x8, addend: 0x0, symName: __ZNSt3__1eqB8ue170006ERKNS_16__deque_iteratorIcPcRcPS1_lLl4096EEES6_, symObjAddr: 0x35A98, symBinAddr: 0x1000390F8, symSize: 0x30 }
  - { offsetInCU: 0x3AADB, offset: 0x3AADB, size: 0x8, addend: 0x0, symName: __ZNSt3__112__to_addressB8ue170006IPcEEPT_S3_, symObjAddr: 0x35E88, symBinAddr: 0x1000394E8, symSize: 0x14 }
  - { offsetInCU: 0x3AB10, offset: 0x3AB10, size: 0x8, addend: 0x0, symName: __ZNSt3__142__uninitialized_allocator_move_if_noexceptB8ue170006INS_9allocatorI4RuleEENS_16reverse_iteratorIPS2_EES6_S6_EET2_RT_T0_T1_S7_, symObjAddr: 0x36A8C, symBinAddr: 0x10003A0EC, symSize: 0x11C }
  - { offsetInCU: 0x3ABB0, offset: 0x3ABB0, size: 0x8, addend: 0x0, symName: __ZNSt3__14swapB8ue170006IP4RuleEENS_9enable_ifIXaasr21is_move_constructibleIT_EE5valuesr18is_move_assignableIS4_EE5valueEvE4typeERS4_S7_, symObjAddr: 0x36BA8, symBinAddr: 0x10003A208, symSize: 0x3C }
  - { offsetInCU: 0x3AC01, offset: 0x3AC01, size: 0x8, addend: 0x0, symName: __ZNSt3__122__make_exception_guardB8ue170006INS_29_AllocatorDestroyRangeReverseINS_9allocatorI4RuleEENS_16reverse_iteratorIPS3_EEEEEENS_28__exception_guard_exceptionsIT_EESA_, symObjAddr: 0x36BE4, symBinAddr: 0x10003A244, symSize: 0x4C }
  - { offsetInCU: 0x3AC37, offset: 0x3AC37, size: 0x8, addend: 0x0, symName: __ZNSt3__119__allocator_destroyB8ue170006INS_9allocatorI4RuleEENS_16reverse_iteratorINS4_IPS2_EEEES7_EEvRT_T0_T1_, symObjAddr: 0x36F3C, symBinAddr: 0x10003A59C, symSize: 0x70 }
  - { offsetInCU: 0x3AC9C, offset: 0x3AC9C, size: 0x8, addend: 0x0, symName: __ZNSt3__1neB8ue170006INS_16reverse_iteratorIP4RuleEES4_EEbRKNS1_IT_EERKNS1_IT0_EE, symObjAddr: 0x36FE8, symBinAddr: 0x10003A648, symSize: 0x60 }
  - { offsetInCU: 0x3ACE8, offset: 0x3ACE8, size: 0x8, addend: 0x0, symName: __ZNSt3__112__to_addressB8ue170006INS_16reverse_iteratorINS1_IP4RuleEEEEvEEu7__decayIDTclsr19__to_address_helperIT_EE6__callclsr3stdE7declvalIRKS6_EEEEES8_, symObjAddr: 0x37048, symBinAddr: 0x10003A6A8, symSize: 0x24 }
  - { offsetInCU: 0x3AD47, offset: 0x3AD47, size: 0x8, addend: 0x0, symName: __ZNSt3__130__uninitialized_allocator_copyB8ue170006INS_9allocatorINS_12basic_stringIcNS_11char_traitsIcEENS1_IcEEEEEEPKS6_S9_PS6_EET2_RT_T0_T1_SB_, symObjAddr: 0x37784, symBinAddr: 0x10003ADE4, symSize: 0x80 }
  - { offsetInCU: 0x3ADE4, offset: 0x3ADE4, size: 0x8, addend: 0x0, symName: __ZNSt3__114__unwrap_rangeB8ue170006IPKNS_12basic_stringIcNS_11char_traitsIcEENS_9allocatorIcEEEES8_EENS_4pairIT0_SA_EET_SC_, symObjAddr: 0x37804, symBinAddr: 0x10003AE64, symSize: 0x60 }
  - { offsetInCU: 0x3AE30, offset: 0x3AE30, size: 0x8, addend: 0x0, symName: __ZNSt3__135__uninitialized_allocator_copy_implB8ue170006INS_9allocatorINS_12basic_stringIcNS_11char_traitsIcEENS1_IcEEEEEEPKS6_S9_PS6_EET2_RT_T0_T1_SB_, symObjAddr: 0x37864, symBinAddr: 0x10003AEC4, symSize: 0xF4 }
  - { offsetInCU: 0x3AECE, offset: 0x3AECE, size: 0x8, addend: 0x0, symName: __ZNSt3__19make_pairB8ue170006IPKNS_12basic_stringIcNS_11char_traitsIcEENS_9allocatorIcEEEES8_EENS_4pairINS_18__unwrap_ref_decayIT_E4typeENSA_IT0_E4typeEEEOSB_OSE_, symObjAddr: 0x37958, symBinAddr: 0x10003AFB8, symSize: 0x38 }
  - { offsetInCU: 0x3AF1D, offset: 0x3AF1D, size: 0x8, addend: 0x0, symName: __ZNSt3__113__unwrap_iterB8ue170006IPKNS_12basic_stringIcNS_11char_traitsIcEENS_9allocatorIcEEEENS_18__unwrap_iter_implIS8_Lb1EEELi0EEEDTclsrT0_8__unwrapclsr3stdE7declvalIT_EEEESC_, symObjAddr: 0x37990, symBinAddr: 0x10003AFF0, symSize: 0x24 }
  - { offsetInCU: 0x3B088, offset: 0x3B088, size: 0x8, addend: 0x0, symName: __ZNSt3__112__to_addressB8ue170006IKNS_12basic_stringIcNS_11char_traitsIcEENS_9allocatorIcEEEEEEPT_S9_, symObjAddr: 0x37A48, symBinAddr: 0x10003B0A8, symSize: 0x14 }
  - { offsetInCU: 0x3BE61, offset: 0x3BE61, size: 0x8, addend: 0x0, symName: __ZSt28__throw_bad_array_new_lengthB8ue170006v, symObjAddr: 0x70EC, symBinAddr: 0x10000A74C, symSize: 0x34 }
  - { offsetInCU: 0x3F72D, offset: 0x3F72D, size: 0x8, addend: 0x0, symName: __ZNKSt3__111__enum_hashIN5Token9TokenTypeELb1EEclB8ue170006ES2_, symObjAddr: 0x6CD8, symBinAddr: 0x10000A338, symSize: 0x2C }
  - { offsetInCU: 0x3F7D0, offset: 0x3F7D0, size: 0x8, addend: 0x0, symName: __ZNSt3__16vectorI5TokenNS_9allocatorIS1_EEE26__swap_out_circular_bufferERNS_14__split_bufferIS1_RS3_EE, symObjAddr: 0x8378, symBinAddr: 0x10000B9D8, symSize: 0x110 }
  - { offsetInCU: 0x3F8D1, offset: 0x3F8D1, size: 0x8, addend: 0x0, symName: __ZNSt3__16vectorI9PredicateNS_9allocatorIS1_EEE26__swap_out_circular_bufferERNS_14__split_bufferIS1_RS3_EE, symObjAddr: 0xD328, symBinAddr: 0x100010988, symSize: 0x110 }
  - { offsetInCU: 0x3F970, offset: 0x3F970, size: 0x8, addend: 0x0, symName: __ZNSt3__16vectorI9ParameterNS_9allocatorIS1_EEE26__swap_out_circular_bufferERNS_14__split_bufferIS1_RS3_EE, symObjAddr: 0xF82C, symBinAddr: 0x100012E8C, symSize: 0x110 }
  - { offsetInCU: 0x40094, offset: 0x40094, size: 0x8, addend: 0x0, symName: __ZNSt3__16vectorINS_12basic_stringIcNS_11char_traitsIcEENS_9allocatorIcEEEENS4_IS6_EEE26__swap_out_circular_bufferERNS_14__split_bufferIS6_RS7_EE, symObjAddr: 0x20A58, symBinAddr: 0x1000240B8, symSize: 0x110 }
  - { offsetInCU: 0x401C9, offset: 0x401C9, size: 0x8, addend: 0x0, symName: __ZNSt3__16vectorIiNS_9allocatorIiEEE26__swap_out_circular_bufferERNS_14__split_bufferIiRS2_EE, symObjAddr: 0x2C588, symBinAddr: 0x10002FBE8, symSize: 0x110 }
  - { offsetInCU: 0x40C45, offset: 0x40C45, size: 0x8, addend: 0x0, symName: __ZNSt3__16vectorI4RuleNS_9allocatorIS1_EEE26__swap_out_circular_bufferERNS_14__split_bufferIS1_RS3_EE, symObjAddr: 0x36718, symBinAddr: 0x100039D78, symSize: 0x110 }
  - { offsetInCU: 0x416B7, offset: 0x416B7, size: 0x8, addend: 0x0, symName: __Z7isalnumi, symObjAddr: 0x3A48, symBinAddr: 0x1000070A8, symSize: 0x28 }
  - { offsetInCU: 0x416E3, offset: 0x416E3, size: 0x8, addend: 0x0, symName: __Z7isalphai, symObjAddr: 0x2E94, symBinAddr: 0x1000064F4, symSize: 0x28 }
  - { offsetInCU: 0x417A3, offset: 0x417A3, size: 0x8, addend: 0x0, symName: __Z7isspacei, symObjAddr: 0x2E6C, symBinAddr: 0x1000064CC, symSize: 0x28 }
  - { offsetInCU: 0x43165, offset: 0x43165, size: 0x8, addend: 0x0, symName: _main, symObjAddr: 0x0, symBinAddr: 0x100003660, symSize: 0xA90 }
  - { offsetInCU: 0x43333, offset: 0x43333, size: 0x8, addend: 0x0, symName: __ZNSt3__112basic_stringIcNS_11char_traitsIcEENS_9allocatorIcEEEC1B8ue170006ILi0EEEPKc, symObjAddr: 0xA90, symBinAddr: 0x1000040F0, symSize: 0x34 }
  - { offsetInCU: 0x43372, offset: 0x43372, size: 0x8, addend: 0x0, symName: __ZNSt3__114basic_ifstreamIcNS_11char_traitsIcEEEC1Ev, symObjAddr: 0xAC4, symBinAddr: 0x100004124, symSize: 0xE8 }
  - { offsetInCU: 0x4339E, offset: 0x4339E, size: 0x8, addend: 0x0, symName: __ZNSt3__118basic_stringstreamIcNS_11char_traitsIcEENS_9allocatorIcEEEC1B8ue170006Ev, symObjAddr: 0xBAC, symBinAddr: 0x10000420C, symSize: 0x104 }
  - { offsetInCU: 0x433C8, offset: 0x433C8, size: 0x8, addend: 0x0, symName: __ZNKSt3__114basic_ifstreamIcNS_11char_traitsIcEEE5rdbufEv, symObjAddr: 0xCB0, symBinAddr: 0x100004310, symSize: 0x18 }
  - { offsetInCU: 0x433F0, offset: 0x433F0, size: 0x8, addend: 0x0, symName: __ZNKSt3__118basic_stringstreamIcNS_11char_traitsIcEENS_9allocatorIcEEE3strB8ue170006Ev, symObjAddr: 0xCC8, symBinAddr: 0x100004328, symSize: 0x30 }
  - { offsetInCU: 0x43416, offset: 0x43416, size: 0x8, addend: 0x0, symName: __ZNSt3__114basic_ifstreamIcNS_11char_traitsIcEEE5closeEv, symObjAddr: 0xCF8, symBinAddr: 0x100004358, symSize: 0x58 }
  - { offsetInCU: 0x4343E, offset: 0x4343E, size: 0x8, addend: 0x0, symName: __ZN7ScannerC1ENSt3__112basic_stringIcNS0_11char_traitsIcEENS0_9allocatorIcEEEE, symObjAddr: 0xD50, symBinAddr: 0x1000043B0, symSize: 0x34 }
  - { offsetInCU: 0x43477, offset: 0x43477, size: 0x8, addend: 0x0, symName: __ZN7Scanner9scanTokenEv, symObjAddr: 0xD84, symBinAddr: 0x1000043E4, symSize: 0x434 }
  - { offsetInCU: 0x434B9, offset: 0x434B9, size: 0x8, addend: 0x0, symName: __ZN6ParserC1ERNSt3__16vectorI5TokenNS0_9allocatorIS2_EEEE, symObjAddr: 0x1218, symBinAddr: 0x100004878, symSize: 0x34 }
  - { offsetInCU: 0x434F1, offset: 0x434F1, size: 0x8, addend: 0x0, symName: __ZN6Parser13datalogParserEv, symObjAddr: 0x124C, symBinAddr: 0x1000048AC, symSize: 0x478 }
  - { offsetInCU: 0x43844, offset: 0x43844, size: 0x8, addend: 0x0, symName: __ZN8DatabaseC1Ev, symObjAddr: 0x16C4, symBinAddr: 0x100004D24, symSize: 0x2C }
  - { offsetInCU: 0x43874, offset: 0x43874, size: 0x8, addend: 0x0, symName: __ZN7DatalogC1ERKS_, symObjAddr: 0x16F0, symBinAddr: 0x100004D50, symSize: 0x34 }
  - { offsetInCU: 0x438B4, offset: 0x438B4, size: 0x8, addend: 0x0, symName: __ZN8DatabaseC1ERKS_, symObjAddr: 0x1724, symBinAddr: 0x100004D84, symSize: 0x34 }
  - { offsetInCU: 0x43A65, offset: 0x43A65, size: 0x8, addend: 0x0, symName: __ZN11InterpreterC1E7Datalog8Database, symObjAddr: 0x1758, symBinAddr: 0x100004DB8, symSize: 0x3C }
  - { offsetInCU: 0x43AAD, offset: 0x43AAD, size: 0x8, addend: 0x0, symName: __ZN8DatabaseD1Ev, symObjAddr: 0x1794, symBinAddr: 0x100004DF4, symSize: 0x2C }
  - { offsetInCU: 0x43AD9, offset: 0x43AD9, size: 0x8, addend: 0x0, symName: __ZN7DatalogD1Ev, symObjAddr: 0x17C0, symBinAddr: 0x100004E20, symSize: 0x2C }
  - { offsetInCU: 0x43B05, offset: 0x43B05, size: 0x8, addend: 0x0, symName: __ZN11Interpreter9interpretEv, symObjAddr: 0x17EC, symBinAddr: 0x100004E4C, symSize: 0x124 }
  - { offsetInCU: 0x43B6C, offset: 0x43B6C, size: 0x8, addend: 0x0, symName: __ZNSt3__16vectorINS_12basic_stringIcNS_11char_traitsIcEENS_9allocatorIcEEEENS4_IS6_EEEC1B8ue170006ESt16initializer_listIS6_E, symObjAddr: 0x1910, symBinAddr: 0x100004F70, symSize: 0x3C }
  - { offsetInCU: 0x43BC4, offset: 0x43BC4, size: 0x8, addend: 0x0, symName: __ZNSt3__14pairINS_12basic_stringIcNS_11char_traitsIcEENS_9allocatorIcEEEENS_6vectorIS6_NS4_IS6_EEEEEC1B8ue170006ILb1ELPv0EEERKS6_RKS9_, symObjAddr: 0x194C, symBinAddr: 0x100004FAC, symSize: 0x3C }
  - { offsetInCU: 0x43C1A, offset: 0x43C1A, size: 0x8, addend: 0x0, symName: __ZNSt3__16vectorINS_12basic_stringIcNS_11char_traitsIcEENS_9allocatorIcEEEENS4_IS6_EEED1B8ue170006Ev, symObjAddr: 0x1988, symBinAddr: 0x100004FE8, symSize: 0x2C }
  - { offsetInCU: 0x43C44, offset: 0x43C44, size: 0x8, addend: 0x0, symName: __ZNSt3__14pairINS_12basic_stringIcNS_11char_traitsIcEENS_9allocatorIcEEEENS_6vectorIS6_NS4_IS6_EEEEED1Ev, symObjAddr: 0x19B4, symBinAddr: 0x100005014, symSize: 0x2C }
  - { offsetInCU: 0x43C70, offset: 0x43C70, size: 0x8, addend: 0x0, symName: __ZNSt3__16vectorI4RuleNS_9allocatorIS1_EEEC1B8ue170006Ev, symObjAddr: 0x19E0, symBinAddr: 0x100005040, symSize: 0x2C }
  - { offsetInCU: 0x43C9A, offset: 0x43C9A, size: 0x8, addend: 0x0, symName: __ZN9PredicateC1ENSt3__112basic_stringIcNS0_11char_traitsIcEENS0_9allocatorIcEEEE, symObjAddr: 0x1A0C, symBinAddr: 0x10000506C, symSize: 0x34 }
  - { offsetInCU: 0x43CD3, offset: 0x43CD3, size: 0x8, addend: 0x0, symName: __ZN4RuleC1E9Predicate, symObjAddr: 0x1A40, symBinAddr: 0x1000050A0, symSize: 0x34 }
  - { offsetInCU: 0x43D0C, offset: 0x43D0C, size: 0x8, addend: 0x0, symName: __ZN9PredicateD1Ev, symObjAddr: 0x1A74, symBinAddr: 0x1000050D4, symSize: 0x2C }
  - { offsetInCU: 0x43D38, offset: 0x43D38, size: 0x8, addend: 0x0, symName: __ZNSt3__16vectorINS_12basic_stringIcNS_11char_traitsIcEENS_9allocatorIcEEEENS4_IS6_EEEC1ERKS8_, symObjAddr: 0x1AA0, symBinAddr: 0x100005100, symSize: 0x34 }
  - { offsetInCU: 0x43D73, offset: 0x43D73, size: 0x8, addend: 0x0, symName: __ZNSt3__16vectorINS_12basic_stringIcNS_11char_traitsIcEENS_9allocatorIcEEEENS4_IS6_EEE5beginB8ue170006Ev, symObjAddr: 0x1AD4, symBinAddr: 0x100005134, symSize: 0x30 }
  - { offsetInCU: 0x43D9B, offset: 0x43D9B, size: 0x8, addend: 0x0, symName: __ZNSt3__16vectorINS_12basic_stringIcNS_11char_traitsIcEENS_9allocatorIcEEEENS4_IS6_EEE3endB8ue170006Ev, symObjAddr: 0x1B04, symBinAddr: 0x100005164, symSize: 0x30 }
  - { offsetInCU: 0x43DC3, offset: 0x43DC3, size: 0x8, addend: 0x0, symName: __ZNKSt3__111__wrap_iterIPNS_12basic_stringIcNS_11char_traitsIcEENS_9allocatorIcEEEEEdeB8ue170006Ev, symObjAddr: 0x1B68, symBinAddr: 0x1000051C8, symSize: 0x18 }
  - { offsetInCU: 0x43DE9, offset: 0x43DE9, size: 0x8, addend: 0x0, symName: __ZN4Rule13addPredicatesERK9Predicate, symObjAddr: 0x1B80, symBinAddr: 0x1000051E0, symSize: 0x30 }
  - { offsetInCU: 0x43E1D, offset: 0x43E1D, size: 0x8, addend: 0x0, symName: __ZNSt3__111__wrap_iterIPNS_12basic_stringIcNS_11char_traitsIcEENS_9allocatorIcEEEEEppB8ue170006Ev, symObjAddr: 0x1BB0, symBinAddr: 0x100005210, symSize: 0x20 }
  - { offsetInCU: 0x43E43, offset: 0x43E43, size: 0x8, addend: 0x0, symName: __ZNSt3__16vectorI4RuleNS_9allocatorIS1_EEE9push_backB8ue170006ERKS1_, symObjAddr: 0x1BD0, symBinAddr: 0x100005230, symSize: 0x6C }
  - { offsetInCU: 0x43E7A, offset: 0x43E7A, size: 0x8, addend: 0x0, symName: __ZN4RuleD1Ev, symObjAddr: 0x1C3C, symBinAddr: 0x10000529C, symSize: 0x2C }
  - { offsetInCU: 0x43EA6, offset: 0x43EA6, size: 0x8, addend: 0x0, symName: __ZN11Interpreter9makeGraphERKNSt3__16vectorI4RuleNS0_9allocatorIS2_EEEE, symObjAddr: 0x1C68, symBinAddr: 0x1000052C8, symSize: 0x7C }
  - { offsetInCU: 0x43ED8, offset: 0x43ED8, size: 0x8, addend: 0x0, symName: __ZNK5Graph8toStringEv, symObjAddr: 0x1D30, symBinAddr: 0x100005390, symSize: 0x198 }
  - { offsetInCU: 0x43F5A, offset: 0x43F5A, size: 0x8, addend: 0x0, symName: __ZN5GraphD1Ev, symObjAddr: 0x1EC8, symBinAddr: 0x100005528, symSize: 0x2C }
  - { offsetInCU: 0x43F86, offset: 0x43F86, size: 0x8, addend: 0x0, symName: __ZNSt3__16vectorI4RuleNS_9allocatorIS1_EEED1B8ue170006Ev, symObjAddr: 0x1EF4, symBinAddr: 0x100005554, symSize: 0x2C }
  - { offsetInCU: 0x43FB0, offset: 0x43FB0, size: 0x8, addend: 0x0, symName: __ZN11InterpreterD1Ev, symObjAddr: 0x1F20, symBinAddr: 0x100005580, symSize: 0x2C }
  - { offsetInCU: 0x43FDC, offset: 0x43FDC, size: 0x8, addend: 0x0, symName: __ZN6ParserD1Ev, symObjAddr: 0x1F4C, symBinAddr: 0x1000055AC, symSize: 0x2C }
  - { offsetInCU: 0x44008, offset: 0x44008, size: 0x8, addend: 0x0, symName: __ZNSt3__16vectorI5TokenNS_9allocatorIS1_EEED1B8ue170006Ev, symObjAddr: 0x1F78, symBinAddr: 0x1000055D8, symSize: 0x2C }
  - { offsetInCU: 0x44032, offset: 0x44032, size: 0x8, addend: 0x0, symName: __ZN7ScannerD1Ev, symObjAddr: 0x1FA4, symBinAddr: 0x100005604, symSize: 0x2C }
  - { offsetInCU: 0x44064, offset: 0x44064, size: 0x8, addend: 0x0, symName: __ZNSt3__118basic_stringstreamIcNS_11char_traitsIcEENS_9allocatorIcEEED1Ev, symObjAddr: 0x1FD0, symBinAddr: 0x100005630, symSize: 0x40 }
  - { offsetInCU: 0x44097, offset: 0x44097, size: 0x8, addend: 0x0, symName: __ZNSt3__114basic_ifstreamIcNS_11char_traitsIcEEED1Ev, symObjAddr: 0x2010, symBinAddr: 0x100005670, symSize: 0x40 }
  - { offsetInCU: 0x440C4, offset: 0x440C4, size: 0x8, addend: 0x0, symName: __ZN7ScannerC2ENSt3__112basic_stringIcNS0_11char_traitsIcEENS0_9allocatorIcEEEE, symObjAddr: 0x2050, symBinAddr: 0x1000056B0, symSize: 0x54 }
  - { offsetInCU: 0x440FD, offset: 0x440FD, size: 0x8, addend: 0x0, symName: __ZNSt3__112basic_stringIcNS_11char_traitsIcEENS_9allocatorIcEEEC1B8ue170006EOS5_, symObjAddr: 0x20A4, symBinAddr: 0x100005704, symSize: 0x34 }
  - { offsetInCU: 0x44136, offset: 0x44136, size: 0x8, addend: 0x0, symName: __ZNSt3__15stackIcNS_5dequeIcNS_9allocatorIcEEEEEC1B8ue170006Ev, symObjAddr: 0x20D8, symBinAddr: 0x100005738, symSize: 0x2C }
  - { offsetInCU: 0x44160, offset: 0x44160, size: 0x8, addend: 0x0, symName: __ZNSt3__16vectorI5TokenNS_9allocatorIS1_EEEC1B8ue170006Ev, symObjAddr: 0x2104, symBinAddr: 0x100005764, symSize: 0x2C }
  - { offsetInCU: 0x4418A, offset: 0x4418A, size: 0x8, addend: 0x0, symName: __ZNSt3__112basic_stringIcNS_11char_traitsIcEENS_9allocatorIcEEEC2B8ue170006EOS5_, symObjAddr: 0x2130, symBinAddr: 0x100005790, symSize: 0x50 }
  - { offsetInCU: 0x441C3, offset: 0x441C3, size: 0x8, addend: 0x0, symName: __ZNSt3__112basic_stringIcNS_11char_traitsIcEENS_9allocatorIcEEE14__default_initB8ue170006Ev, symObjAddr: 0x2180, symBinAddr: 0x1000057E0, symSize: 0x40 }
  - { offsetInCU: 0x441E9, offset: 0x441E9, size: 0x8, addend: 0x0, symName: __ZNSt3__117__compressed_pairINS_12basic_stringIcNS_11char_traitsIcEENS_9allocatorIcEEE5__repES5_E5firstB8ue170006Ev, symObjAddr: 0x21CC, symBinAddr: 0x10000582C, symSize: 0x24 }
  - { offsetInCU: 0x4420F, offset: 0x4420F, size: 0x8, addend: 0x0, symName: __ZNSt3__122__compressed_pair_elemINS_12basic_stringIcNS_11char_traitsIcEENS_9allocatorIcEEE5__repELi0ELb0EE5__getB8ue170006Ev, symObjAddr: 0x21F0, symBinAddr: 0x100005850, symSize: 0x14 }
  - { offsetInCU: 0x44235, offset: 0x44235, size: 0x8, addend: 0x0, symName: __ZNSt3__15stackIcNS_5dequeIcNS_9allocatorIcEEEEEC2B8ue170006Ev, symObjAddr: 0x2204, symBinAddr: 0x100005864, symSize: 0x2C }
  - { offsetInCU: 0x4425F, offset: 0x4425F, size: 0x8, addend: 0x0, symName: __ZNSt3__15dequeIcNS_9allocatorIcEEEC1B8ue170006Ev, symObjAddr: 0x2230, symBinAddr: 0x100005890, symSize: 0x2C }
  - { offsetInCU: 0x44289, offset: 0x44289, size: 0x8, addend: 0x0, symName: __ZNSt3__15dequeIcNS_9allocatorIcEEEC2B8ue170006Ev, symObjAddr: 0x225C, symBinAddr: 0x1000058BC, symSize: 0x5C }
  - { offsetInCU: 0x442B3, offset: 0x442B3, size: 0x8, addend: 0x0, symName: __ZNSt3__114__split_bufferIPcNS_9allocatorIS1_EEEC1B8ue170006Ev, symObjAddr: 0x22B8, symBinAddr: 0x100005918, symSize: 0x2C }
  - { offsetInCU: 0x442E9, offset: 0x442E9, size: 0x8, addend: 0x0, symName: __ZNSt3__117__compressed_pairImNS_9allocatorIcEEEC1B8ue170006IiNS_18__default_init_tagEEEOT_OT0_, symObjAddr: 0x22E4, symBinAddr: 0x100005944, symSize: 0x3C }
  - { offsetInCU: 0x44341, offset: 0x44341, size: 0x8, addend: 0x0, symName: __ZNKSt3__15dequeIcNS_9allocatorIcEEE14__annotate_newB8ue170006Em, symObjAddr: 0x2320, symBinAddr: 0x100005980, symSize: 0xC8 }
  - { offsetInCU: 0x44376, offset: 0x44376, size: 0x8, addend: 0x0, symName: __ZNSt3__114__split_bufferIPcNS_9allocatorIS1_EEEC2B8ue170006Ev, symObjAddr: 0x23E8, symBinAddr: 0x100005A48, symSize: 0x50 }
  - { offsetInCU: 0x443A6, offset: 0x443A6, size: 0x8, addend: 0x0, symName: __ZNSt3__117__compressed_pairIPPcNS_9allocatorIS1_EEEC1B8ue170006IDnNS_18__default_init_tagEEEOT_OT0_, symObjAddr: 0x2438, symBinAddr: 0x100005A98, symSize: 0x3C }
  - { offsetInCU: 0x443FE, offset: 0x443FE, size: 0x8, addend: 0x0, symName: __ZNSt3__117__compressed_pairIPPcNS_9allocatorIS1_EEEC2B8ue170006IDnNS_18__default_init_tagEEEOT_OT0_, symObjAddr: 0x2474, symBinAddr: 0x100005AD4, symSize: 0x40 }
  - { offsetInCU: 0x44456, offset: 0x44456, size: 0x8, addend: 0x0, symName: __ZNSt3__122__compressed_pair_elemIPPcLi0ELb0EEC2B8ue170006IDnvEEOT_, symObjAddr: 0x24B4, symBinAddr: 0x100005B14, symSize: 0x1C }
  - { offsetInCU: 0x44498, offset: 0x44498, size: 0x8, addend: 0x0, symName: __ZNSt3__122__compressed_pair_elemINS_9allocatorIPcEELi1ELb1EEC2B8ue170006ENS_18__default_init_tagE, symObjAddr: 0x24D0, symBinAddr: 0x100005B30, symSize: 0x2C }
  - { offsetInCU: 0x444CC, offset: 0x444CC, size: 0x8, addend: 0x0, symName: __ZNSt3__19allocatorIPcEC2B8ue170006Ev, symObjAddr: 0x24FC, symBinAddr: 0x100005B5C, symSize: 0x2C }
  - { offsetInCU: 0x444F6, offset: 0x444F6, size: 0x8, addend: 0x0, symName: __ZNSt3__116__non_trivial_ifILb1ENS_9allocatorIPcEEEC2B8ue170006Ev, symObjAddr: 0x2528, symBinAddr: 0x100005B88, symSize: 0x14 }
  - { offsetInCU: 0x44520, offset: 0x44520, size: 0x8, addend: 0x0, symName: __ZNSt3__117__compressed_pairImNS_9allocatorIcEEEC2B8ue170006IiNS_18__default_init_tagEEEOT_OT0_, symObjAddr: 0x253C, symBinAddr: 0x100005B9C, symSize: 0x40 }
  - { offsetInCU: 0x44578, offset: 0x44578, size: 0x8, addend: 0x0, symName: __ZNSt3__122__compressed_pair_elemImLi0ELb0EEC2B8ue170006IivEEOT_, symObjAddr: 0x257C, symBinAddr: 0x100005BDC, symSize: 0x24 }
  - { offsetInCU: 0x445BA, offset: 0x445BA, size: 0x8, addend: 0x0, symName: __ZNSt3__122__compressed_pair_elemINS_9allocatorIcEELi1ELb1EEC2B8ue170006ENS_18__default_init_tagE, symObjAddr: 0x25A0, symBinAddr: 0x100005C00, symSize: 0x2C }
  - { offsetInCU: 0x445EE, offset: 0x445EE, size: 0x8, addend: 0x0, symName: __ZNSt3__19allocatorIcEC2B8ue170006Ev, symObjAddr: 0x25CC, symBinAddr: 0x100005C2C, symSize: 0x2C }
  - { offsetInCU: 0x44618, offset: 0x44618, size: 0x8, addend: 0x0, symName: __ZNSt3__116__non_trivial_ifILb1ENS_9allocatorIcEEEC2B8ue170006Ev, symObjAddr: 0x25F8, symBinAddr: 0x100005C58, symSize: 0x14 }
  - { offsetInCU: 0x44642, offset: 0x44642, size: 0x8, addend: 0x0, symName: __ZNKSt3__15dequeIcNS_9allocatorIcEEE18__annotate_from_toB8ue170006EmmNS3_22__asan_annotation_typeENS3_23__asan_annotation_placeE, symObjAddr: 0x260C, symBinAddr: 0x100005C6C, symSize: 0x580 }
  - { offsetInCU: 0x447FE, offset: 0x447FE, size: 0x8, addend: 0x0, symName: __ZNKSt3__114__split_bufferIPcNS_9allocatorIS1_EEE4sizeB8ue170006Ev, symObjAddr: 0x2B8C, symBinAddr: 0x1000061EC, symSize: 0x28 }
  - { offsetInCU: 0x44824, offset: 0x44824, size: 0x8, addend: 0x0, symName: __ZNKSt3__114__split_bufferIPcNS_9allocatorIS1_EEE5beginB8ue170006Ev, symObjAddr: 0x2BB4, symBinAddr: 0x100006214, symSize: 0x18 }
  - { offsetInCU: 0x4484A, offset: 0x4484A, size: 0x8, addend: 0x0, symName: __ZNKSt3__15dequeIcNS_9allocatorIcEEE4sizeB8ue170006Ev, symObjAddr: 0x2BCC, symBinAddr: 0x10000622C, symSize: 0x28 }
  - { offsetInCU: 0x44870, offset: 0x44870, size: 0x8, addend: 0x0, symName: __ZNKSt3__15dequeIcNS_9allocatorIcEEE5emptyB8ue170006Ev, symObjAddr: 0x2BF4, symBinAddr: 0x100006254, symSize: 0x30 }
  - { offsetInCU: 0x44896, offset: 0x44896, size: 0x8, addend: 0x0, symName: __ZNKSt3__15dequeIcNS_9allocatorIcEEE44__annotate_double_ended_contiguous_containerB8ue170006EPKvS5_S5_S5_S5_S5_, symObjAddr: 0x2C38, symBinAddr: 0x100006298, symSize: 0x28 }
  - { offsetInCU: 0x44904, offset: 0x44904, size: 0x8, addend: 0x0, symName: __ZNKSt3__15dequeIcNS_9allocatorIcEEE6__sizeB8ue170006Ev, symObjAddr: 0x2C60, symBinAddr: 0x1000062C0, symSize: 0x28 }
  - { offsetInCU: 0x4492A, offset: 0x4492A, size: 0x8, addend: 0x0, symName: __ZNKSt3__117__compressed_pairImNS_9allocatorIcEEE5firstB8ue170006Ev, symObjAddr: 0x2C88, symBinAddr: 0x1000062E8, symSize: 0x24 }
  - { offsetInCU: 0x44950, offset: 0x44950, size: 0x8, addend: 0x0, symName: __ZNKSt3__122__compressed_pair_elemImLi0ELb0EE5__getB8ue170006Ev, symObjAddr: 0x2CAC, symBinAddr: 0x10000630C, symSize: 0x14 }
  - { offsetInCU: 0x44976, offset: 0x44976, size: 0x8, addend: 0x0, symName: __ZNSt3__16vectorI5TokenNS_9allocatorIS1_EEEC2B8ue170006Ev, symObjAddr: 0x2CC0, symBinAddr: 0x100006320, symSize: 0x4C }
  - { offsetInCU: 0x449A0, offset: 0x449A0, size: 0x8, addend: 0x0, symName: __ZNSt3__117__compressed_pairIP5TokenNS_9allocatorIS1_EEEC1B8ue170006IDnNS_18__default_init_tagEEEOT_OT0_, symObjAddr: 0x2D0C, symBinAddr: 0x10000636C, symSize: 0x3C }
  - { offsetInCU: 0x449F8, offset: 0x449F8, size: 0x8, addend: 0x0, symName: __ZNSt3__117__compressed_pairIP5TokenNS_9allocatorIS1_EEEC2B8ue170006IDnNS_18__default_init_tagEEEOT_OT0_, symObjAddr: 0x2D48, symBinAddr: 0x1000063A8, symSize: 0x40 }
  - { offsetInCU: 0x44A50, offset: 0x44A50, size: 0x8, addend: 0x0, symName: __ZNSt3__122__compressed_pair_elemIP5TokenLi0ELb0EEC2B8ue170006IDnvEEOT_, symObjAddr: 0x2D88, symBinAddr: 0x1000063E8, symSize: 0x1C }
  - { offsetInCU: 0x44A92, offset: 0x44A92, size: 0x8, addend: 0x0, symName: __ZNSt3__122__compressed_pair_elemINS_9allocatorI5TokenEELi1ELb1EEC2B8ue170006ENS_18__default_init_tagE, symObjAddr: 0x2DA4, symBinAddr: 0x100006404, symSize: 0x2C }
  - { offsetInCU: 0x44AC6, offset: 0x44AC6, size: 0x8, addend: 0x0, symName: __ZNSt3__19allocatorI5TokenEC2B8ue170006Ev, symObjAddr: 0x2DD0, symBinAddr: 0x100006430, symSize: 0x2C }
  - { offsetInCU: 0x44AF0, offset: 0x44AF0, size: 0x8, addend: 0x0, symName: __ZNSt3__116__non_trivial_ifILb1ENS_9allocatorI5TokenEEEC2B8ue170006Ev, symObjAddr: 0x2DFC, symBinAddr: 0x10000645C, symSize: 0x14 }
  - { offsetInCU: 0x44B1A, offset: 0x44B1A, size: 0x8, addend: 0x0, symName: __ZNSt3__112basic_stringIcNS_11char_traitsIcEENS_9allocatorIcEEEC1B8ue170006Ev, symObjAddr: 0x2E10, symBinAddr: 0x100006470, symSize: 0x2C }
  - { offsetInCU: 0x44B44, offset: 0x44B44, size: 0x8, addend: 0x0, symName: __ZNKSt3__112basic_stringIcNS_11char_traitsIcEENS_9allocatorIcEEE5emptyB8ue170006Ev, symObjAddr: 0x2E3C, symBinAddr: 0x10000649C, symSize: 0x30 }
  - { offsetInCU: 0x44B6A, offset: 0x44B6A, size: 0x8, addend: 0x0, symName: __ZN7Scanner12alnumHandlerEv, symObjAddr: 0x2EBC, symBinAddr: 0x10000651C, symSize: 0x2CC }
  - { offsetInCU: 0x44BF3, offset: 0x44BF3, size: 0x8, addend: 0x0, symName: __ZN7Scanner13stringHandlerEv, symObjAddr: 0x3188, symBinAddr: 0x1000067E8, symSize: 0x2D8 }
  - { offsetInCU: 0x44C36, offset: 0x44C36, size: 0x8, addend: 0x0, symName: __ZN7Scanner14commentHandlerEv, symObjAddr: 0x3460, symBinAddr: 0x100006AC0, symSize: 0x1B0 }
  - { offsetInCU: 0x44CB0, offset: 0x44CB0, size: 0x8, addend: 0x0, symName: __ZNKSt3__112basic_stringIcNS_11char_traitsIcEENS_9allocatorIcEEE4sizeB8ue170006Ev, symObjAddr: 0x3610, symBinAddr: 0x100006C70, symSize: 0x54 }
  - { offsetInCU: 0x44CD6, offset: 0x44CD6, size: 0x8, addend: 0x0, symName: __ZNSt3__112basic_stringIcNS_11char_traitsIcEENS_9allocatorIcEEEaSB8ue170006EPKc, symObjAddr: 0x3664, symBinAddr: 0x100006CC4, symSize: 0x2C }
  - { offsetInCU: 0x44D11, offset: 0x44D11, size: 0x8, addend: 0x0, symName: __ZNSt3__16vectorI5TokenNS_9allocatorIS1_EEE12emplace_backIJRNS1_9TokenTypeERNS_12basic_stringIcNS_11char_traitsIcEENS2_IcEEEERiEEERS1_DpOT_, symObjAddr: 0x3690, symBinAddr: 0x100006CF0, symSize: 0x8C }
  - { offsetInCU: 0x44D9A, offset: 0x44D9A, size: 0x8, addend: 0x0, symName: __ZNSt3__16vectorI5TokenNS_9allocatorIS1_EEE12emplace_backIJNS1_9TokenTypeERA1_KcRiEEERS1_DpOT_, symObjAddr: 0x371C, symBinAddr: 0x100006D7C, symSize: 0x8C }
  - { offsetInCU: 0x44E04, offset: 0x44E04, size: 0x8, addend: 0x0, symName: __ZNSt3__16vectorI5TokenNS_9allocatorIS1_EEEC1ERKS4_, symObjAddr: 0x37A8, symBinAddr: 0x100006E08, symSize: 0x34 }
  - { offsetInCU: 0x44E3F, offset: 0x44E3F, size: 0x8, addend: 0x0, symName: __ZNSt3__112basic_stringIcNS_11char_traitsIcEENS_9allocatorIcEEEC2B8ue170006Ev, symObjAddr: 0x37DC, symBinAddr: 0x100006E3C, symSize: 0x44 }
  - { offsetInCU: 0x44E69, offset: 0x44E69, size: 0x8, addend: 0x0, symName: __ZNSt3__117__compressed_pairINS_12basic_stringIcNS_11char_traitsIcEENS_9allocatorIcEEE5__repES5_EC1B8ue170006INS_18__default_init_tagESA_EEOT_OT0_, symObjAddr: 0x3820, symBinAddr: 0x100006E80, symSize: 0x3C }
  - { offsetInCU: 0x44EC1, offset: 0x44EC1, size: 0x8, addend: 0x0, symName: __ZNSt3__117__compressed_pairINS_12basic_stringIcNS_11char_traitsIcEENS_9allocatorIcEEE5__repES5_EC2B8ue170006INS_18__default_init_tagESA_EEOT_OT0_, symObjAddr: 0x385C, symBinAddr: 0x100006EBC, symSize: 0x3C }
  - { offsetInCU: 0x44F19, offset: 0x44F19, size: 0x8, addend: 0x0, symName: __ZNSt3__122__compressed_pair_elemINS_12basic_stringIcNS_11char_traitsIcEENS_9allocatorIcEEE5__repELi0ELb0EEC2B8ue170006ENS_18__default_init_tagE, symObjAddr: 0x3898, symBinAddr: 0x100006EF8, symSize: 0x14 }
  - { offsetInCU: 0x44F4C, offset: 0x44F4C, size: 0x8, addend: 0x0, symName: __Z8__istypeim, symObjAddr: 0x38AC, symBinAddr: 0x100006F0C, symSize: 0x8C }
  - { offsetInCU: 0x44F86, offset: 0x44F86, size: 0x8, addend: 0x0, symName: __Z7isasciii, symObjAddr: 0x3938, symBinAddr: 0x100006F98, symSize: 0x24 }
  - { offsetInCU: 0x44FB3, offset: 0x44FB3, size: 0x8, addend: 0x0, symName: __ZNSt3__112basic_stringIcNS_11char_traitsIcEENS_9allocatorIcEEE5beginB8ue170006Ev, symObjAddr: 0x395C, symBinAddr: 0x100006FBC, symSize: 0x4C }
  - { offsetInCU: 0x44FD9, offset: 0x44FD9, size: 0x8, addend: 0x0, symName: __ZNSt3__112basic_stringIcNS_11char_traitsIcEENS_9allocatorIcEEE3endB8ue170006Ev, symObjAddr: 0x39A8, symBinAddr: 0x100007008, symSize: 0x54 }
  - { offsetInCU: 0x44FFF, offset: 0x44FFF, size: 0x8, addend: 0x0, symName: __ZNKSt3__111__wrap_iterIPcEdeB8ue170006Ev, symObjAddr: 0x3A30, symBinAddr: 0x100007090, symSize: 0x18 }
  - { offsetInCU: 0x45025, offset: 0x45025, size: 0x8, addend: 0x0, symName: __ZNSt3__111__wrap_iterIPcEppB8ue170006Ev, symObjAddr: 0x3AA4, symBinAddr: 0x100007104, symSize: 0x20 }
  - { offsetInCU: 0x4504B, offset: 0x4504B, size: 0x8, addend: 0x0, symName: __ZNSt3__112basic_stringIcNS_11char_traitsIcEENS_9allocatorIcEEEaSB8ue170006EOS5_, symObjAddr: 0x3AC4, symBinAddr: 0x100007124, symSize: 0x34 }
  - { offsetInCU: 0x4508B, offset: 0x4508B, size: 0x8, addend: 0x0, symName: __ZNSt3__16vectorI5TokenNS_9allocatorIS1_EEE12emplace_backIJNS1_9TokenTypeERA8_KcRiEEERS1_DpOT_, symObjAddr: 0x3BA4, symBinAddr: 0x100007204, symSize: 0x8C }
  - { offsetInCU: 0x4510E, offset: 0x4510E, size: 0x8, addend: 0x0, symName: __ZNSt3__16vectorI5TokenNS_9allocatorIS1_EEE12emplace_backIJNS1_9TokenTypeERA6_KcRiEEERS1_DpOT_, symObjAddr: 0x3C30, symBinAddr: 0x100007290, symSize: 0x8C }
  - { offsetInCU: 0x45178, offset: 0x45178, size: 0x8, addend: 0x0, symName: __ZNSt3__16vectorI5TokenNS_9allocatorIS1_EEE12emplace_backIJNS1_9TokenTypeERNS_12basic_stringIcNS_11char_traitsIcEENS2_IcEEEERiEEERS1_DpOT_, symObjAddr: 0x3CBC, symBinAddr: 0x10000731C, symSize: 0x8C }
  - { offsetInCU: 0x451E2, offset: 0x451E2, size: 0x8, addend: 0x0, symName: __ZNSt3__112basic_stringIcNS_11char_traitsIcEENS_9allocatorIcEEE15__make_iteratorB8ue170006EPc, symObjAddr: 0x3D48, symBinAddr: 0x1000073A8, symSize: 0x30 }
  - { offsetInCU: 0x45217, offset: 0x45217, size: 0x8, addend: 0x0, symName: __ZNSt3__112basic_stringIcNS_11char_traitsIcEENS_9allocatorIcEEE13__get_pointerB8ue170006Ev, symObjAddr: 0x3D78, symBinAddr: 0x1000073D8, symSize: 0x54 }
  - { offsetInCU: 0x4523D, offset: 0x4523D, size: 0x8, addend: 0x0, symName: __ZNSt3__111__wrap_iterIPcEC1B8ue170006ES1_, symObjAddr: 0x3DCC, symBinAddr: 0x10000742C, symSize: 0x34 }
  - { offsetInCU: 0x45275, offset: 0x45275, size: 0x8, addend: 0x0, symName: __ZNSt3__111__wrap_iterIPcEC2B8ue170006ES1_, symObjAddr: 0x3E00, symBinAddr: 0x100007460, symSize: 0x20 }
  - { offsetInCU: 0x452AD, offset: 0x452AD, size: 0x8, addend: 0x0, symName: __ZNKSt3__112basic_stringIcNS_11char_traitsIcEENS_9allocatorIcEEE9__is_longB8ue170006Ev, symObjAddr: 0x3E20, symBinAddr: 0x100007480, symSize: 0x38 }
  - { offsetInCU: 0x452D3, offset: 0x452D3, size: 0x8, addend: 0x0, symName: __ZNSt3__112basic_stringIcNS_11char_traitsIcEENS_9allocatorIcEEE18__get_long_pointerB8ue170006Ev, symObjAddr: 0x3E58, symBinAddr: 0x1000074B8, symSize: 0x28 }
  - { offsetInCU: 0x452F9, offset: 0x452F9, size: 0x8, addend: 0x0, symName: __ZNSt3__112basic_stringIcNS_11char_traitsIcEENS_9allocatorIcEEE19__get_short_pointerB8ue170006Ev, symObjAddr: 0x3E80, symBinAddr: 0x1000074E0, symSize: 0x28 }
  - { offsetInCU: 0x4531F, offset: 0x4531F, size: 0x8, addend: 0x0, symName: __ZNKSt3__117__compressed_pairINS_12basic_stringIcNS_11char_traitsIcEENS_9allocatorIcEEE5__repES5_E5firstB8ue170006Ev, symObjAddr: 0x3EA8, symBinAddr: 0x100007508, symSize: 0x24 }
  - { offsetInCU: 0x45345, offset: 0x45345, size: 0x8, addend: 0x0, symName: __ZNKSt3__122__compressed_pair_elemINS_12basic_stringIcNS_11char_traitsIcEENS_9allocatorIcEEE5__repELi0ELb0EE5__getB8ue170006Ev, symObjAddr: 0x3ECC, symBinAddr: 0x10000752C, symSize: 0x14 }
  - { offsetInCU: 0x4536B, offset: 0x4536B, size: 0x8, addend: 0x0, symName: __ZNSt3__114pointer_traitsIPcE10pointer_toB8ue170006ERc, symObjAddr: 0x3EE0, symBinAddr: 0x100007540, symSize: 0x14 }
  - { offsetInCU: 0x4538E, offset: 0x4538E, size: 0x8, addend: 0x0, symName: __ZNKSt3__111__wrap_iterIPcE4baseB8ue170006Ev, symObjAddr: 0x3F3C, symBinAddr: 0x10000759C, symSize: 0x18 }
  - { offsetInCU: 0x453D7, offset: 0x453D7, size: 0x8, addend: 0x0, symName: __ZNKSt3__113basic_ostreamIcNS_11char_traitsIcEEE6sentrycvbB8ue170006Ev, symObjAddr: 0x4140, symBinAddr: 0x1000077A0, symSize: 0x1C }
  - { offsetInCU: 0x453FD, offset: 0x453FD, size: 0x8, addend: 0x0, symName: __ZNSt3__119ostreambuf_iteratorIcNS_11char_traitsIcEEEC1B8ue170006ERNS_13basic_ostreamIcS2_EE, symObjAddr: 0x439C, symBinAddr: 0x1000079FC, symSize: 0x34 }
  - { offsetInCU: 0x45435, offset: 0x45435, size: 0x8, addend: 0x0, symName: __ZNKSt3__18ios_base5flagsB8ue170006Ev, symObjAddr: 0x43D0, symBinAddr: 0x100007A30, symSize: 0x18 }
  - { offsetInCU: 0x4545D, offset: 0x4545D, size: 0x8, addend: 0x0, symName: __ZNKSt3__19basic_iosIcNS_11char_traitsIcEEE4fillB8ue170006Ev, symObjAddr: 0x43E8, symBinAddr: 0x100007A48, symSize: 0x64 }
  - { offsetInCU: 0x45485, offset: 0x45485, size: 0x8, addend: 0x0, symName: __ZNKSt3__119ostreambuf_iteratorIcNS_11char_traitsIcEEE6failedB8ue170006Ev, symObjAddr: 0x444C, symBinAddr: 0x100007AAC, symSize: 0x24 }
  - { offsetInCU: 0x454AB, offset: 0x454AB, size: 0x8, addend: 0x0, symName: __ZNSt3__19basic_iosIcNS_11char_traitsIcEEE8setstateB8ue170006Ej, symObjAddr: 0x4470, symBinAddr: 0x100007AD0, symSize: 0x2C }
  - { offsetInCU: 0x454E0, offset: 0x454E0, size: 0x8, addend: 0x0, symName: __ZNKSt3__18ios_base5widthB8ue170006Ev, symObjAddr: 0x449C, symBinAddr: 0x100007AFC, symSize: 0x18 }
  - { offsetInCU: 0x45508, offset: 0x45508, size: 0x8, addend: 0x0, symName: __ZNSt3__115basic_streambufIcNS_11char_traitsIcEEE5sputnB8ue170006EPKcl, symObjAddr: 0x44B4, symBinAddr: 0x100007B14, symSize: 0x3C }
  - { offsetInCU: 0x4554A, offset: 0x4554A, size: 0x8, addend: 0x0, symName: __ZNSt3__112basic_stringIcNS_11char_traitsIcEENS_9allocatorIcEEEC1B8ue170006Emc, symObjAddr: 0x44F0, symBinAddr: 0x100007B50, symSize: 0x3C }
  - { offsetInCU: 0x45592, offset: 0x45592, size: 0x8, addend: 0x0, symName: __ZNSt3__112basic_stringIcNS_11char_traitsIcEENS_9allocatorIcEEE4dataB8ue170006Ev, symObjAddr: 0x452C, symBinAddr: 0x100007B8C, symSize: 0x28 }
  - { offsetInCU: 0x455B8, offset: 0x455B8, size: 0x8, addend: 0x0, symName: __ZNSt3__18ios_base5widthB8ue170006El, symObjAddr: 0x4554, symBinAddr: 0x100007BB4, symSize: 0x2C }
  - { offsetInCU: 0x455FE, offset: 0x455FE, size: 0x8, addend: 0x0, symName: __ZNSt3__112basic_stringIcNS_11char_traitsIcEENS_9allocatorIcEEEC2B8ue170006Emc, symObjAddr: 0x4580, symBinAddr: 0x100007BE0, symSize: 0x4C }
  - { offsetInCU: 0x45646, offset: 0x45646, size: 0x8, addend: 0x0, symName: __ZNSt3__119ostreambuf_iteratorIcNS_11char_traitsIcEEEC2B8ue170006ERNS_13basic_ostreamIcS2_EE, symObjAddr: 0x45CC, symBinAddr: 0x100007C2C, symSize: 0x54 }
  - { offsetInCU: 0x4567E, offset: 0x4567E, size: 0x8, addend: 0x0, symName: __ZNKSt3__19basic_iosIcNS_11char_traitsIcEEE5rdbufB8ue170006Ev, symObjAddr: 0x4620, symBinAddr: 0x100007C80, symSize: 0x24 }
  - { offsetInCU: 0x456A6, offset: 0x456A6, size: 0x8, addend: 0x0, symName: __ZNKSt3__18ios_base5rdbufB8ue170006Ev, symObjAddr: 0x4644, symBinAddr: 0x100007CA4, symSize: 0x18 }
  - { offsetInCU: 0x456CC, offset: 0x456CC, size: 0x8, addend: 0x0, symName: __ZNSt3__111char_traitsIcE11eq_int_typeB8ue170006Eii, symObjAddr: 0x465C, symBinAddr: 0x100007CBC, symSize: 0x28 }
  - { offsetInCU: 0x456FF, offset: 0x456FF, size: 0x8, addend: 0x0, symName: __ZNSt3__111char_traitsIcE3eofB8ue170006Ev, symObjAddr: 0x4684, symBinAddr: 0x100007CE4, symSize: 0x8 }
  - { offsetInCU: 0x45713, offset: 0x45713, size: 0x8, addend: 0x0, symName: __ZNKSt3__19basic_iosIcNS_11char_traitsIcEEE5widenB8ue170006Ec, symObjAddr: 0x468C, symBinAddr: 0x100007CEC, symSize: 0x84 }
  - { offsetInCU: 0x45783, offset: 0x45783, size: 0x8, addend: 0x0, symName: __ZNKSt3__15ctypeIcE5widenB8ue170006Ec, symObjAddr: 0x473C, symBinAddr: 0x100007D9C, symSize: 0x38 }
  - { offsetInCU: 0x457B8, offset: 0x457B8, size: 0x8, addend: 0x0, symName: __ZNSt3__18ios_base8setstateB8ue170006Ej, symObjAddr: 0x4774, symBinAddr: 0x100007DD4, symSize: 0x34 }
  - { offsetInCU: 0x457EF, offset: 0x457EF, size: 0x8, addend: 0x0, symName: __ZNSt3__112basic_stringIcNS_11char_traitsIcEENS_9allocatorIcEEE13__move_assignB8ue170006ERS5_NS_17integral_constantIbLb1EEE, symObjAddr: 0x47A8, symBinAddr: 0x100007E08, symSize: 0xC8 }
  - { offsetInCU: 0x45832, offset: 0x45832, size: 0x8, addend: 0x0, symName: __ZNSt3__116allocator_traitsINS_9allocatorIcEEE10deallocateB8ue170006ERS2_Pcm, symObjAddr: 0x4870, symBinAddr: 0x100007ED0, symSize: 0x34 }
  - { offsetInCU: 0x45874, offset: 0x45874, size: 0x8, addend: 0x0, symName: __ZNSt3__112basic_stringIcNS_11char_traitsIcEENS_9allocatorIcEEE7__allocB8ue170006Ev, symObjAddr: 0x48A4, symBinAddr: 0x100007F04, symSize: 0x24 }
  - { offsetInCU: 0x4589A, offset: 0x4589A, size: 0x8, addend: 0x0, symName: __ZNKSt3__112basic_stringIcNS_11char_traitsIcEENS_9allocatorIcEEE14__get_long_capB8ue170006Ev, symObjAddr: 0x48C8, symBinAddr: 0x100007F28, symSize: 0x30 }
  - { offsetInCU: 0x458C0, offset: 0x458C0, size: 0x8, addend: 0x0, symName: __ZNSt3__112basic_stringIcNS_11char_traitsIcEENS_9allocatorIcEEE19__move_assign_allocB8ue170006ERS5_, symObjAddr: 0x48F8, symBinAddr: 0x100007F58, symSize: 0x2C }
  - { offsetInCU: 0x458F5, offset: 0x458F5, size: 0x8, addend: 0x0, symName: __ZNSt3__112basic_stringIcNS_11char_traitsIcEENS_9allocatorIcEEE16__set_short_sizeB8ue170006Em, symObjAddr: 0x4924, symBinAddr: 0x100007F84, symSize: 0x78 }
  - { offsetInCU: 0x4592A, offset: 0x4592A, size: 0x8, addend: 0x0, symName: __ZNSt3__111char_traitsIcE6assignB8ue170006ERcRKc, symObjAddr: 0x499C, symBinAddr: 0x100007FFC, symSize: 0x24 }
  - { offsetInCU: 0x4595B, offset: 0x4595B, size: 0x8, addend: 0x0, symName: __ZNSt3__19allocatorIcE10deallocateB8ue170006EPcm, symObjAddr: 0x49C0, symBinAddr: 0x100008020, symSize: 0x40 }
  - { offsetInCU: 0x4599D, offset: 0x4599D, size: 0x8, addend: 0x0, symName: __ZNSt3__117__compressed_pairINS_12basic_stringIcNS_11char_traitsIcEENS_9allocatorIcEEE5__repES5_E6secondB8ue170006Ev, symObjAddr: 0x4B28, symBinAddr: 0x100008188, symSize: 0x24 }
  - { offsetInCU: 0x459C3, offset: 0x459C3, size: 0x8, addend: 0x0, symName: __ZNSt3__122__compressed_pair_elemINS_9allocatorIcEELi1ELb1EE5__getB8ue170006Ev, symObjAddr: 0x4B4C, symBinAddr: 0x1000081AC, symSize: 0x14 }
  - { offsetInCU: 0x459E9, offset: 0x459E9, size: 0x8, addend: 0x0, symName: __ZNSt3__112basic_stringIcNS_11char_traitsIcEENS_9allocatorIcEEE19__move_assign_allocB8ue170006ERS5_NS_17integral_constantIbLb1EEE, symObjAddr: 0x4B60, symBinAddr: 0x1000081C0, symSize: 0x38 }
  - { offsetInCU: 0x45A2A, offset: 0x45A2A, size: 0x8, addend: 0x0, symName: __ZNSt3__111char_traitsIcE6lengthB8ue170006EPKc, symObjAddr: 0x4B98, symBinAddr: 0x1000081F8, symSize: 0x34 }
  - { offsetInCU: 0x45A4D, offset: 0x45A4D, size: 0x8, addend: 0x0, symName: __ZNSt3__16vectorI5TokenNS_9allocatorIS1_EEE9__end_capB8ue170006Ev, symObjAddr: 0x4BF0, symBinAddr: 0x100008250, symSize: 0x28 }
  - { offsetInCU: 0x45A73, offset: 0x45A73, size: 0x8, addend: 0x0, symName: __ZNSt3__16vectorI5TokenNS_9allocatorIS1_EEE22__construct_one_at_endB8ue170006IJNS1_9TokenTypeERA8_KcRiEEEvDpOT_, symObjAddr: 0x4C18, symBinAddr: 0x100008278, symSize: 0xA0 }
  - { offsetInCU: 0x45AEA, offset: 0x45AEA, size: 0x8, addend: 0x0, symName: __ZNSt3__16vectorI5TokenNS_9allocatorIS1_EEE24__emplace_back_slow_pathIJNS1_9TokenTypeERA8_KcRiEEEvDpOT_, symObjAddr: 0x4CB8, symBinAddr: 0x100008318, symSize: 0xE8 }
  - { offsetInCU: 0x45B72, offset: 0x45B72, size: 0x8, addend: 0x0, symName: __ZNSt3__16vectorI5TokenNS_9allocatorIS1_EEE4backB8ue170006Ev, symObjAddr: 0x4DA0, symBinAddr: 0x100008400, symSize: 0x1C }
  - { offsetInCU: 0x45B98, offset: 0x45B98, size: 0x8, addend: 0x0, symName: __ZNSt3__117__compressed_pairIP5TokenNS_9allocatorIS1_EEE5firstB8ue170006Ev, symObjAddr: 0x4DBC, symBinAddr: 0x10000841C, symSize: 0x24 }
  - { offsetInCU: 0x45BBE, offset: 0x45BBE, size: 0x8, addend: 0x0, symName: __ZNSt3__122__compressed_pair_elemIP5TokenLi0ELb0EE5__getB8ue170006Ev, symObjAddr: 0x4DE0, symBinAddr: 0x100008440, symSize: 0x14 }
  - { offsetInCU: 0x45C00, offset: 0x45C00, size: 0x8, addend: 0x0, symName: __ZNSt3__16vectorI5TokenNS_9allocatorIS1_EEE21_ConstructTransactionC1B8ue170006ERS4_m, symObjAddr: 0x4DF4, symBinAddr: 0x100008454, symSize: 0x3C }
  - { offsetInCU: 0x45C48, offset: 0x45C48, size: 0x8, addend: 0x0, symName: __ZNSt3__116allocator_traitsINS_9allocatorI5TokenEEE9constructB8ue170006IS2_JNS2_9TokenTypeERA8_KcRiEvEEvRS3_PT_DpOT0_, symObjAddr: 0x4E30, symBinAddr: 0x100008490, symSize: 0x44 }
  - { offsetInCU: 0x45CC7, offset: 0x45CC7, size: 0x8, addend: 0x0, symName: __ZNSt3__16vectorI5TokenNS_9allocatorIS1_EEE7__allocB8ue170006Ev, symObjAddr: 0x4E74, symBinAddr: 0x1000084D4, symSize: 0x28 }
  - { offsetInCU: 0x45CED, offset: 0x45CED, size: 0x8, addend: 0x0, symName: __ZNSt3__16vectorI5TokenNS_9allocatorIS1_EEE21_ConstructTransactionD1B8ue170006Ev, symObjAddr: 0x4EB0, symBinAddr: 0x100008510, symSize: 0x2C }
  - { offsetInCU: 0x45D17, offset: 0x45D17, size: 0x8, addend: 0x0, symName: __ZNSt3__16vectorI5TokenNS_9allocatorIS1_EEE21_ConstructTransactionC2B8ue170006ERS4_m, symObjAddr: 0x4EDC, symBinAddr: 0x10000853C, symSize: 0x4C }
  - { offsetInCU: 0x45D5F, offset: 0x45D5F, size: 0x8, addend: 0x0, symName: __ZNSt3__19allocatorI5TokenE9constructB8ue170006IS1_JNS1_9TokenTypeERA8_KcRiEEEvPT_DpOT0_, symObjAddr: 0x4F28, symBinAddr: 0x100008588, symSize: 0x94 }
  - { offsetInCU: 0x45DDB, offset: 0x45DDB, size: 0x8, addend: 0x0, symName: __ZN5TokenC1ENS_9TokenTypeENSt3__112basic_stringIcNS1_11char_traitsIcEENS1_9allocatorIcEEEEi, symObjAddr: 0x4FBC, symBinAddr: 0x10000861C, symSize: 0x44 }
  - { offsetInCU: 0x45E30, offset: 0x45E30, size: 0x8, addend: 0x0, symName: __ZN5TokenC2ENS_9TokenTypeENSt3__112basic_stringIcNS1_11char_traitsIcEENS1_9allocatorIcEEEEi, symObjAddr: 0x5000, symBinAddr: 0x100008660, symSize: 0x4E0 }
  - { offsetInCU: 0x45E89, offset: 0x45E89, size: 0x8, addend: 0x0, symName: __ZNSt3__14pairIKN5Token9TokenTypeENS_12basic_stringIcNS_11char_traitsIcEENS_9allocatorIcEEEEEC1B8ue170006IS2_RA6_KcLPv0EEEOT_OT0_, symObjAddr: 0x54E0, symBinAddr: 0x100008B40, symSize: 0x3C }
  - { offsetInCU: 0x45F00, offset: 0x45F00, size: 0x8, addend: 0x0, symName: __ZNSt3__14pairIKN5Token9TokenTypeENS_12basic_stringIcNS_11char_traitsIcEENS_9allocatorIcEEEEEC1B8ue170006IS2_RA7_KcLPv0EEEOT_OT0_, symObjAddr: 0x551C, symBinAddr: 0x100008B7C, symSize: 0x3C }
  - { offsetInCU: 0x45F77, offset: 0x45F77, size: 0x8, addend: 0x0, symName: __ZNSt3__14pairIKN5Token9TokenTypeENS_12basic_stringIcNS_11char_traitsIcEENS_9allocatorIcEEEEEC1B8ue170006IS2_RA11_KcLPv0EEEOT_OT0_, symObjAddr: 0x5558, symBinAddr: 0x100008BB8, symSize: 0x3C }
  - { offsetInCU: 0x45FEE, offset: 0x45FEE, size: 0x8, addend: 0x0, symName: __ZNSt3__14pairIKN5Token9TokenTypeENS_12basic_stringIcNS_11char_traitsIcEENS_9allocatorIcEEEEEC1B8ue170006IS2_RA12_KcLPv0EEEOT_OT0_, symObjAddr: 0x5594, symBinAddr: 0x100008BF4, symSize: 0x3C }
  - { offsetInCU: 0x46065, offset: 0x46065, size: 0x8, addend: 0x0, symName: __ZNSt3__14pairIKN5Token9TokenTypeENS_12basic_stringIcNS_11char_traitsIcEENS_9allocatorIcEEEEEC1B8ue170006IS2_RA9_KcLPv0EEEOT_OT0_, symObjAddr: 0x55D0, symBinAddr: 0x100008C30, symSize: 0x3C }
  - { offsetInCU: 0x460DC, offset: 0x460DC, size: 0x8, addend: 0x0, symName: __ZNSt3__14pairIKN5Token9TokenTypeENS_12basic_stringIcNS_11char_traitsIcEENS_9allocatorIcEEEEEC1B8ue170006IS2_RA4_KcLPv0EEEOT_OT0_, symObjAddr: 0x560C, symBinAddr: 0x100008C6C, symSize: 0x3C }
  - { offsetInCU: 0x4613A, offset: 0x4613A, size: 0x8, addend: 0x0, symName: __ZNSt3__14pairIKN5Token9TokenTypeENS_12basic_stringIcNS_11char_traitsIcEENS_9allocatorIcEEEEEC1B8ue170006IS2_RA8_KcLPv0EEEOT_OT0_, symObjAddr: 0x5648, symBinAddr: 0x100008CA8, symSize: 0x3C }
  - { offsetInCU: 0x461B1, offset: 0x461B1, size: 0x8, addend: 0x0, symName: __ZNSt3__14pairIKN5Token9TokenTypeENS_12basic_stringIcNS_11char_traitsIcEENS_9allocatorIcEEEEEC1B8ue170006IS2_RA3_KcLPv0EEEOT_OT0_, symObjAddr: 0x5684, symBinAddr: 0x100008CE4, symSize: 0x3C }
  - { offsetInCU: 0x46228, offset: 0x46228, size: 0x8, addend: 0x0, symName: __ZNSt3__14pairIKN5Token9TokenTypeENS_12basic_stringIcNS_11char_traitsIcEENS_9allocatorIcEEEEEC1B8ue170006IS2_RA10_KcLPv0EEEOT_OT0_, symObjAddr: 0x56C0, symBinAddr: 0x100008D20, symSize: 0x3C }
  - { offsetInCU: 0x46286, offset: 0x46286, size: 0x8, addend: 0x0, symName: __ZNSt3__14pairIKN5Token9TokenTypeENS_12basic_stringIcNS_11char_traitsIcEENS_9allocatorIcEEEEED1Ev, symObjAddr: 0x56FC, symBinAddr: 0x100008D5C, symSize: 0x2C }
  - { offsetInCU: 0x462B2, offset: 0x462B2, size: 0x8, addend: 0x0, symName: __ZNSt3__113unordered_mapIN5Token9TokenTypeENS_12basic_stringIcNS_11char_traitsIcEENS_9allocatorIcEEEENS_4hashIS2_EENS_8equal_toIS2_EENS6_INS_4pairIKS2_S8_EEEEEC1ESt16initializer_listISF_E, symObjAddr: 0x5728, symBinAddr: 0x100008D88, symSize: 0x3C }
  - { offsetInCU: 0x462ED, offset: 0x462ED, size: 0x8, addend: 0x0, symName: __ZNSt3__113unordered_mapIN5Token9TokenTypeENS_12basic_stringIcNS_11char_traitsIcEENS_9allocatorIcEEEENS_4hashIS2_EENS_8equal_toIS2_EENS6_INS_4pairIKS2_S8_EEEEED1B8ue170006Ev, symObjAddr: 0x5764, symBinAddr: 0x100008DC4, symSize: 0x2C }
  - { offsetInCU: 0x46317, offset: 0x46317, size: 0x8, addend: 0x0, symName: __ZNSt3__14pairIKN5Token9TokenTypeENS_12basic_stringIcNS_11char_traitsIcEENS_9allocatorIcEEEEEC2B8ue170006IS2_RA6_KcLPv0EEEOT_OT0_, symObjAddr: 0x5790, symBinAddr: 0x100008DF0, symSize: 0x48 }
  - { offsetInCU: 0x46375, offset: 0x46375, size: 0x8, addend: 0x0, symName: __ZNSt3__14pairIKN5Token9TokenTypeENS_12basic_stringIcNS_11char_traitsIcEENS_9allocatorIcEEEEEC2B8ue170006IS2_RA7_KcLPv0EEEOT_OT0_, symObjAddr: 0x57D8, symBinAddr: 0x100008E38, symSize: 0x48 }
  - { offsetInCU: 0x463D3, offset: 0x463D3, size: 0x8, addend: 0x0, symName: __ZNSt3__14pairIKN5Token9TokenTypeENS_12basic_stringIcNS_11char_traitsIcEENS_9allocatorIcEEEEEC2B8ue170006IS2_RA11_KcLPv0EEEOT_OT0_, symObjAddr: 0x5820, symBinAddr: 0x100008E80, symSize: 0x48 }
  - { offsetInCU: 0x46431, offset: 0x46431, size: 0x8, addend: 0x0, symName: __ZNSt3__14pairIKN5Token9TokenTypeENS_12basic_stringIcNS_11char_traitsIcEENS_9allocatorIcEEEEEC2B8ue170006IS2_RA12_KcLPv0EEEOT_OT0_, symObjAddr: 0x5868, symBinAddr: 0x100008EC8, symSize: 0x48 }
  - { offsetInCU: 0x4648F, offset: 0x4648F, size: 0x8, addend: 0x0, symName: __ZNSt3__14pairIKN5Token9TokenTypeENS_12basic_stringIcNS_11char_traitsIcEENS_9allocatorIcEEEEEC2B8ue170006IS2_RA9_KcLPv0EEEOT_OT0_, symObjAddr: 0x58B0, symBinAddr: 0x100008F10, symSize: 0x48 }
  - { offsetInCU: 0x464ED, offset: 0x464ED, size: 0x8, addend: 0x0, symName: __ZNSt3__14pairIKN5Token9TokenTypeENS_12basic_stringIcNS_11char_traitsIcEENS_9allocatorIcEEEEEC2B8ue170006IS2_RA4_KcLPv0EEEOT_OT0_, symObjAddr: 0x58F8, symBinAddr: 0x100008F58, symSize: 0x48 }
  - { offsetInCU: 0x4654B, offset: 0x4654B, size: 0x8, addend: 0x0, symName: __ZNSt3__14pairIKN5Token9TokenTypeENS_12basic_stringIcNS_11char_traitsIcEENS_9allocatorIcEEEEEC2B8ue170006IS2_RA8_KcLPv0EEEOT_OT0_, symObjAddr: 0x5940, symBinAddr: 0x100008FA0, symSize: 0x48 }
  - { offsetInCU: 0x465A9, offset: 0x465A9, size: 0x8, addend: 0x0, symName: __ZNSt3__14pairIKN5Token9TokenTypeENS_12basic_stringIcNS_11char_traitsIcEENS_9allocatorIcEEEEEC2B8ue170006IS2_RA3_KcLPv0EEEOT_OT0_, symObjAddr: 0x5988, symBinAddr: 0x100008FE8, symSize: 0x48 }
  - { offsetInCU: 0x46607, offset: 0x46607, size: 0x8, addend: 0x0, symName: __ZNSt3__14pairIKN5Token9TokenTypeENS_12basic_stringIcNS_11char_traitsIcEENS_9allocatorIcEEEEEC2B8ue170006IS2_RA10_KcLPv0EEEOT_OT0_, symObjAddr: 0x59D0, symBinAddr: 0x100009030, symSize: 0x48 }
  - { offsetInCU: 0x46665, offset: 0x46665, size: 0x8, addend: 0x0, symName: __ZNSt3__14pairIKN5Token9TokenTypeENS_12basic_stringIcNS_11char_traitsIcEENS_9allocatorIcEEEEED2Ev, symObjAddr: 0x5A18, symBinAddr: 0x100009078, symSize: 0x30 }
  - { offsetInCU: 0x46691, offset: 0x46691, size: 0x8, addend: 0x0, symName: __ZNSt3__113unordered_mapIN5Token9TokenTypeENS_12basic_stringIcNS_11char_traitsIcEENS_9allocatorIcEEEENS_4hashIS2_EENS_8equal_toIS2_EENS6_INS_4pairIKS2_S8_EEEEEC2ESt16initializer_listISF_E, symObjAddr: 0x5A48, symBinAddr: 0x1000090A8, symSize: 0x8C }
  - { offsetInCU: 0x466CC, offset: 0x466CC, size: 0x8, addend: 0x0, symName: __ZNSt3__112__hash_tableINS_17__hash_value_typeIN5Token9TokenTypeENS_12basic_stringIcNS_11char_traitsIcEENS_9allocatorIcEEEEEENS_22__unordered_map_hasherIS3_SA_NS_4hashIS3_EENS_8equal_toIS3_EELb1EEENS_21__unordered_map_equalIS3_SA_SF_SD_Lb1EEENS7_ISA_EEEC1Ev, symObjAddr: 0x5AD4, symBinAddr: 0x100009134, symSize: 0x2C }
  - { offsetInCU: 0x466F8, offset: 0x466F8, size: 0x8, addend: 0x0, symName: __ZNSt3__113unordered_mapIN5Token9TokenTypeENS_12basic_stringIcNS_11char_traitsIcEENS_9allocatorIcEEEENS_4hashIS2_EENS_8equal_toIS2_EENS6_INS_4pairIKS2_S8_EEEEE6insertIPKSF_EEvT_SL_, symObjAddr: 0x5B00, symBinAddr: 0x100009160, symSize: 0x70 }
  - { offsetInCU: 0x46747, offset: 0x46747, size: 0x8, addend: 0x0, symName: __ZNKSt16initializer_listINSt3__14pairIKN5Token9TokenTypeENS0_12basic_stringIcNS0_11char_traitsIcEENS0_9allocatorIcEEEEEEE5beginB8ue170006Ev, symObjAddr: 0x5B70, symBinAddr: 0x1000091D0, symSize: 0x18 }
  - { offsetInCU: 0x4676D, offset: 0x4676D, size: 0x8, addend: 0x0, symName: __ZNKSt16initializer_listINSt3__14pairIKN5Token9TokenTypeENS0_12basic_stringIcNS0_11char_traitsIcEENS0_9allocatorIcEEEEEEE3endB8ue170006Ev, symObjAddr: 0x5B88, symBinAddr: 0x1000091E8, symSize: 0x20 }
  - { offsetInCU: 0x46793, offset: 0x46793, size: 0x8, addend: 0x0, symName: __ZNSt3__112__hash_tableINS_17__hash_value_typeIN5Token9TokenTypeENS_12basic_stringIcNS_11char_traitsIcEENS_9allocatorIcEEEEEENS_22__unordered_map_hasherIS3_SA_NS_4hashIS3_EENS_8equal_toIS3_EELb1EEENS_21__unordered_map_equalIS3_SA_SF_SD_Lb1EEENS7_ISA_EEED1Ev, symObjAddr: 0x5BA8, symBinAddr: 0x100009208, symSize: 0x2C }
  - { offsetInCU: 0x467BF, offset: 0x467BF, size: 0x8, addend: 0x0, symName: __ZNSt3__112__hash_tableINS_17__hash_value_typeIN5Token9TokenTypeENS_12basic_stringIcNS_11char_traitsIcEENS_9allocatorIcEEEEEENS_22__unordered_map_hasherIS3_SA_NS_4hashIS3_EENS_8equal_toIS3_EELb1EEENS_21__unordered_map_equalIS3_SA_SF_SD_Lb1EEENS7_ISA_EEEC2Ev, symObjAddr: 0x5BD4, symBinAddr: 0x100009234, symSize: 0x7C }
  - { offsetInCU: 0x467EB, offset: 0x467EB, size: 0x8, addend: 0x0, symName: __ZNSt3__110unique_ptrIA_PNS_16__hash_node_baseIPNS_11__hash_nodeINS_17__hash_value_typeIN5Token9TokenTypeENS_12basic_stringIcNS_11char_traitsIcEENS_9allocatorIcEEEEEEPvEEEENS_25__bucket_list_deallocatorINS9_ISH_EEEEEC1B8ue170006ILb1EvEEv, symObjAddr: 0x5C50, symBinAddr: 0x1000092B0, symSize: 0x2C }
  - { offsetInCU: 0x46820, offset: 0x46820, size: 0x8, addend: 0x0, symName: __ZNSt3__117__compressed_pairINS_16__hash_node_baseIPNS_11__hash_nodeINS_17__hash_value_typeIN5Token9TokenTypeENS_12basic_stringIcNS_11char_traitsIcEENS_9allocatorIcEEEEEEPvEEEENS9_ISE_EEEC1B8ue170006ILb1EvEEv, symObjAddr: 0x5C7C, symBinAddr: 0x1000092DC, symSize: 0x2C }
  - { offsetInCU: 0x46855, offset: 0x46855, size: 0x8, addend: 0x0, symName: __ZNSt3__117__compressed_pairImNS_22__unordered_map_hasherIN5Token9TokenTypeENS_17__hash_value_typeIS3_NS_12basic_stringIcNS_11char_traitsIcEENS_9allocatorIcEEEEEENS_4hashIS3_EENS_8equal_toIS3_EELb1EEEEC1B8ue170006IiNS_18__default_init_tagEEEOT_OT0_, symObjAddr: 0x5CA8, symBinAddr: 0x100009308, symSize: 0x3C }
  - { offsetInCU: 0x468B3, offset: 0x468B3, size: 0x8, addend: 0x0, symName: __ZNSt3__117__compressed_pairIfNS_21__unordered_map_equalIN5Token9TokenTypeENS_17__hash_value_typeIS3_NS_12basic_stringIcNS_11char_traitsIcEENS_9allocatorIcEEEEEENS_8equal_toIS3_EENS_4hashIS3_EELb1EEEEC1B8ue170006IfNS_18__default_init_tagEEEOT_OT0_, symObjAddr: 0x5CE4, symBinAddr: 0x100009344, symSize: 0x3C }
  - { offsetInCU: 0x4690B, offset: 0x4690B, size: 0x8, addend: 0x0, symName: __ZNSt3__110unique_ptrIA_PNS_16__hash_node_baseIPNS_11__hash_nodeINS_17__hash_value_typeIN5Token9TokenTypeENS_12basic_stringIcNS_11char_traitsIcEENS_9allocatorIcEEEEEEPvEEEENS_25__bucket_list_deallocatorINS9_ISH_EEEEEC2B8ue170006ILb1EvEEv, symObjAddr: 0x5D20, symBinAddr: 0x100009380, symSize: 0x3C }
  - { offsetInCU: 0x46946, offset: 0x46946, size: 0x8, addend: 0x0, symName: __ZNSt3__117__compressed_pairIPPNS_16__hash_node_baseIPNS_11__hash_nodeINS_17__hash_value_typeIN5Token9TokenTypeENS_12basic_stringIcNS_11char_traitsIcEENS_9allocatorIcEEEEEEPvEEEENS_25__bucket_list_deallocatorINS9_ISH_EEEEEC1B8ue170006INS_16__value_init_tagESO_EEOT_OT0_, symObjAddr: 0x5D5C, symBinAddr: 0x1000093BC, symSize: 0x3C }
  - { offsetInCU: 0x4699E, offset: 0x4699E, size: 0x8, addend: 0x0, symName: __ZNSt3__117__compressed_pairIPPNS_16__hash_node_baseIPNS_11__hash_nodeINS_17__hash_value_typeIN5Token9TokenTypeENS_12basic_stringIcNS_11char_traitsIcEENS_9allocatorIcEEEEEEPvEEEENS_25__bucket_list_deallocatorINS9_ISH_EEEEEC2B8ue170006INS_16__value_init_tagESO_EEOT_OT0_, symObjAddr: 0x5D98, symBinAddr: 0x1000093F8, symSize: 0x40 }
  - { offsetInCU: 0x469F6, offset: 0x469F6, size: 0x8, addend: 0x0, symName: __ZNSt3__122__compressed_pair_elemIPPNS_16__hash_node_baseIPNS_11__hash_nodeINS_17__hash_value_typeIN5Token9TokenTypeENS_12basic_stringIcNS_11char_traitsIcEENS_9allocatorIcEEEEEEPvEEEELi0ELb0EEC2B8ue170006ENS_16__value_init_tagE, symObjAddr: 0x5DD8, symBinAddr: 0x100009438, symSize: 0x18 }
  - { offsetInCU: 0x46A2A, offset: 0x46A2A, size: 0x8, addend: 0x0, symName: __ZNSt3__122__compressed_pair_elemINS_25__bucket_list_deallocatorINS_9allocatorIPNS_16__hash_node_baseIPNS_11__hash_nodeINS_17__hash_value_typeIN5Token9TokenTypeENS_12basic_stringIcNS_11char_traitsIcEENS2_IcEEEEEEPvEEEEEEEELi1ELb0EEC2B8ue170006ENS_16__value_init_tagE, symObjAddr: 0x5DF0, symBinAddr: 0x100009450, symSize: 0x2C }
  - { offsetInCU: 0x46A5E, offset: 0x46A5E, size: 0x8, addend: 0x0, symName: __ZNSt3__125__bucket_list_deallocatorINS_9allocatorIPNS_16__hash_node_baseIPNS_11__hash_nodeINS_17__hash_value_typeIN5Token9TokenTypeENS_12basic_stringIcNS_11char_traitsIcEENS1_IcEEEEEEPvEEEEEEEC1B8ue170006Ev, symObjAddr: 0x5E1C, symBinAddr: 0x10000947C, symSize: 0x2C }
  - { offsetInCU: 0x46A88, offset: 0x46A88, size: 0x8, addend: 0x0, symName: __ZNSt3__125__bucket_list_deallocatorINS_9allocatorIPNS_16__hash_node_baseIPNS_11__hash_nodeINS_17__hash_value_typeIN5Token9TokenTypeENS_12basic_stringIcNS_11char_traitsIcEENS1_IcEEEEEEPvEEEEEEEC2B8ue170006Ev, symObjAddr: 0x5E48, symBinAddr: 0x1000094A8, symSize: 0x40 }
  - { offsetInCU: 0x46AB2, offset: 0x46AB2, size: 0x8, addend: 0x0, symName: __ZNSt3__117__compressed_pairImNS_9allocatorIPNS_16__hash_node_baseIPNS_11__hash_nodeINS_17__hash_value_typeIN5Token9TokenTypeENS_12basic_stringIcNS_11char_traitsIcEENS1_IcEEEEEEPvEEEEEEEC1B8ue170006IiNS_18__default_init_tagEEEOT_OT0_, symObjAddr: 0x5E88, symBinAddr: 0x1000094E8, symSize: 0x3C }
  - { offsetInCU: 0x46B0A, offset: 0x46B0A, size: 0x8, addend: 0x0, symName: __ZNSt3__117__compressed_pairImNS_9allocatorIPNS_16__hash_node_baseIPNS_11__hash_nodeINS_17__hash_value_typeIN5Token9TokenTypeENS_12basic_stringIcNS_11char_traitsIcEENS1_IcEEEEEEPvEEEEEEEC2B8ue170006IiNS_18__default_init_tagEEEOT_OT0_, symObjAddr: 0x5EC4, symBinAddr: 0x100009524, symSize: 0x40 }
  - { offsetInCU: 0x46B62, offset: 0x46B62, size: 0x8, addend: 0x0, symName: __ZNSt3__122__compressed_pair_elemINS_9allocatorIPNS_16__hash_node_baseIPNS_11__hash_nodeINS_17__hash_value_typeIN5Token9TokenTypeENS_12basic_stringIcNS_11char_traitsIcEENS1_IcEEEEEEPvEEEEEELi1ELb1EEC2B8ue170006ENS_18__default_init_tagE, symObjAddr: 0x5F04, symBinAddr: 0x100009564, symSize: 0x2C }
  - { offsetInCU: 0x46B96, offset: 0x46B96, size: 0x8, addend: 0x0, symName: __ZNSt3__19allocatorIPNS_16__hash_node_baseIPNS_11__hash_nodeINS_17__hash_value_typeIN5Token9TokenTypeENS_12basic_stringIcNS_11char_traitsIcEENS0_IcEEEEEEPvEEEEEC2B8ue170006Ev, symObjAddr: 0x5F30, symBinAddr: 0x100009590, symSize: 0x2C }
  - { offsetInCU: 0x46BC0, offset: 0x46BC0, size: 0x8, addend: 0x0, symName: __ZNSt3__116__non_trivial_ifILb1ENS_9allocatorIPNS_16__hash_node_baseIPNS_11__hash_nodeINS_17__hash_value_typeIN5Token9TokenTypeENS_12basic_stringIcNS_11char_traitsIcEENS1_IcEEEEEEPvEEEEEEEC2B8ue170006Ev, symObjAddr: 0x5F5C, symBinAddr: 0x1000095BC, symSize: 0x14 }
  - { offsetInCU: 0x46BEA, offset: 0x46BEA, size: 0x8, addend: 0x0, symName: __ZNSt3__117__compressed_pairINS_16__hash_node_baseIPNS_11__hash_nodeINS_17__hash_value_typeIN5Token9TokenTypeENS_12basic_stringIcNS_11char_traitsIcEENS_9allocatorIcEEEEEEPvEEEENS9_ISE_EEEC2B8ue170006ILb1EvEEv, symObjAddr: 0x5F70, symBinAddr: 0x1000095D0, symSize: 0x34 }
  - { offsetInCU: 0x46C1F, offset: 0x46C1F, size: 0x8, addend: 0x0, symName: __ZNSt3__122__compressed_pair_elemINS_16__hash_node_baseIPNS_11__hash_nodeINS_17__hash_value_typeIN5Token9TokenTypeENS_12basic_stringIcNS_11char_traitsIcEENS_9allocatorIcEEEEEEPvEEEELi0ELb0EEC2B8ue170006ENS_16__value_init_tagE, symObjAddr: 0x5FA4, symBinAddr: 0x100009604, symSize: 0x2C }
  - { offsetInCU: 0x46C53, offset: 0x46C53, size: 0x8, addend: 0x0, symName: __ZNSt3__122__compressed_pair_elemINS_9allocatorINS_11__hash_nodeINS_17__hash_value_typeIN5Token9TokenTypeENS_12basic_stringIcNS_11char_traitsIcEENS1_IcEEEEEEPvEEEELi1ELb1EEC2B8ue170006ENS_16__value_init_tagE, symObjAddr: 0x5FD0, symBinAddr: 0x100009630, symSize: 0x2C }
  - { offsetInCU: 0x46C87, offset: 0x46C87, size: 0x8, addend: 0x0, symName: __ZNSt3__116__hash_node_baseIPNS_11__hash_nodeINS_17__hash_value_typeIN5Token9TokenTypeENS_12basic_stringIcNS_11char_traitsIcEENS_9allocatorIcEEEEEEPvEEEC1B8ue170006Ev, symObjAddr: 0x5FFC, symBinAddr: 0x10000965C, symSize: 0x2C }
  - { offsetInCU: 0x46CB1, offset: 0x46CB1, size: 0x8, addend: 0x0, symName: __ZNSt3__116__hash_node_baseIPNS_11__hash_nodeINS_17__hash_value_typeIN5Token9TokenTypeENS_12basic_stringIcNS_11char_traitsIcEENS_9allocatorIcEEEEEEPvEEEC2B8ue170006Ev, symObjAddr: 0x6028, symBinAddr: 0x100009688, symSize: 0x18 }
  - { offsetInCU: 0x46CDB, offset: 0x46CDB, size: 0x8, addend: 0x0, symName: __ZNSt3__19allocatorINS_11__hash_nodeINS_17__hash_value_typeIN5Token9TokenTypeENS_12basic_stringIcNS_11char_traitsIcEENS0_IcEEEEEEPvEEEC2B8ue170006Ev, symObjAddr: 0x6040, symBinAddr: 0x1000096A0, symSize: 0x2C }
  - { offsetInCU: 0x46D05, offset: 0x46D05, size: 0x8, addend: 0x0, symName: __ZNSt3__116__non_trivial_ifILb1ENS_9allocatorINS_11__hash_nodeINS_17__hash_value_typeIN5Token9TokenTypeENS_12basic_stringIcNS_11char_traitsIcEENS1_IcEEEEEEPvEEEEEC2B8ue170006Ev, symObjAddr: 0x606C, symBinAddr: 0x1000096CC, symSize: 0x14 }
  - { offsetInCU: 0x46D2F, offset: 0x46D2F, size: 0x8, addend: 0x0, symName: __ZNSt3__117__compressed_pairImNS_22__unordered_map_hasherIN5Token9TokenTypeENS_17__hash_value_typeIS3_NS_12basic_stringIcNS_11char_traitsIcEENS_9allocatorIcEEEEEENS_4hashIS3_EENS_8equal_toIS3_EELb1EEEEC2B8ue170006IiNS_18__default_init_tagEEEOT_OT0_, symObjAddr: 0x6080, symBinAddr: 0x1000096E0, symSize: 0x40 }
  - { offsetInCU: 0x46D87, offset: 0x46D87, size: 0x8, addend: 0x0, symName: __ZNSt3__122__compressed_pair_elemINS_22__unordered_map_hasherIN5Token9TokenTypeENS_17__hash_value_typeIS3_NS_12basic_stringIcNS_11char_traitsIcEENS_9allocatorIcEEEEEENS_4hashIS3_EENS_8equal_toIS3_EELb1EEELi1ELb1EEC2B8ue170006ENS_18__default_init_tagE, symObjAddr: 0x60C0, symBinAddr: 0x100009720, symSize: 0x2C }
  - { offsetInCU: 0x46DBB, offset: 0x46DBB, size: 0x8, addend: 0x0, symName: __ZNSt3__122__unordered_map_hasherIN5Token9TokenTypeENS_17__hash_value_typeIS2_NS_12basic_stringIcNS_11char_traitsIcEENS_9allocatorIcEEEEEENS_4hashIS2_EENS_8equal_toIS2_EELb1EEC2B8ue170006Ev, symObjAddr: 0x60EC, symBinAddr: 0x10000974C, symSize: 0x14 }
  - { offsetInCU: 0x46DE5, offset: 0x46DE5, size: 0x8, addend: 0x0, symName: __ZNSt3__117__compressed_pairIfNS_21__unordered_map_equalIN5Token9TokenTypeENS_17__hash_value_typeIS3_NS_12basic_stringIcNS_11char_traitsIcEENS_9allocatorIcEEEEEENS_8equal_toIS3_EENS_4hashIS3_EELb1EEEEC2B8ue170006IfNS_18__default_init_tagEEEOT_OT0_, symObjAddr: 0x6100, symBinAddr: 0x100009760, symSize: 0x40 }
  - { offsetInCU: 0x46E3D, offset: 0x46E3D, size: 0x8, addend: 0x0, symName: __ZNSt3__122__compressed_pair_elemIfLi0ELb0EEC2B8ue170006IfvEEOT_, symObjAddr: 0x6140, symBinAddr: 0x1000097A0, symSize: 0x24 }
  - { offsetInCU: 0x46E7F, offset: 0x46E7F, size: 0x8, addend: 0x0, symName: __ZNSt3__122__compressed_pair_elemINS_21__unordered_map_equalIN5Token9TokenTypeENS_17__hash_value_typeIS3_NS_12basic_stringIcNS_11char_traitsIcEENS_9allocatorIcEEEEEENS_8equal_toIS3_EENS_4hashIS3_EELb1EEELi1ELb1EEC2B8ue170006ENS_18__default_init_tagE, symObjAddr: 0x6164, symBinAddr: 0x1000097C4, symSize: 0x2C }
  - { offsetInCU: 0x46EB3, offset: 0x46EB3, size: 0x8, addend: 0x0, symName: __ZNSt3__121__unordered_map_equalIN5Token9TokenTypeENS_17__hash_value_typeIS2_NS_12basic_stringIcNS_11char_traitsIcEENS_9allocatorIcEEEEEENS_8equal_toIS2_EENS_4hashIS2_EELb1EEC2B8ue170006Ev, symObjAddr: 0x6190, symBinAddr: 0x1000097F0, symSize: 0x14 }
  - { offsetInCU: 0x46EDD, offset: 0x46EDD, size: 0x8, addend: 0x0, symName: __ZNSt3__112__hash_tableINS_17__hash_value_typeIN5Token9TokenTypeENS_12basic_stringIcNS_11char_traitsIcEENS_9allocatorIcEEEEEENS_22__unordered_map_hasherIS3_SA_NS_4hashIS3_EENS_8equal_toIS3_EELb1EEENS_21__unordered_map_equalIS3_SA_SF_SD_Lb1EEENS7_ISA_EEE15__insert_uniqueB8ue170006ERKNS_4pairIKS3_S9_EE, symObjAddr: 0x61A4, symBinAddr: 0x100009804, symSize: 0x50 }
  - { offsetInCU: 0x46F12, offset: 0x46F12, size: 0x8, addend: 0x0, symName: __ZNSt3__112__hash_tableINS_17__hash_value_typeIN5Token9TokenTypeENS_12basic_stringIcNS_11char_traitsIcEENS_9allocatorIcEEEEEENS_22__unordered_map_hasherIS3_SA_NS_4hashIS3_EENS_8equal_toIS3_EELb1EEENS_21__unordered_map_equalIS3_SA_SF_SD_Lb1EEENS7_ISA_EEE25__emplace_unique_key_argsIS3_JRKNS_4pairIKS3_S9_EEEEENSM_INS_15__hash_iteratorIPNS_11__hash_nodeISA_PvEEEEbEERKT_DpOT0_, symObjAddr: 0x61F4, symBinAddr: 0x100009854, symSize: 0x4D8 }
  - { offsetInCU: 0x46FF2, offset: 0x46FF2, size: 0x8, addend: 0x0, symName: __ZNSt3__122__hash_key_value_typesINS_17__hash_value_typeIN5Token9TokenTypeENS_12basic_stringIcNS_11char_traitsIcEENS_9allocatorIcEEEEEEE9__get_keyB8ue170006ERKNS_4pairIKS3_S9_EE, symObjAddr: 0x66CC, symBinAddr: 0x100009D2C, symSize: 0x14 }
  - { offsetInCU: 0x47015, offset: 0x47015, size: 0x8, addend: 0x0, symName: __ZNSt3__112__hash_tableINS_17__hash_value_typeIN5Token9TokenTypeENS_12basic_stringIcNS_11char_traitsIcEENS_9allocatorIcEEEEEENS_22__unordered_map_hasherIS3_SA_NS_4hashIS3_EENS_8equal_toIS3_EELb1EEENS_21__unordered_map_equalIS3_SA_SF_SD_Lb1EEENS7_ISA_EEE13hash_functionB8ue170006Ev, symObjAddr: 0x66E0, symBinAddr: 0x100009D40, symSize: 0x28 }
  - { offsetInCU: 0x4703B, offset: 0x4703B, size: 0x8, addend: 0x0, symName: __ZNKSt3__122__unordered_map_hasherIN5Token9TokenTypeENS_17__hash_value_typeIS2_NS_12basic_stringIcNS_11char_traitsIcEENS_9allocatorIcEEEEEENS_4hashIS2_EENS_8equal_toIS2_EELb1EEclB8ue170006ERKS2_, symObjAddr: 0x6708, symBinAddr: 0x100009D68, symSize: 0x30 }
  - { offsetInCU: 0x47070, offset: 0x47070, size: 0x8, addend: 0x0, symName: __ZNKSt3__112__hash_tableINS_17__hash_value_typeIN5Token9TokenTypeENS_12basic_stringIcNS_11char_traitsIcEENS_9allocatorIcEEEEEENS_22__unordered_map_hasherIS3_SA_NS_4hashIS3_EENS_8equal_toIS3_EELb1EEENS_21__unordered_map_equalIS3_SA_SF_SD_Lb1EEENS7_ISA_EEE12bucket_countB8ue170006Ev, symObjAddr: 0x6738, symBinAddr: 0x100009D98, symSize: 0x28 }
  - { offsetInCU: 0x47096, offset: 0x47096, size: 0x8, addend: 0x0, symName: __ZNKSt3__110unique_ptrIA_PNS_16__hash_node_baseIPNS_11__hash_nodeINS_17__hash_value_typeIN5Token9TokenTypeENS_12basic_stringIcNS_11char_traitsIcEENS_9allocatorIcEEEEEEPvEEEENS_25__bucket_list_deallocatorINS9_ISH_EEEEEixB8ue170006Em, symObjAddr: 0x67F8, symBinAddr: 0x100009E58, symSize: 0x34 }
  - { offsetInCU: 0x470CB, offset: 0x470CB, size: 0x8, addend: 0x0, symName: __ZNKSt3__116__hash_node_baseIPNS_11__hash_nodeINS_17__hash_value_typeIN5Token9TokenTypeENS_12basic_stringIcNS_11char_traitsIcEENS_9allocatorIcEEEEEEPvEEE6__hashB8ue170006Ev, symObjAddr: 0x682C, symBinAddr: 0x100009E8C, symSize: 0x18 }
  - { offsetInCU: 0x470F1, offset: 0x470F1, size: 0x8, addend: 0x0, symName: __ZNSt3__112__hash_tableINS_17__hash_value_typeIN5Token9TokenTypeENS_12basic_stringIcNS_11char_traitsIcEENS_9allocatorIcEEEEEENS_22__unordered_map_hasherIS3_SA_NS_4hashIS3_EENS_8equal_toIS3_EELb1EEENS_21__unordered_map_equalIS3_SA_SF_SD_Lb1EEENS7_ISA_EEE6key_eqB8ue170006Ev, symObjAddr: 0x6844, symBinAddr: 0x100009EA4, symSize: 0x28 }
  - { offsetInCU: 0x47117, offset: 0x47117, size: 0x8, addend: 0x0, symName: __ZNKSt3__121__unordered_map_equalIN5Token9TokenTypeENS_17__hash_value_typeIS2_NS_12basic_stringIcNS_11char_traitsIcEENS_9allocatorIcEEEEEENS_8equal_toIS2_EENS_4hashIS2_EELb1EEclB8ue170006ERKSA_RKS2_, symObjAddr: 0x686C, symBinAddr: 0x100009ECC, symSize: 0x48 }
  - { offsetInCU: 0x4715B, offset: 0x4715B, size: 0x8, addend: 0x0, symName: __ZNSt3__116__hash_node_baseIPNS_11__hash_nodeINS_17__hash_value_typeIN5Token9TokenTypeENS_12basic_stringIcNS_11char_traitsIcEENS_9allocatorIcEEEEEEPvEEE8__upcastB8ue170006Ev, symObjAddr: 0x68B4, symBinAddr: 0x100009F14, symSize: 0x24 }
  - { offsetInCU: 0x47181, offset: 0x47181, size: 0x8, addend: 0x0, symName: __ZNSt3__112__hash_tableINS_17__hash_value_typeIN5Token9TokenTypeENS_12basic_stringIcNS_11char_traitsIcEENS_9allocatorIcEEEEEENS_22__unordered_map_hasherIS3_SA_NS_4hashIS3_EENS_8equal_toIS3_EELb1EEENS_21__unordered_map_equalIS3_SA_SF_SD_Lb1EEENS7_ISA_EEE21__construct_node_hashIRKNS_4pairIKS3_S9_EEJEEENS_10unique_ptrINS_11__hash_nodeISA_PvEENS_22__hash_node_destructorINS7_ISU_EEEEEEmOT_DpOT0_, symObjAddr: 0x68D8, symBinAddr: 0x100009F38, symSize: 0x140 }
  - { offsetInCU: 0x471F4, offset: 0x471F4, size: 0x8, addend: 0x0, symName: __ZNSt3__112__hash_tableINS_17__hash_value_typeIN5Token9TokenTypeENS_12basic_stringIcNS_11char_traitsIcEENS_9allocatorIcEEEEEENS_22__unordered_map_hasherIS3_SA_NS_4hashIS3_EENS_8equal_toIS3_EELb1EEENS_21__unordered_map_equalIS3_SA_SF_SD_Lb1EEENS7_ISA_EEE4sizeB8ue170006Ev, symObjAddr: 0x6A18, symBinAddr: 0x10000A078, symSize: 0x28 }
  - { offsetInCU: 0x4721A, offset: 0x4721A, size: 0x8, addend: 0x0, symName: __ZNSt3__112__hash_tableINS_17__hash_value_typeIN5Token9TokenTypeENS_12basic_stringIcNS_11char_traitsIcEENS_9allocatorIcEEEEEENS_22__unordered_map_hasherIS3_SA_NS_4hashIS3_EENS_8equal_toIS3_EELb1EEENS_21__unordered_map_equalIS3_SA_SF_SD_Lb1EEENS7_ISA_EEE15max_load_factorB8ue170006Ev, symObjAddr: 0x6A40, symBinAddr: 0x10000A0A0, symSize: 0x28 }
  - { offsetInCU: 0x47240, offset: 0x47240, size: 0x8, addend: 0x0, symName: __ZNSt3__112__hash_tableINS_17__hash_value_typeIN5Token9TokenTypeENS_12basic_stringIcNS_11char_traitsIcEENS_9allocatorIcEEEEEENS_22__unordered_map_hasherIS3_SA_NS_4hashIS3_EENS_8equal_toIS3_EELb1EEENS_21__unordered_map_equalIS3_SA_SF_SD_Lb1EEENS7_ISA_EEE15__rehash_uniqueB8ue170006Em, symObjAddr: 0x6A68, symBinAddr: 0x10000A0C8, symSize: 0x2C }
  - { offsetInCU: 0x47274, offset: 0x47274, size: 0x8, addend: 0x0, symName: __Z4ceilB8ue170006f, symObjAddr: 0x6B10, symBinAddr: 0x10000A170, symSize: 0x18 }
  - { offsetInCU: 0x472A3, offset: 0x472A3, size: 0x8, addend: 0x0, symName: __ZNSt3__117__compressed_pairINS_16__hash_node_baseIPNS_11__hash_nodeINS_17__hash_value_typeIN5Token9TokenTypeENS_12basic_stringIcNS_11char_traitsIcEENS_9allocatorIcEEEEEEPvEEEENS9_ISE_EEE5firstB8ue170006Ev, symObjAddr: 0x6B28, symBinAddr: 0x10000A188, symSize: 0x24 }
  - { offsetInCU: 0x472C9, offset: 0x472C9, size: 0x8, addend: 0x0, symName: __ZNSt3__116__hash_node_baseIPNS_11__hash_nodeINS_17__hash_value_typeIN5Token9TokenTypeENS_12basic_stringIcNS_11char_traitsIcEENS_9allocatorIcEEEEEEPvEEE5__ptrB8ue170006Ev, symObjAddr: 0x6B4C, symBinAddr: 0x10000A1AC, symSize: 0x24 }
  - { offsetInCU: 0x472EF, offset: 0x472EF, size: 0x8, addend: 0x0, symName: __ZNKSt3__110unique_ptrINS_11__hash_nodeINS_17__hash_value_typeIN5Token9TokenTypeENS_12basic_stringIcNS_11char_traitsIcEENS_9allocatorIcEEEEEEPvEENS_22__hash_node_destructorINS8_ISD_EEEEEptB8ue170006Ev, symObjAddr: 0x6B70, symBinAddr: 0x10000A1D0, symSize: 0x28 }
  - { offsetInCU: 0x47315, offset: 0x47315, size: 0x8, addend: 0x0, symName: __ZNKSt3__110unique_ptrINS_11__hash_nodeINS_17__hash_value_typeIN5Token9TokenTypeENS_12basic_stringIcNS_11char_traitsIcEENS_9allocatorIcEEEEEEPvEENS_22__hash_node_destructorINS8_ISD_EEEEE3getB8ue170006Ev, symObjAddr: 0x6B98, symBinAddr: 0x10000A1F8, symSize: 0x28 }
  - { offsetInCU: 0x4733B, offset: 0x4733B, size: 0x8, addend: 0x0, symName: __ZNSt3__110unique_ptrINS_11__hash_nodeINS_17__hash_value_typeIN5Token9TokenTypeENS_12basic_stringIcNS_11char_traitsIcEENS_9allocatorIcEEEEEEPvEENS_22__hash_node_destructorINS8_ISD_EEEEE7releaseB8ue170006Ev, symObjAddr: 0x6BC0, symBinAddr: 0x10000A220, symSize: 0x44 }
  - { offsetInCU: 0x47370, offset: 0x47370, size: 0x8, addend: 0x0, symName: __ZNSt3__110unique_ptrINS_11__hash_nodeINS_17__hash_value_typeIN5Token9TokenTypeENS_12basic_stringIcNS_11char_traitsIcEENS_9allocatorIcEEEEEEPvEENS_22__hash_node_destructorINS8_ISD_EEEEED1B8ue170006Ev, symObjAddr: 0x6C04, symBinAddr: 0x10000A264, symSize: 0x2C }
  - { offsetInCU: 0x4739A, offset: 0x4739A, size: 0x8, addend: 0x0, symName: __ZNSt3__115__hash_iteratorIPNS_11__hash_nodeINS_17__hash_value_typeIN5Token9TokenTypeENS_12basic_stringIcNS_11char_traitsIcEENS_9allocatorIcEEEEEEPvEEEC1B8ue170006EPNS_16__hash_node_baseISE_EE, symObjAddr: 0x6C30, symBinAddr: 0x10000A290, symSize: 0x34 }
  - { offsetInCU: 0x473D9, offset: 0x473D9, size: 0x8, addend: 0x0, symName: __ZNSt3__14pairINS_15__hash_iteratorIPNS_11__hash_nodeINS_17__hash_value_typeIN5Token9TokenTypeENS_12basic_stringIcNS_11char_traitsIcEENS_9allocatorIcEEEEEEPvEEEEbEC1B8ue170006ISG_RbLSD_0EEEOT_OT0_, symObjAddr: 0x6C64, symBinAddr: 0x10000A2C4, symSize: 0x3C }
  - { offsetInCU: 0x47437, offset: 0x47437, size: 0x8, addend: 0x0, symName: __ZNSt3__117__compressed_pairImNS_22__unordered_map_hasherIN5Token9TokenTypeENS_17__hash_value_typeIS3_NS_12basic_stringIcNS_11char_traitsIcEENS_9allocatorIcEEEEEENS_4hashIS3_EENS_8equal_toIS3_EELb1EEEE6secondB8ue170006Ev, symObjAddr: 0x6CA0, symBinAddr: 0x10000A300, symSize: 0x24 }
  - { offsetInCU: 0x4745D, offset: 0x4745D, size: 0x8, addend: 0x0, symName: __ZNSt3__122__compressed_pair_elemINS_22__unordered_map_hasherIN5Token9TokenTypeENS_17__hash_value_typeIS3_NS_12basic_stringIcNS_11char_traitsIcEENS_9allocatorIcEEEEEENS_4hashIS3_EENS_8equal_toIS3_EELb1EEELi1ELb1EE5__getB8ue170006Ev, symObjAddr: 0x6CC4, symBinAddr: 0x10000A324, symSize: 0x14 }
  - { offsetInCU: 0x4748E, offset: 0x4748E, size: 0x8, addend: 0x0, symName: __ZNKSt3__14hashIjEclB8ue170006Ej, symObjAddr: 0x6D04, symBinAddr: 0x10000A364, symSize: 0x1C }
  - { offsetInCU: 0x474C3, offset: 0x474C3, size: 0x8, addend: 0x0, symName: __ZNKSt3__110unique_ptrIA_PNS_16__hash_node_baseIPNS_11__hash_nodeINS_17__hash_value_typeIN5Token9TokenTypeENS_12basic_stringIcNS_11char_traitsIcEENS_9allocatorIcEEEEEEPvEEEENS_25__bucket_list_deallocatorINS9_ISH_EEEEE11get_deleterB8ue170006Ev, symObjAddr: 0x6D20, symBinAddr: 0x10000A380, symSize: 0x24 }
  - { offsetInCU: 0x474E9, offset: 0x474E9, size: 0x8, addend: 0x0, symName: __ZNKSt3__125__bucket_list_deallocatorINS_9allocatorIPNS_16__hash_node_baseIPNS_11__hash_nodeINS_17__hash_value_typeIN5Token9TokenTypeENS_12basic_stringIcNS_11char_traitsIcEENS1_IcEEEEEEPvEEEEEEE4sizeB8ue170006Ev, symObjAddr: 0x6D44, symBinAddr: 0x10000A3A4, symSize: 0x28 }
  - { offsetInCU: 0x4750F, offset: 0x4750F, size: 0x8, addend: 0x0, symName: __ZNKSt3__117__compressed_pairIPPNS_16__hash_node_baseIPNS_11__hash_nodeINS_17__hash_value_typeIN5Token9TokenTypeENS_12basic_stringIcNS_11char_traitsIcEENS_9allocatorIcEEEEEEPvEEEENS_25__bucket_list_deallocatorINS9_ISH_EEEEE6secondB8ue170006Ev, symObjAddr: 0x6D6C, symBinAddr: 0x10000A3CC, symSize: 0x28 }
  - { offsetInCU: 0x47535, offset: 0x47535, size: 0x8, addend: 0x0, symName: __ZNKSt3__122__compressed_pair_elemINS_25__bucket_list_deallocatorINS_9allocatorIPNS_16__hash_node_baseIPNS_11__hash_nodeINS_17__hash_value_typeIN5Token9TokenTypeENS_12basic_stringIcNS_11char_traitsIcEENS2_IcEEEEEEPvEEEEEEEELi1ELb0EE5__getB8ue170006Ev, symObjAddr: 0x6D94, symBinAddr: 0x10000A3F4, symSize: 0x14 }
  - { offsetInCU: 0x4755B, offset: 0x4755B, size: 0x8, addend: 0x0, symName: __ZNKSt3__117__compressed_pairImNS_9allocatorIPNS_16__hash_node_baseIPNS_11__hash_nodeINS_17__hash_value_typeIN5Token9TokenTypeENS_12basic_stringIcNS_11char_traitsIcEENS1_IcEEEEEEPvEEEEEEE5firstB8ue170006Ev, symObjAddr: 0x6DA8, symBinAddr: 0x10000A408, symSize: 0x24 }
  - { offsetInCU: 0x47581, offset: 0x47581, size: 0x8, addend: 0x0, symName: __ZNKSt3__117__compressed_pairIPPNS_16__hash_node_baseIPNS_11__hash_nodeINS_17__hash_value_typeIN5Token9TokenTypeENS_12basic_stringIcNS_11char_traitsIcEENS_9allocatorIcEEEEEEPvEEEENS_25__bucket_list_deallocatorINS9_ISH_EEEEE5firstB8ue170006Ev, symObjAddr: 0x6DCC, symBinAddr: 0x10000A42C, symSize: 0x24 }
  - { offsetInCU: 0x475A7, offset: 0x475A7, size: 0x8, addend: 0x0, symName: __ZNKSt3__122__compressed_pair_elemIPPNS_16__hash_node_baseIPNS_11__hash_nodeINS_17__hash_value_typeIN5Token9TokenTypeENS_12basic_stringIcNS_11char_traitsIcEENS_9allocatorIcEEEEEEPvEEEELi0ELb0EE5__getB8ue170006Ev, symObjAddr: 0x6DF0, symBinAddr: 0x10000A450, symSize: 0x14 }
  - { offsetInCU: 0x475CD, offset: 0x475CD, size: 0x8, addend: 0x0, symName: __ZNSt3__117__compressed_pairIfNS_21__unordered_map_equalIN5Token9TokenTypeENS_17__hash_value_typeIS3_NS_12basic_stringIcNS_11char_traitsIcEENS_9allocatorIcEEEEEENS_8equal_toIS3_EENS_4hashIS3_EELb1EEEE6secondB8ue170006Ev, symObjAddr: 0x6E04, symBinAddr: 0x10000A464, symSize: 0x24 }
  - { offsetInCU: 0x475F3, offset: 0x475F3, size: 0x8, addend: 0x0, symName: __ZNSt3__122__compressed_pair_elemINS_21__unordered_map_equalIN5Token9TokenTypeENS_17__hash_value_typeIS3_NS_12basic_stringIcNS_11char_traitsIcEENS_9allocatorIcEEEEEENS_8equal_toIS3_EENS_4hashIS3_EELb1EEELi1ELb1EE5__getB8ue170006Ev, symObjAddr: 0x6E28, symBinAddr: 0x10000A488, symSize: 0x14 }
  - { offsetInCU: 0x47619, offset: 0x47619, size: 0x8, addend: 0x0, symName: __ZNKSt3__18equal_toIN5Token9TokenTypeEEclB8ue170006ERKS2_S5_, symObjAddr: 0x6E3C, symBinAddr: 0x10000A49C, symSize: 0x34 }
  - { offsetInCU: 0x4765D, offset: 0x4765D, size: 0x8, addend: 0x0, symName: __ZNKSt3__117__hash_value_typeIN5Token9TokenTypeENS_12basic_stringIcNS_11char_traitsIcEENS_9allocatorIcEEEEE11__get_valueB8ue170006Ev, symObjAddr: 0x6E70, symBinAddr: 0x10000A4D0, symSize: 0x24 }
  - { offsetInCU: 0x47683, offset: 0x47683, size: 0x8, addend: 0x0, symName: __ZNSt3__114pointer_traitsIPNS_16__hash_node_baseIPNS_11__hash_nodeINS_17__hash_value_typeIN5Token9TokenTypeENS_12basic_stringIcNS_11char_traitsIcEENS_9allocatorIcEEEEEEPvEEEEE10pointer_toB8ue170006ERSG_, symObjAddr: 0x6ECC, symBinAddr: 0x10000A52C, symSize: 0x14 }
  - { offsetInCU: 0x476A6, offset: 0x476A6, size: 0x8, addend: 0x0, symName: __ZNSt3__112__hash_tableINS_17__hash_value_typeIN5Token9TokenTypeENS_12basic_stringIcNS_11char_traitsIcEENS_9allocatorIcEEEEEENS_22__unordered_map_hasherIS3_SA_NS_4hashIS3_EENS_8equal_toIS3_EELb1EEENS_21__unordered_map_equalIS3_SA_SF_SD_Lb1EEENS7_ISA_EEE12__node_allocB8ue170006Ev, symObjAddr: 0x6EE0, symBinAddr: 0x10000A540, symSize: 0x28 }
  - { offsetInCU: 0x476CC, offset: 0x476CC, size: 0x8, addend: 0x0, symName: __ZNSt3__116allocator_traitsINS_9allocatorINS_11__hash_nodeINS_17__hash_value_typeIN5Token9TokenTypeENS_12basic_stringIcNS_11char_traitsIcEENS1_IcEEEEEEPvEEEEE8allocateB8ue170006ERSE_m, symObjAddr: 0x6F08, symBinAddr: 0x10000A568, symSize: 0x2C }
  - { offsetInCU: 0x476FF, offset: 0x476FF, size: 0x8, addend: 0x0, symName: __ZNSt3__122__hash_node_destructorINS_9allocatorINS_11__hash_nodeINS_17__hash_value_typeIN5Token9TokenTypeENS_12basic_stringIcNS_11char_traitsIcEENS1_IcEEEEEEPvEEEEEC1B8ue170006ERSE_b, symObjAddr: 0x6F34, symBinAddr: 0x10000A594, symSize: 0x48 }
  - { offsetInCU: 0x4774D, offset: 0x4774D, size: 0x8, addend: 0x0, symName: __ZNSt3__110unique_ptrINS_11__hash_nodeINS_17__hash_value_typeIN5Token9TokenTypeENS_12basic_stringIcNS_11char_traitsIcEENS_9allocatorIcEEEEEEPvEENS_22__hash_node_destructorINS8_ISD_EEEEEC1B8ue170006ILb1EvEEPSD_NS_16__dependent_typeINS_27__unique_ptr_deleter_sfinaeISG_EEXT_EE20__good_rval_ref_typeE, symObjAddr: 0x6F7C, symBinAddr: 0x10000A5DC, symSize: 0x3C }
  - { offsetInCU: 0x4779E, offset: 0x4779E, size: 0x8, addend: 0x0, symName: __ZNSt3__116allocator_traitsINS_9allocatorINS_11__hash_nodeINS_17__hash_value_typeIN5Token9TokenTypeENS_12basic_stringIcNS_11char_traitsIcEENS1_IcEEEEEEPvEEEEE9constructB8ue170006INS_4pairIKS5_SA_EEJRKSJ_EvEEvRSE_PT_DpOT0_, symObjAddr: 0x6FB8, symBinAddr: 0x10000A618, symSize: 0x34 }
  - { offsetInCU: 0x477F5, offset: 0x477F5, size: 0x8, addend: 0x0, symName: __ZNSt3__122__hash_key_value_typesINS_17__hash_value_typeIN5Token9TokenTypeENS_12basic_stringIcNS_11char_traitsIcEENS_9allocatorIcEEEEEEE9__get_ptrB8ue170006ERSA_, symObjAddr: 0x6FEC, symBinAddr: 0x10000A64C, symSize: 0x24 }
  - { offsetInCU: 0x47818, offset: 0x47818, size: 0x8, addend: 0x0, symName: __ZNSt3__110unique_ptrINS_11__hash_nodeINS_17__hash_value_typeIN5Token9TokenTypeENS_12basic_stringIcNS_11char_traitsIcEENS_9allocatorIcEEEEEEPvEENS_22__hash_node_destructorINS8_ISD_EEEEE11get_deleterB8ue170006Ev, symObjAddr: 0x7010, symBinAddr: 0x10000A670, symSize: 0x24 }
  - { offsetInCU: 0x4783E, offset: 0x4783E, size: 0x8, addend: 0x0, symName: __ZNSt3__117__compressed_pairINS_16__hash_node_baseIPNS_11__hash_nodeINS_17__hash_value_typeIN5Token9TokenTypeENS_12basic_stringIcNS_11char_traitsIcEENS_9allocatorIcEEEEEEPvEEEENS9_ISE_EEE6secondB8ue170006Ev, symObjAddr: 0x7034, symBinAddr: 0x10000A694, symSize: 0x24 }
  - { offsetInCU: 0x47864, offset: 0x47864, size: 0x8, addend: 0x0, symName: __ZNSt3__122__compressed_pair_elemINS_9allocatorINS_11__hash_nodeINS_17__hash_value_typeIN5Token9TokenTypeENS_12basic_stringIcNS_11char_traitsIcEENS1_IcEEEEEEPvEEEELi1ELb1EE5__getB8ue170006Ev, symObjAddr: 0x7058, symBinAddr: 0x10000A6B8, symSize: 0x14 }
  - { offsetInCU: 0x4788A, offset: 0x4788A, size: 0x8, addend: 0x0, symName: __ZNSt3__19allocatorINS_11__hash_nodeINS_17__hash_value_typeIN5Token9TokenTypeENS_12basic_stringIcNS_11char_traitsIcEENS0_IcEEEEEEPvEEE8allocateB8ue170006Em, symObjAddr: 0x706C, symBinAddr: 0x10000A6CC, symSize: 0x5C }
  - { offsetInCU: 0x478C9, offset: 0x478C9, size: 0x8, addend: 0x0, symName: __ZNSt3__116allocator_traitsINS_9allocatorINS_11__hash_nodeINS_17__hash_value_typeIN5Token9TokenTypeENS_12basic_stringIcNS_11char_traitsIcEENS1_IcEEEEEEPvEEEEE8max_sizeB8ue170006ISE_vEEmRKSE_, symObjAddr: 0x70C8, symBinAddr: 0x10000A728, symSize: 0x24 }
  - { offsetInCU: 0x478F7, offset: 0x478F7, size: 0x8, addend: 0x0, symName: __ZNKSt3__19allocatorINS_11__hash_nodeINS_17__hash_value_typeIN5Token9TokenTypeENS_12basic_stringIcNS_11char_traitsIcEENS0_IcEEEEEEPvEEE8max_sizeB8ue170006Ev, symObjAddr: 0x7180, symBinAddr: 0x10000A7E0, symSize: 0x18 }
  - { offsetInCU: 0x4791D, offset: 0x4791D, size: 0x8, addend: 0x0, symName: __ZNSt3__122__hash_node_destructorINS_9allocatorINS_11__hash_nodeINS_17__hash_value_typeIN5Token9TokenTypeENS_12basic_stringIcNS_11char_traitsIcEENS1_IcEEEEEEPvEEEEEC2B8ue170006ERSE_b, symObjAddr: 0x71E8, symBinAddr: 0x10000A848, symSize: 0x38 }
  - { offsetInCU: 0x47965, offset: 0x47965, size: 0x8, addend: 0x0, symName: __ZNSt3__110unique_ptrINS_11__hash_nodeINS_17__hash_value_typeIN5Token9TokenTypeENS_12basic_stringIcNS_11char_traitsIcEENS_9allocatorIcEEEEEEPvEENS_22__hash_node_destructorINS8_ISD_EEEEEC2B8ue170006ILb1EvEEPSD_NS_16__dependent_typeINS_27__unique_ptr_deleter_sfinaeISG_EEXT_EE20__good_rval_ref_typeE, symObjAddr: 0x7220, symBinAddr: 0x10000A880, symSize: 0x48 }
  - { offsetInCU: 0x479B6, offset: 0x479B6, size: 0x8, addend: 0x0, symName: __ZNSt3__117__compressed_pairIPNS_11__hash_nodeINS_17__hash_value_typeIN5Token9TokenTypeENS_12basic_stringIcNS_11char_traitsIcEENS_9allocatorIcEEEEEEPvEENS_22__hash_node_destructorINS8_ISD_EEEEEC1B8ue170006IRSE_SH_EEOT_OT0_, symObjAddr: 0x7268, symBinAddr: 0x10000A8C8, symSize: 0x3C }
  - { offsetInCU: 0x47A0E, offset: 0x47A0E, size: 0x8, addend: 0x0, symName: __ZNSt3__117__compressed_pairIPNS_11__hash_nodeINS_17__hash_value_typeIN5Token9TokenTypeENS_12basic_stringIcNS_11char_traitsIcEENS_9allocatorIcEEEEEEPvEENS_22__hash_node_destructorINS8_ISD_EEEEEC2B8ue170006IRSE_SH_EEOT_OT0_, symObjAddr: 0x72A4, symBinAddr: 0x10000A904, symSize: 0x48 }
  - { offsetInCU: 0x47A66, offset: 0x47A66, size: 0x8, addend: 0x0, symName: __ZNSt3__122__compressed_pair_elemIPNS_11__hash_nodeINS_17__hash_value_typeIN5Token9TokenTypeENS_12basic_stringIcNS_11char_traitsIcEENS_9allocatorIcEEEEEEPvEELi0ELb0EEC2B8ue170006IRSE_vEEOT_, symObjAddr: 0x72EC, symBinAddr: 0x10000A94C, symSize: 0x24 }
  - { offsetInCU: 0x47AA8, offset: 0x47AA8, size: 0x8, addend: 0x0, symName: __ZNSt3__122__compressed_pair_elemINS_22__hash_node_destructorINS_9allocatorINS_11__hash_nodeINS_17__hash_value_typeIN5Token9TokenTypeENS_12basic_stringIcNS_11char_traitsIcEENS2_IcEEEEEEPvEEEEEELi1ELb0EEC2B8ue170006ISG_vEEOT_, symObjAddr: 0x7310, symBinAddr: 0x10000A970, symSize: 0x24 }
  - { offsetInCU: 0x47AEA, offset: 0x47AEA, size: 0x8, addend: 0x0, symName: __ZNSt3__19allocatorINS_11__hash_nodeINS_17__hash_value_typeIN5Token9TokenTypeENS_12basic_stringIcNS_11char_traitsIcEENS0_IcEEEEEEPvEEE9constructB8ue170006INS_4pairIKS4_S9_EEJRKSH_EEEvPT_DpOT0_, symObjAddr: 0x7334, symBinAddr: 0x10000A994, symSize: 0x30 }
  - { offsetInCU: 0x47B40, offset: 0x47B40, size: 0x8, addend: 0x0, symName: __ZNSt3__14pairIKN5Token9TokenTypeENS_12basic_stringIcNS_11char_traitsIcEENS_9allocatorIcEEEEEC1B8ue170006ERKSA_, symObjAddr: 0x7364, symBinAddr: 0x10000A9C4, symSize: 0x34 }
  - { offsetInCU: 0x47B74, offset: 0x47B74, size: 0x8, addend: 0x0, symName: __ZNSt3__14pairIKN5Token9TokenTypeENS_12basic_stringIcNS_11char_traitsIcEENS_9allocatorIcEEEEEC2B8ue170006ERKSA_, symObjAddr: 0x7398, symBinAddr: 0x10000A9F8, symSize: 0x48 }
  - { offsetInCU: 0x47BA8, offset: 0x47BA8, size: 0x8, addend: 0x0, symName: __ZNSt3__117__hash_value_typeIN5Token9TokenTypeENS_12basic_stringIcNS_11char_traitsIcEENS_9allocatorIcEEEEE11__get_valueB8ue170006Ev, symObjAddr: 0x73E0, symBinAddr: 0x10000AA40, symSize: 0x24 }
  - { offsetInCU: 0x47BCE, offset: 0x47BCE, size: 0x8, addend: 0x0, symName: __ZNSt3__117__compressed_pairIPNS_11__hash_nodeINS_17__hash_value_typeIN5Token9TokenTypeENS_12basic_stringIcNS_11char_traitsIcEENS_9allocatorIcEEEEEEPvEENS_22__hash_node_destructorINS8_ISD_EEEEE6secondB8ue170006Ev, symObjAddr: 0x743C, symBinAddr: 0x10000AA9C, symSize: 0x28 }
  - { offsetInCU: 0x47BF4, offset: 0x47BF4, size: 0x8, addend: 0x0, symName: __ZNSt3__122__compressed_pair_elemINS_22__hash_node_destructorINS_9allocatorINS_11__hash_nodeINS_17__hash_value_typeIN5Token9TokenTypeENS_12basic_stringIcNS_11char_traitsIcEENS2_IcEEEEEEPvEEEEEELi1ELb0EE5__getB8ue170006Ev, symObjAddr: 0x7464, symBinAddr: 0x10000AAC4, symSize: 0x14 }
  - { offsetInCU: 0x47C1A, offset: 0x47C1A, size: 0x8, addend: 0x0, symName: __ZNSt3__117__compressed_pairImNS_22__unordered_map_hasherIN5Token9TokenTypeENS_17__hash_value_typeIS3_NS_12basic_stringIcNS_11char_traitsIcEENS_9allocatorIcEEEEEENS_4hashIS3_EENS_8equal_toIS3_EELb1EEEE5firstB8ue170006Ev, symObjAddr: 0x7478, symBinAddr: 0x10000AAD8, symSize: 0x24 }
  - { offsetInCU: 0x47C40, offset: 0x47C40, size: 0x8, addend: 0x0, symName: __ZNSt3__122__compressed_pair_elemImLi0ELb0EE5__getB8ue170006Ev, symObjAddr: 0x749C, symBinAddr: 0x10000AAFC, symSize: 0x14 }
  - { offsetInCU: 0x47C66, offset: 0x47C66, size: 0x8, addend: 0x0, symName: __ZNSt3__117__compressed_pairIfNS_21__unordered_map_equalIN5Token9TokenTypeENS_17__hash_value_typeIS3_NS_12basic_stringIcNS_11char_traitsIcEENS_9allocatorIcEEEEEENS_8equal_toIS3_EENS_4hashIS3_EELb1EEEE5firstB8ue170006Ev, symObjAddr: 0x74B0, symBinAddr: 0x10000AB10, symSize: 0x24 }
  - { offsetInCU: 0x47C8C, offset: 0x47C8C, size: 0x8, addend: 0x0, symName: __ZNSt3__122__compressed_pair_elemIfLi0ELb0EE5__getB8ue170006Ev, symObjAddr: 0x74D4, symBinAddr: 0x10000AB34, symSize: 0x14 }
  - { offsetInCU: 0x47CB2, offset: 0x47CB2, size: 0x8, addend: 0x0, symName: __ZNSt3__112__hash_tableINS_17__hash_value_typeIN5Token9TokenTypeENS_12basic_stringIcNS_11char_traitsIcEENS_9allocatorIcEEEEEENS_22__unordered_map_hasherIS3_SA_NS_4hashIS3_EENS_8equal_toIS3_EELb1EEENS_21__unordered_map_equalIS3_SA_SF_SD_Lb1EEENS7_ISA_EEE8__rehashILb1EEEvm, symObjAddr: 0x74E8, symBinAddr: 0x10000AB48, symSize: 0x1A8 }
  - { offsetInCU: 0x47D02, offset: 0x47D02, size: 0x8, addend: 0x0, symName: __ZNSt3__112__hash_tableINS_17__hash_value_typeIN5Token9TokenTypeENS_12basic_stringIcNS_11char_traitsIcEENS_9allocatorIcEEEEEENS_22__unordered_map_hasherIS3_SA_NS_4hashIS3_EENS_8equal_toIS3_EELb1EEENS_21__unordered_map_equalIS3_SA_SF_SD_Lb1EEENS7_ISA_EEE11__do_rehashILb1EEEvm, symObjAddr: 0x7690, symBinAddr: 0x10000ACF0, symSize: 0x288 }
  - { offsetInCU: 0x47DE5, offset: 0x47DE5, size: 0x8, addend: 0x0, symName: __ZNSt3__110unique_ptrIA_PNS_16__hash_node_baseIPNS_11__hash_nodeINS_17__hash_value_typeIN5Token9TokenTypeENS_12basic_stringIcNS_11char_traitsIcEENS_9allocatorIcEEEEEEPvEEEENS_25__bucket_list_deallocatorINS9_ISH_EEEEE11get_deleterB8ue170006Ev, symObjAddr: 0x7984, symBinAddr: 0x10000AFE4, symSize: 0x24 }
  - { offsetInCU: 0x47E0B, offset: 0x47E0B, size: 0x8, addend: 0x0, symName: __ZNSt3__125__bucket_list_deallocatorINS_9allocatorIPNS_16__hash_node_baseIPNS_11__hash_nodeINS_17__hash_value_typeIN5Token9TokenTypeENS_12basic_stringIcNS_11char_traitsIcEENS1_IcEEEEEEPvEEEEEEE7__allocB8ue170006Ev, symObjAddr: 0x79A8, symBinAddr: 0x10000B008, symSize: 0x24 }
  - { offsetInCU: 0x47E31, offset: 0x47E31, size: 0x8, addend: 0x0, symName: __ZNSt3__110unique_ptrIA_PNS_16__hash_node_baseIPNS_11__hash_nodeINS_17__hash_value_typeIN5Token9TokenTypeENS_12basic_stringIcNS_11char_traitsIcEENS_9allocatorIcEEEEEEPvEEEENS_25__bucket_list_deallocatorINS9_ISH_EEEEE5resetB8ue170006IPSH_EENS_9enable_ifIXsr28_CheckArrayPointerConversionIT_EE5valueEvE4typeESQ_, symObjAddr: 0x79CC, symBinAddr: 0x10000B02C, symSize: 0x78 }
  - { offsetInCU: 0x47E7E, offset: 0x47E7E, size: 0x8, addend: 0x0, symName: __ZNSt3__116allocator_traitsINS_9allocatorIPNS_16__hash_node_baseIPNS_11__hash_nodeINS_17__hash_value_typeIN5Token9TokenTypeENS_12basic_stringIcNS_11char_traitsIcEENS1_IcEEEEEEPvEEEEEEE8allocateB8ue170006ERSI_m, symObjAddr: 0x7A44, symBinAddr: 0x10000B0A4, symSize: 0x2C }
  - { offsetInCU: 0x47EB1, offset: 0x47EB1, size: 0x8, addend: 0x0, symName: __ZNSt3__125__bucket_list_deallocatorINS_9allocatorIPNS_16__hash_node_baseIPNS_11__hash_nodeINS_17__hash_value_typeIN5Token9TokenTypeENS_12basic_stringIcNS_11char_traitsIcEENS1_IcEEEEEEPvEEEEEEE4sizeB8ue170006Ev, symObjAddr: 0x7A70, symBinAddr: 0x10000B0D0, symSize: 0x24 }
  - { offsetInCU: 0x47ED7, offset: 0x47ED7, size: 0x8, addend: 0x0, symName: __ZNSt3__117__compressed_pairIPPNS_16__hash_node_baseIPNS_11__hash_nodeINS_17__hash_value_typeIN5Token9TokenTypeENS_12basic_stringIcNS_11char_traitsIcEENS_9allocatorIcEEEEEEPvEEEENS_25__bucket_list_deallocatorINS9_ISH_EEEEE6secondB8ue170006Ev, symObjAddr: 0x7A94, symBinAddr: 0x10000B0F4, symSize: 0x28 }
  - { offsetInCU: 0x47EFD, offset: 0x47EFD, size: 0x8, addend: 0x0, symName: __ZNSt3__122__compressed_pair_elemINS_25__bucket_list_deallocatorINS_9allocatorIPNS_16__hash_node_baseIPNS_11__hash_nodeINS_17__hash_value_typeIN5Token9TokenTypeENS_12basic_stringIcNS_11char_traitsIcEENS2_IcEEEEEEPvEEEEEEEELi1ELb0EE5__getB8ue170006Ev, symObjAddr: 0x7ABC, symBinAddr: 0x10000B11C, symSize: 0x14 }
  - { offsetInCU: 0x47F23, offset: 0x47F23, size: 0x8, addend: 0x0, symName: __ZNSt3__117__compressed_pairImNS_9allocatorIPNS_16__hash_node_baseIPNS_11__hash_nodeINS_17__hash_value_typeIN5Token9TokenTypeENS_12basic_stringIcNS_11char_traitsIcEENS1_IcEEEEEEPvEEEEEEE6secondB8ue170006Ev, symObjAddr: 0x7AD0, symBinAddr: 0x10000B130, symSize: 0x24 }
  - { offsetInCU: 0x47F49, offset: 0x47F49, size: 0x8, addend: 0x0, symName: __ZNSt3__122__compressed_pair_elemINS_9allocatorIPNS_16__hash_node_baseIPNS_11__hash_nodeINS_17__hash_value_typeIN5Token9TokenTypeENS_12basic_stringIcNS_11char_traitsIcEENS1_IcEEEEEEPvEEEEEELi1ELb1EE5__getB8ue170006Ev, symObjAddr: 0x7AF4, symBinAddr: 0x10000B154, symSize: 0x14 }
  - { offsetInCU: 0x47F6F, offset: 0x47F6F, size: 0x8, addend: 0x0, symName: __ZNSt3__117__compressed_pairIPPNS_16__hash_node_baseIPNS_11__hash_nodeINS_17__hash_value_typeIN5Token9TokenTypeENS_12basic_stringIcNS_11char_traitsIcEENS_9allocatorIcEEEEEEPvEEEENS_25__bucket_list_deallocatorINS9_ISH_EEEEE5firstB8ue170006Ev, symObjAddr: 0x7B08, symBinAddr: 0x10000B168, symSize: 0x24 }
  - { offsetInCU: 0x47F95, offset: 0x47F95, size: 0x8, addend: 0x0, symName: __ZNSt3__125__bucket_list_deallocatorINS_9allocatorIPNS_16__hash_node_baseIPNS_11__hash_nodeINS_17__hash_value_typeIN5Token9TokenTypeENS_12basic_stringIcNS_11char_traitsIcEENS1_IcEEEEEEPvEEEEEEEclB8ue170006EPSH_, symObjAddr: 0x7B2C, symBinAddr: 0x10000B18C, symSize: 0x58 }
  - { offsetInCU: 0x47FCA, offset: 0x47FCA, size: 0x8, addend: 0x0, symName: __ZNSt3__122__compressed_pair_elemIPPNS_16__hash_node_baseIPNS_11__hash_nodeINS_17__hash_value_typeIN5Token9TokenTypeENS_12basic_stringIcNS_11char_traitsIcEENS_9allocatorIcEEEEEEPvEEEELi0ELb0EE5__getB8ue170006Ev, symObjAddr: 0x7B84, symBinAddr: 0x10000B1E4, symSize: 0x14 }
  - { offsetInCU: 0x47FF0, offset: 0x47FF0, size: 0x8, addend: 0x0, symName: __ZNSt3__116allocator_traitsINS_9allocatorIPNS_16__hash_node_baseIPNS_11__hash_nodeINS_17__hash_value_typeIN5Token9TokenTypeENS_12basic_stringIcNS_11char_traitsIcEENS1_IcEEEEEEPvEEEEEEE10deallocateB8ue170006ERSI_PSH_m, symObjAddr: 0x7B98, symBinAddr: 0x10000B1F8, symSize: 0x34 }
  - { offsetInCU: 0x48032, offset: 0x48032, size: 0x8, addend: 0x0, symName: __ZNSt3__19allocatorIPNS_16__hash_node_baseIPNS_11__hash_nodeINS_17__hash_value_typeIN5Token9TokenTypeENS_12basic_stringIcNS_11char_traitsIcEENS0_IcEEEEEEPvEEEEE10deallocateB8ue170006EPSG_m, symObjAddr: 0x7BCC, symBinAddr: 0x10000B22C, symSize: 0x40 }
  - { offsetInCU: 0x48074, offset: 0x48074, size: 0x8, addend: 0x0, symName: __ZNSt3__19allocatorIPNS_16__hash_node_baseIPNS_11__hash_nodeINS_17__hash_value_typeIN5Token9TokenTypeENS_12basic_stringIcNS_11char_traitsIcEENS0_IcEEEEEEPvEEEEE8allocateB8ue170006Em, symObjAddr: 0x7C0C, symBinAddr: 0x10000B26C, symSize: 0x58 }
  - { offsetInCU: 0x480B3, offset: 0x480B3, size: 0x8, addend: 0x0, symName: __ZNSt3__116allocator_traitsINS_9allocatorIPNS_16__hash_node_baseIPNS_11__hash_nodeINS_17__hash_value_typeIN5Token9TokenTypeENS_12basic_stringIcNS_11char_traitsIcEENS1_IcEEEEEEPvEEEEEEE8max_sizeB8ue170006ISI_vEEmRKSI_, symObjAddr: 0x7C64, symBinAddr: 0x10000B2C4, symSize: 0x24 }
  - { offsetInCU: 0x480E1, offset: 0x480E1, size: 0x8, addend: 0x0, symName: __ZNKSt3__19allocatorIPNS_16__hash_node_baseIPNS_11__hash_nodeINS_17__hash_value_typeIN5Token9TokenTypeENS_12basic_stringIcNS_11char_traitsIcEENS0_IcEEEEEEPvEEEEE8max_sizeB8ue170006Ev, symObjAddr: 0x7C88, symBinAddr: 0x10000B2E8, symSize: 0x14 }
  - { offsetInCU: 0x48107, offset: 0x48107, size: 0x8, addend: 0x0, symName: __ZNSt3__117__compressed_pairImNS_9allocatorIPNS_16__hash_node_baseIPNS_11__hash_nodeINS_17__hash_value_typeIN5Token9TokenTypeENS_12basic_stringIcNS_11char_traitsIcEENS1_IcEEEEEEPvEEEEEEE5firstB8ue170006Ev, symObjAddr: 0x7C9C, symBinAddr: 0x10000B2FC, symSize: 0x24 }
  - { offsetInCU: 0x48138, offset: 0x48138, size: 0x8, addend: 0x0, symName: __ZNKSt3__16__lessIvvEclB8ue170006ImmEEbRKT_RKT0_, symObjAddr: 0x7D30, symBinAddr: 0x10000B390, symSize: 0x34 }
  - { offsetInCU: 0x4818C, offset: 0x4818C, size: 0x8, addend: 0x0, symName: __ZNSt3__122__compressed_pair_elemINS_16__hash_node_baseIPNS_11__hash_nodeINS_17__hash_value_typeIN5Token9TokenTypeENS_12basic_stringIcNS_11char_traitsIcEENS_9allocatorIcEEEEEEPvEEEELi0ELb0EE5__getB8ue170006Ev, symObjAddr: 0x7D64, symBinAddr: 0x10000B3C4, symSize: 0x14 }
  - { offsetInCU: 0x481B2, offset: 0x481B2, size: 0x8, addend: 0x0, symName: __ZNKSt3__117__compressed_pairIPNS_11__hash_nodeINS_17__hash_value_typeIN5Token9TokenTypeENS_12basic_stringIcNS_11char_traitsIcEENS_9allocatorIcEEEEEEPvEENS_22__hash_node_destructorINS8_ISD_EEEEE5firstB8ue170006Ev, symObjAddr: 0x7D78, symBinAddr: 0x10000B3D8, symSize: 0x24 }
  - { offsetInCU: 0x481D8, offset: 0x481D8, size: 0x8, addend: 0x0, symName: __ZNKSt3__122__compressed_pair_elemIPNS_11__hash_nodeINS_17__hash_value_typeIN5Token9TokenTypeENS_12basic_stringIcNS_11char_traitsIcEENS_9allocatorIcEEEEEEPvEELi0ELb0EE5__getB8ue170006Ev, symObjAddr: 0x7D9C, symBinAddr: 0x10000B3FC, symSize: 0x14 }
  - { offsetInCU: 0x481FE, offset: 0x481FE, size: 0x8, addend: 0x0, symName: __ZNSt3__117__compressed_pairIPNS_11__hash_nodeINS_17__hash_value_typeIN5Token9TokenTypeENS_12basic_stringIcNS_11char_traitsIcEENS_9allocatorIcEEEEEEPvEENS_22__hash_node_destructorINS8_ISD_EEEEE5firstB8ue170006Ev, symObjAddr: 0x7DB0, symBinAddr: 0x10000B410, symSize: 0x24 }
  - { offsetInCU: 0x48224, offset: 0x48224, size: 0x8, addend: 0x0, symName: __ZNSt3__122__compressed_pair_elemIPNS_11__hash_nodeINS_17__hash_value_typeIN5Token9TokenTypeENS_12basic_stringIcNS_11char_traitsIcEENS_9allocatorIcEEEEEEPvEELi0ELb0EE5__getB8ue170006Ev, symObjAddr: 0x7DD4, symBinAddr: 0x10000B434, symSize: 0x14 }
  - { offsetInCU: 0x4824A, offset: 0x4824A, size: 0x8, addend: 0x0, symName: __ZNSt3__110unique_ptrINS_11__hash_nodeINS_17__hash_value_typeIN5Token9TokenTypeENS_12basic_stringIcNS_11char_traitsIcEENS_9allocatorIcEEEEEEPvEENS_22__hash_node_destructorINS8_ISD_EEEEED2B8ue170006Ev, symObjAddr: 0x7DE8, symBinAddr: 0x10000B448, symSize: 0x30 }
  - { offsetInCU: 0x48274, offset: 0x48274, size: 0x8, addend: 0x0, symName: __ZNSt3__110unique_ptrINS_11__hash_nodeINS_17__hash_value_typeIN5Token9TokenTypeENS_12basic_stringIcNS_11char_traitsIcEENS_9allocatorIcEEEEEEPvEENS_22__hash_node_destructorINS8_ISD_EEEEE5resetB8ue170006EPSD_, symObjAddr: 0x7E18, symBinAddr: 0x10000B478, symSize: 0x78 }
  - { offsetInCU: 0x482B8, offset: 0x482B8, size: 0x8, addend: 0x0, symName: __ZNSt3__122__hash_node_destructorINS_9allocatorINS_11__hash_nodeINS_17__hash_value_typeIN5Token9TokenTypeENS_12basic_stringIcNS_11char_traitsIcEENS1_IcEEEEEEPvEEEEEclB8ue170006EPSD_, symObjAddr: 0x7E90, symBinAddr: 0x10000B4F0, symSize: 0x98 }
  - { offsetInCU: 0x482ED, offset: 0x482ED, size: 0x8, addend: 0x0, symName: __ZNSt3__116allocator_traitsINS_9allocatorINS_11__hash_nodeINS_17__hash_value_typeIN5Token9TokenTypeENS_12basic_stringIcNS_11char_traitsIcEENS1_IcEEEEEEPvEEEEE7destroyB8ue170006INS_4pairIKS5_SA_EEvvEEvRSE_PT_, symObjAddr: 0x7F28, symBinAddr: 0x10000B588, symSize: 0x28 }
  - { offsetInCU: 0x48328, offset: 0x48328, size: 0x8, addend: 0x0, symName: __ZNSt3__116allocator_traitsINS_9allocatorINS_11__hash_nodeINS_17__hash_value_typeIN5Token9TokenTypeENS_12basic_stringIcNS_11char_traitsIcEENS1_IcEEEEEEPvEEEEE10deallocateB8ue170006ERSE_PSD_m, symObjAddr: 0x7F50, symBinAddr: 0x10000B5B0, symSize: 0x34 }
  - { offsetInCU: 0x4836A, offset: 0x4836A, size: 0x8, addend: 0x0, symName: __ZNSt3__19allocatorINS_11__hash_nodeINS_17__hash_value_typeIN5Token9TokenTypeENS_12basic_stringIcNS_11char_traitsIcEENS0_IcEEEEEEPvEEE10deallocateB8ue170006EPSC_m, symObjAddr: 0x7F84, symBinAddr: 0x10000B5E4, symSize: 0x44 }
  - { offsetInCU: 0x483AC, offset: 0x483AC, size: 0x8, addend: 0x0, symName: __ZNSt3__115__hash_iteratorIPNS_11__hash_nodeINS_17__hash_value_typeIN5Token9TokenTypeENS_12basic_stringIcNS_11char_traitsIcEENS_9allocatorIcEEEEEEPvEEEC2B8ue170006EPNS_16__hash_node_baseISE_EE, symObjAddr: 0x7FC8, symBinAddr: 0x10000B628, symSize: 0x20 }
  - { offsetInCU: 0x483E5, offset: 0x483E5, size: 0x8, addend: 0x0, symName: __ZNSt3__14pairINS_15__hash_iteratorIPNS_11__hash_nodeINS_17__hash_value_typeIN5Token9TokenTypeENS_12basic_stringIcNS_11char_traitsIcEENS_9allocatorIcEEEEEEPvEEEEbEC2B8ue170006ISG_RbLSD_0EEEOT_OT0_, symObjAddr: 0x7FE8, symBinAddr: 0x10000B648, symSize: 0x38 }
  - { offsetInCU: 0x48443, offset: 0x48443, size: 0x8, addend: 0x0, symName: __ZNSt3__112__hash_tableINS_17__hash_value_typeIN5Token9TokenTypeENS_12basic_stringIcNS_11char_traitsIcEENS_9allocatorIcEEEEEENS_22__unordered_map_hasherIS3_SA_NS_4hashIS3_EENS_8equal_toIS3_EELb1EEENS_21__unordered_map_equalIS3_SA_SF_SD_Lb1EEENS7_ISA_EEED2Ev, symObjAddr: 0x8020, symBinAddr: 0x10000B680, symSize: 0x48 }
  - { offsetInCU: 0x4846F, offset: 0x4846F, size: 0x8, addend: 0x0, symName: __ZNSt3__112__hash_tableINS_17__hash_value_typeIN5Token9TokenTypeENS_12basic_stringIcNS_11char_traitsIcEENS_9allocatorIcEEEEEENS_22__unordered_map_hasherIS3_SA_NS_4hashIS3_EENS_8equal_toIS3_EELb1EEENS_21__unordered_map_equalIS3_SA_SF_SD_Lb1EEENS7_ISA_EEE17__deallocate_nodeEPNS_16__hash_node_baseIPNS_11__hash_nodeISA_PvEEEE, symObjAddr: 0x8068, symBinAddr: 0x10000B6C8, symSize: 0xA4 }
  - { offsetInCU: 0x484D9, offset: 0x484D9, size: 0x8, addend: 0x0, symName: __ZNSt3__110unique_ptrIA_PNS_16__hash_node_baseIPNS_11__hash_nodeINS_17__hash_value_typeIN5Token9TokenTypeENS_12basic_stringIcNS_11char_traitsIcEENS_9allocatorIcEEEEEEPvEEEENS_25__bucket_list_deallocatorINS9_ISH_EEEEED1B8ue170006Ev, symObjAddr: 0x810C, symBinAddr: 0x10000B76C, symSize: 0x2C }
  - { offsetInCU: 0x48503, offset: 0x48503, size: 0x8, addend: 0x0, symName: __ZNSt3__110unique_ptrIA_PNS_16__hash_node_baseIPNS_11__hash_nodeINS_17__hash_value_typeIN5Token9TokenTypeENS_12basic_stringIcNS_11char_traitsIcEENS_9allocatorIcEEEEEEPvEEEENS_25__bucket_list_deallocatorINS9_ISH_EEEEED2B8ue170006Ev, symObjAddr: 0x8138, symBinAddr: 0x10000B798, symSize: 0x30 }
  - { offsetInCU: 0x4852D, offset: 0x4852D, size: 0x8, addend: 0x0, symName: __ZNSt3__110unique_ptrIA_PNS_16__hash_node_baseIPNS_11__hash_nodeINS_17__hash_value_typeIN5Token9TokenTypeENS_12basic_stringIcNS_11char_traitsIcEENS_9allocatorIcEEEEEEPvEEEENS_25__bucket_list_deallocatorINS9_ISH_EEEEE5resetB8ue170006EDn, symObjAddr: 0x8168, symBinAddr: 0x10000B7C8, symSize: 0x6C }
  - { offsetInCU: 0x4856E, offset: 0x4856E, size: 0x8, addend: 0x0, symName: __ZNSt3__113unordered_mapIN5Token9TokenTypeENS_12basic_stringIcNS_11char_traitsIcEENS_9allocatorIcEEEENS_4hashIS2_EENS_8equal_toIS2_EENS6_INS_4pairIKS2_S8_EEEEED2B8ue170006Ev, symObjAddr: 0x81D4, symBinAddr: 0x10000B834, symSize: 0x2C }
  - { offsetInCU: 0x48598, offset: 0x48598, size: 0x8, addend: 0x0, symName: __ZNSt3__117__compressed_pairIP5TokenNS_9allocatorIS1_EEE6secondB8ue170006Ev, symObjAddr: 0x8200, symBinAddr: 0x10000B860, symSize: 0x24 }
  - { offsetInCU: 0x485BE, offset: 0x485BE, size: 0x8, addend: 0x0, symName: __ZNSt3__122__compressed_pair_elemINS_9allocatorI5TokenEELi1ELb1EE5__getB8ue170006Ev, symObjAddr: 0x8224, symBinAddr: 0x10000B884, symSize: 0x14 }
  - { offsetInCU: 0x485E4, offset: 0x485E4, size: 0x8, addend: 0x0, symName: __ZNSt3__16vectorI5TokenNS_9allocatorIS1_EEE21_ConstructTransactionD2B8ue170006Ev, symObjAddr: 0x8238, symBinAddr: 0x10000B898, symSize: 0x20 }
  - { offsetInCU: 0x4860E, offset: 0x4860E, size: 0x8, addend: 0x0, symName: __ZNKSt3__16vectorI5TokenNS_9allocatorIS1_EEE11__recommendB8ue170006Em, symObjAddr: 0x8258, symBinAddr: 0x10000B8B8, symSize: 0xB4 }
  - { offsetInCU: 0x48663, offset: 0x48663, size: 0x8, addend: 0x0, symName: __ZNKSt3__16vectorI5TokenNS_9allocatorIS1_EEE4sizeB8ue170006Ev, symObjAddr: 0x830C, symBinAddr: 0x10000B96C, symSize: 0x28 }
  - { offsetInCU: 0x48689, offset: 0x48689, size: 0x8, addend: 0x0, symName: __ZNSt3__114__split_bufferI5TokenRNS_9allocatorIS1_EEEC1EmmS4_, symObjAddr: 0x8334, symBinAddr: 0x10000B994, symSize: 0x44 }
  - { offsetInCU: 0x486DF, offset: 0x486DF, size: 0x8, addend: 0x0, symName: __ZNSt3__114__split_bufferI5TokenRNS_9allocatorIS1_EEED1Ev, symObjAddr: 0x8488, symBinAddr: 0x10000BAE8, symSize: 0x2C }
  - { offsetInCU: 0x4870B, offset: 0x4870B, size: 0x8, addend: 0x0, symName: __ZNKSt3__16vectorI5TokenNS_9allocatorIS1_EEE8max_sizeEv, symObjAddr: 0x84B4, symBinAddr: 0x10000BB14, symSize: 0x60 }
  - { offsetInCU: 0x48733, offset: 0x48733, size: 0x8, addend: 0x0, symName: __ZNKSt3__16vectorI5TokenNS_9allocatorIS1_EEE20__throw_length_errorB8ue170006Ev, symObjAddr: 0x8514, symBinAddr: 0x10000BB74, symSize: 0x1C }
  - { offsetInCU: 0x48759, offset: 0x48759, size: 0x8, addend: 0x0, symName: __ZNKSt3__16vectorI5TokenNS_9allocatorIS1_EEE8capacityB8ue170006Ev, symObjAddr: 0x8530, symBinAddr: 0x10000BB90, symSize: 0x40 }
  - { offsetInCU: 0x4878A, offset: 0x4878A, size: 0x8, addend: 0x0, symName: __ZNSt3__116allocator_traitsINS_9allocatorI5TokenEEE8max_sizeB8ue170006IS3_vEEmRKS3_, symObjAddr: 0x859C, symBinAddr: 0x10000BBFC, symSize: 0x24 }
  - { offsetInCU: 0x487B8, offset: 0x487B8, size: 0x8, addend: 0x0, symName: __ZNKSt3__16vectorI5TokenNS_9allocatorIS1_EEE7__allocB8ue170006Ev, symObjAddr: 0x85C0, symBinAddr: 0x10000BC20, symSize: 0x28 }
  - { offsetInCU: 0x487DE, offset: 0x487DE, size: 0x8, addend: 0x0, symName: __ZNSt3__114numeric_limitsIlE3maxB8ue170006Ev, symObjAddr: 0x85E8, symBinAddr: 0x10000BC48, symSize: 0x14 }
  - { offsetInCU: 0x487F2, offset: 0x487F2, size: 0x8, addend: 0x0, symName: __ZNKSt3__19allocatorI5TokenE8max_sizeB8ue170006Ev, symObjAddr: 0x8650, symBinAddr: 0x10000BCB0, symSize: 0x18 }
  - { offsetInCU: 0x48818, offset: 0x48818, size: 0x8, addend: 0x0, symName: __ZNKSt3__117__compressed_pairIP5TokenNS_9allocatorIS1_EEE6secondB8ue170006Ev, symObjAddr: 0x8668, symBinAddr: 0x10000BCC8, symSize: 0x24 }
  - { offsetInCU: 0x4883E, offset: 0x4883E, size: 0x8, addend: 0x0, symName: __ZNKSt3__122__compressed_pair_elemINS_9allocatorI5TokenEELi1ELb1EE5__getB8ue170006Ev, symObjAddr: 0x868C, symBinAddr: 0x10000BCEC, symSize: 0x14 }
  - { offsetInCU: 0x48864, offset: 0x48864, size: 0x8, addend: 0x0, symName: __ZNSt3__123__libcpp_numeric_limitsIlLb1EE3maxB8ue170006Ev, symObjAddr: 0x86A0, symBinAddr: 0x10000BD00, symSize: 0x8 }
  - { offsetInCU: 0x48878, offset: 0x48878, size: 0x8, addend: 0x0, symName: __ZNSt12length_errorC1B8ue170006EPKc, symObjAddr: 0x870C, symBinAddr: 0x10000BD6C, symSize: 0x34 }
  - { offsetInCU: 0x488B0, offset: 0x488B0, size: 0x8, addend: 0x0, symName: __ZNSt12length_errorC2B8ue170006EPKc, symObjAddr: 0x8740, symBinAddr: 0x10000BDA0, symSize: 0x4C }
  - { offsetInCU: 0x488E8, offset: 0x488E8, size: 0x8, addend: 0x0, symName: __ZNKSt3__16vectorI5TokenNS_9allocatorIS1_EEE9__end_capB8ue170006Ev, symObjAddr: 0x878C, symBinAddr: 0x10000BDEC, symSize: 0x28 }
  - { offsetInCU: 0x4890E, offset: 0x4890E, size: 0x8, addend: 0x0, symName: __ZNKSt3__117__compressed_pairIP5TokenNS_9allocatorIS1_EEE5firstB8ue170006Ev, symObjAddr: 0x87B4, symBinAddr: 0x10000BE14, symSize: 0x24 }
  - { offsetInCU: 0x48934, offset: 0x48934, size: 0x8, addend: 0x0, symName: __ZNKSt3__122__compressed_pair_elemIP5TokenLi0ELb0EE5__getB8ue170006Ev, symObjAddr: 0x87D8, symBinAddr: 0x10000BE38, symSize: 0x14 }
  - { offsetInCU: 0x4895A, offset: 0x4895A, size: 0x8, addend: 0x0, symName: __ZNSt3__114__split_bufferI5TokenRNS_9allocatorIS1_EEEC2EmmS4_, symObjAddr: 0x87EC, symBinAddr: 0x10000BE4C, symSize: 0xE0 }
  - { offsetInCU: 0x489CD, offset: 0x489CD, size: 0x8, addend: 0x0, symName: __ZNSt3__117__compressed_pairIP5TokenRNS_9allocatorIS1_EEEC1B8ue170006IDnS5_EEOT_OT0_, symObjAddr: 0x88CC, symBinAddr: 0x10000BF2C, symSize: 0x3C }
  - { offsetInCU: 0x48A25, offset: 0x48A25, size: 0x8, addend: 0x0, symName: __ZNSt3__114__split_bufferI5TokenRNS_9allocatorIS1_EEE7__allocB8ue170006Ev, symObjAddr: 0x8948, symBinAddr: 0x10000BFA8, symSize: 0x28 }
  - { offsetInCU: 0x48A4B, offset: 0x48A4B, size: 0x8, addend: 0x0, symName: __ZNSt3__114__split_bufferI5TokenRNS_9allocatorIS1_EEE9__end_capB8ue170006Ev, symObjAddr: 0x8970, symBinAddr: 0x10000BFD0, symSize: 0x28 }
  - { offsetInCU: 0x48A71, offset: 0x48A71, size: 0x8, addend: 0x0, symName: __ZNSt3__117__compressed_pairIP5TokenRNS_9allocatorIS1_EEEC2B8ue170006IDnS5_EEOT_OT0_, symObjAddr: 0x8998, symBinAddr: 0x10000BFF8, symSize: 0x48 }
  - { offsetInCU: 0x48AC9, offset: 0x48AC9, size: 0x8, addend: 0x0, symName: __ZNSt3__122__compressed_pair_elemIRNS_9allocatorI5TokenEELi1ELb0EEC2B8ue170006IS4_vEEOT_, symObjAddr: 0x89E0, symBinAddr: 0x10000C040, symSize: 0x20 }
  - { offsetInCU: 0x48B0B, offset: 0x48B0B, size: 0x8, addend: 0x0, symName: __ZNSt3__19allocatorI5TokenE8allocateB8ue170006Em, symObjAddr: 0x8A00, symBinAddr: 0x10000C060, symSize: 0x5C }
  - { offsetInCU: 0x48B3F, offset: 0x48B3F, size: 0x8, addend: 0x0, symName: __ZNSt3__117__compressed_pairIP5TokenRNS_9allocatorIS1_EEE6secondB8ue170006Ev, symObjAddr: 0x8A5C, symBinAddr: 0x10000C0BC, symSize: 0x28 }
  - { offsetInCU: 0x48B65, offset: 0x48B65, size: 0x8, addend: 0x0, symName: __ZNSt3__122__compressed_pair_elemIRNS_9allocatorI5TokenEELi1ELb0EE5__getB8ue170006Ev, symObjAddr: 0x8A84, symBinAddr: 0x10000C0E4, symSize: 0x18 }
  - { offsetInCU: 0x48B8B, offset: 0x48B8B, size: 0x8, addend: 0x0, symName: __ZNSt3__117__compressed_pairIP5TokenRNS_9allocatorIS1_EEE5firstB8ue170006Ev, symObjAddr: 0x8A9C, symBinAddr: 0x10000C0FC, symSize: 0x24 }
  - { offsetInCU: 0x48BB1, offset: 0x48BB1, size: 0x8, addend: 0x0, symName: __ZNKSt3__16vectorI5TokenNS_9allocatorIS1_EEE17__annotate_deleteB8ue170006Ev, symObjAddr: 0x8AC0, symBinAddr: 0x10000C120, symSize: 0xD4 }
  - { offsetInCU: 0x48BD7, offset: 0x48BD7, size: 0x8, addend: 0x0, symName: __ZNSt3__116reverse_iteratorIP5TokenEC1B8ue170006ES2_, symObjAddr: 0x8CC0, symBinAddr: 0x10000C320, symSize: 0x34 }
  - { offsetInCU: 0x48C0F, offset: 0x48C0F, size: 0x8, addend: 0x0, symName: __ZNKSt3__116reverse_iteratorIP5TokenE4baseB8ue170006Ev, symObjAddr: 0x8CF4, symBinAddr: 0x10000C354, symSize: 0x18 }
  - { offsetInCU: 0x48C35, offset: 0x48C35, size: 0x8, addend: 0x0, symName: __ZNKSt3__16vectorI5TokenNS_9allocatorIS1_EEE14__annotate_newB8ue170006Em, symObjAddr: 0x8D48, symBinAddr: 0x10000C3A8, symSize: 0xC8 }
  - { offsetInCU: 0x48C6A, offset: 0x48C6A, size: 0x8, addend: 0x0, symName: __ZNKSt3__16vectorI5TokenNS_9allocatorIS1_EEE31__annotate_contiguous_containerB8ue170006EPKvS6_S6_S6_, symObjAddr: 0x8E10, symBinAddr: 0x10000C470, symSize: 0x20 }
  - { offsetInCU: 0x48CC0, offset: 0x48CC0, size: 0x8, addend: 0x0, symName: __ZNKSt3__16vectorI5TokenNS_9allocatorIS1_EEE4dataB8ue170006Ev, symObjAddr: 0x8E30, symBinAddr: 0x10000C490, symSize: 0x28 }
  - { offsetInCU: 0x48CE6, offset: 0x48CE6, size: 0x8, addend: 0x0, symName: __ZNSt3__129_AllocatorDestroyRangeReverseINS_9allocatorI5TokenEENS_16reverse_iteratorIPS2_EEEC1B8ue170006ERS3_RS6_S9_, symObjAddr: 0x8EA4, symBinAddr: 0x10000C504, symSize: 0x44 }
  - { offsetInCU: 0x48D3D, offset: 0x48D3D, size: 0x8, addend: 0x0, symName: __ZNSt3__116allocator_traitsINS_9allocatorI5TokenEEE9constructB8ue170006IS2_JRKS2_EvEEvRS3_PT_DpOT0_, symObjAddr: 0x8F30, symBinAddr: 0x10000C590, symSize: 0x34 }
  - { offsetInCU: 0x48D94, offset: 0x48D94, size: 0x8, addend: 0x0, symName: __ZNKSt3__116reverse_iteratorIP5TokenEdeB8ue170006Ev, symObjAddr: 0x8F88, symBinAddr: 0x10000C5E8, symSize: 0x28 }
  - { offsetInCU: 0x48DC8, offset: 0x48DC8, size: 0x8, addend: 0x0, symName: __ZNSt3__116reverse_iteratorIP5TokenEppB8ue170006Ev, symObjAddr: 0x8FB0, symBinAddr: 0x10000C610, symSize: 0x20 }
  - { offsetInCU: 0x48DEE, offset: 0x48DEE, size: 0x8, addend: 0x0, symName: __ZNSt3__128__exception_guard_exceptionsINS_29_AllocatorDestroyRangeReverseINS_9allocatorI5TokenEENS_16reverse_iteratorIPS3_EEEEE10__completeB8ue170006Ev, symObjAddr: 0x8FD0, symBinAddr: 0x10000C630, symSize: 0x1C }
  - { offsetInCU: 0x48E14, offset: 0x48E14, size: 0x8, addend: 0x0, symName: __ZNSt3__128__exception_guard_exceptionsINS_29_AllocatorDestroyRangeReverseINS_9allocatorI5TokenEENS_16reverse_iteratorIPS3_EEEEED1B8ue170006Ev, symObjAddr: 0x8FEC, symBinAddr: 0x10000C64C, symSize: 0x2C }
  - { offsetInCU: 0x48E3E, offset: 0x48E3E, size: 0x8, addend: 0x0, symName: __ZNSt3__128__exception_guard_exceptionsINS_29_AllocatorDestroyRangeReverseINS_9allocatorI5TokenEENS_16reverse_iteratorIPS3_EEEEEC1B8ue170006ES8_, symObjAddr: 0x9018, symBinAddr: 0x10000C678, symSize: 0x34 }
  - { offsetInCU: 0x48E77, offset: 0x48E77, size: 0x8, addend: 0x0, symName: __ZNSt3__128__exception_guard_exceptionsINS_29_AllocatorDestroyRangeReverseINS_9allocatorI5TokenEENS_16reverse_iteratorIPS3_EEEEEC2B8ue170006ES8_, symObjAddr: 0x904C, symBinAddr: 0x10000C6AC, symSize: 0x30 }
  - { offsetInCU: 0x48EB0, offset: 0x48EB0, size: 0x8, addend: 0x0, symName: __ZNSt3__129_AllocatorDestroyRangeReverseINS_9allocatorI5TokenEENS_16reverse_iteratorIPS2_EEEC2B8ue170006ERS3_RS6_S9_, symObjAddr: 0x907C, symBinAddr: 0x10000C6DC, symSize: 0x38 }
  - { offsetInCU: 0x48F07, offset: 0x48F07, size: 0x8, addend: 0x0, symName: __ZNSt3__19allocatorI5TokenE9constructB8ue170006IS1_JRKS1_EEEvPT_DpOT0_, symObjAddr: 0x90B4, symBinAddr: 0x10000C714, symSize: 0x30 }
  - { offsetInCU: 0x48F5D, offset: 0x48F5D, size: 0x8, addend: 0x0, symName: __ZN5TokenC1ERKS_, symObjAddr: 0x90E4, symBinAddr: 0x10000C744, symSize: 0x34 }
  - { offsetInCU: 0x48F92, offset: 0x48F92, size: 0x8, addend: 0x0, symName: __ZN5TokenC2ERKS_, symObjAddr: 0x9118, symBinAddr: 0x10000C778, symSize: 0x88 }
  - { offsetInCU: 0x48FC7, offset: 0x48FC7, size: 0x8, addend: 0x0, symName: __ZNSt3__113unordered_mapIN5Token9TokenTypeENS_12basic_stringIcNS_11char_traitsIcEENS_9allocatorIcEEEENS_4hashIS2_EENS_8equal_toIS2_EENS6_INS_4pairIKS2_S8_EEEEEC1ERKSH_, symObjAddr: 0x91A0, symBinAddr: 0x10000C800, symSize: 0x34 }
  - { offsetInCU: 0x49002, offset: 0x49002, size: 0x8, addend: 0x0, symName: __ZNSt3__113unordered_mapIN5Token9TokenTypeENS_12basic_stringIcNS_11char_traitsIcEENS_9allocatorIcEEEENS_4hashIS2_EENS_8equal_toIS2_EENS6_INS_4pairIKS2_S8_EEEEEC2ERKSH_, symObjAddr: 0x91D4, symBinAddr: 0x10000C834, symSize: 0xA0 }
  - { offsetInCU: 0x4903D, offset: 0x4903D, size: 0x8, addend: 0x0, symName: __ZNSt3__112__hash_tableINS_17__hash_value_typeIN5Token9TokenTypeENS_12basic_stringIcNS_11char_traitsIcEENS_9allocatorIcEEEEEENS_22__unordered_map_hasherIS3_SA_NS_4hashIS3_EENS_8equal_toIS3_EELb1EEENS_21__unordered_map_equalIS3_SA_SF_SD_Lb1EEENS7_ISA_EEEC1ERKSK_, symObjAddr: 0x9274, symBinAddr: 0x10000C8D4, symSize: 0x34 }
  - { offsetInCU: 0x49078, offset: 0x49078, size: 0x8, addend: 0x0, symName: __ZNKSt3__113unordered_mapIN5Token9TokenTypeENS_12basic_stringIcNS_11char_traitsIcEENS_9allocatorIcEEEENS_4hashIS2_EENS_8equal_toIS2_EENS6_INS_4pairIKS2_S8_EEEEE12bucket_countB8ue170006Ev, symObjAddr: 0x92A8, symBinAddr: 0x10000C908, symSize: 0x24 }
  - { offsetInCU: 0x4909E, offset: 0x4909E, size: 0x8, addend: 0x0, symName: __ZNSt3__113unordered_mapIN5Token9TokenTypeENS_12basic_stringIcNS_11char_traitsIcEENS_9allocatorIcEEEENS_4hashIS2_EENS_8equal_toIS2_EENS6_INS_4pairIKS2_S8_EEEEE6insertINS_25__hash_map_const_iteratorINS_21__hash_const_iteratorIPNS_11__hash_nodeINS_17__hash_value_typeIS2_S8_EEPvEEEEEEEEvT_ST_, symObjAddr: 0x92CC, symBinAddr: 0x10000C92C, symSize: 0x70 }
  - { offsetInCU: 0x490ED, offset: 0x490ED, size: 0x8, addend: 0x0, symName: __ZNKSt3__113unordered_mapIN5Token9TokenTypeENS_12basic_stringIcNS_11char_traitsIcEENS_9allocatorIcEEEENS_4hashIS2_EENS_8equal_toIS2_EENS6_INS_4pairIKS2_S8_EEEEE5beginB8ue170006Ev, symObjAddr: 0x933C, symBinAddr: 0x10000C99C, symSize: 0x38 }
  - { offsetInCU: 0x49113, offset: 0x49113, size: 0x8, addend: 0x0, symName: __ZNKSt3__113unordered_mapIN5Token9TokenTypeENS_12basic_stringIcNS_11char_traitsIcEENS_9allocatorIcEEEENS_4hashIS2_EENS_8equal_toIS2_EENS6_INS_4pairIKS2_S8_EEEEE3endB8ue170006Ev, symObjAddr: 0x9374, symBinAddr: 0x10000C9D4, symSize: 0x38 }
  - { offsetInCU: 0x49139, offset: 0x49139, size: 0x8, addend: 0x0, symName: __ZNSt3__112__hash_tableINS_17__hash_value_typeIN5Token9TokenTypeENS_12basic_stringIcNS_11char_traitsIcEENS_9allocatorIcEEEEEENS_22__unordered_map_hasherIS3_SA_NS_4hashIS3_EENS_8equal_toIS3_EELb1EEENS_21__unordered_map_equalIS3_SA_SF_SD_Lb1EEENS7_ISA_EEEC2ERKSK_, symObjAddr: 0x93AC, symBinAddr: 0x10000CA0C, symSize: 0xEC }
  - { offsetInCU: 0x49174, offset: 0x49174, size: 0x8, addend: 0x0, symName: __ZNSt3__116allocator_traitsINS_9allocatorIPNS_16__hash_node_baseIPNS_11__hash_nodeINS_17__hash_value_typeIN5Token9TokenTypeENS_12basic_stringIcNS_11char_traitsIcEENS1_IcEEEEEEPvEEEEEEE37select_on_container_copy_constructionB8ue170006ISI_vvEESI_RKSI_, symObjAddr: 0x9498, symBinAddr: 0x10000CAF8, symSize: 0x10 }
  - { offsetInCU: 0x491A3, offset: 0x491A3, size: 0x8, addend: 0x0, symName: __ZNKSt3__125__bucket_list_deallocatorINS_9allocatorIPNS_16__hash_node_baseIPNS_11__hash_nodeINS_17__hash_value_typeIN5Token9TokenTypeENS_12basic_stringIcNS_11char_traitsIcEENS1_IcEEEEEEPvEEEEEEE7__allocB8ue170006Ev, symObjAddr: 0x94A8, symBinAddr: 0x10000CB08, symSize: 0x24 }
  - { offsetInCU: 0x491C9, offset: 0x491C9, size: 0x8, addend: 0x0, symName: __ZNSt3__125__bucket_list_deallocatorINS_9allocatorIPNS_16__hash_node_baseIPNS_11__hash_nodeINS_17__hash_value_typeIN5Token9TokenTypeENS_12basic_stringIcNS_11char_traitsIcEENS1_IcEEEEEEPvEEEEEEEC1B8ue170006ERKSI_m, symObjAddr: 0x94CC, symBinAddr: 0x10000CB2C, symSize: 0x3C }
  - { offsetInCU: 0x49211, offset: 0x49211, size: 0x8, addend: 0x0, symName: __ZNSt3__110unique_ptrIA_PNS_16__hash_node_baseIPNS_11__hash_nodeINS_17__hash_value_typeIN5Token9TokenTypeENS_12basic_stringIcNS_11char_traitsIcEENS_9allocatorIcEEEEEEPvEEEENS_25__bucket_list_deallocatorINS9_ISH_EEEEEC1B8ue170006ILb1EvEEDnNS_16__dependent_typeINS_27__unique_ptr_deleter_sfinaeISL_EEXT_EE20__good_rval_ref_typeE, symObjAddr: 0x9508, symBinAddr: 0x10000CB68, symSize: 0x3C }
  - { offsetInCU: 0x49261, offset: 0x49261, size: 0x8, addend: 0x0, symName: __ZNSt3__116allocator_traitsINS_9allocatorINS_11__hash_nodeINS_17__hash_value_typeIN5Token9TokenTypeENS_12basic_stringIcNS_11char_traitsIcEENS1_IcEEEEEEPvEEEEE37select_on_container_copy_constructionB8ue170006ISE_vvEESE_RKSE_, symObjAddr: 0x9544, symBinAddr: 0x10000CBA4, symSize: 0x10 }
  - { offsetInCU: 0x49290, offset: 0x49290, size: 0x8, addend: 0x0, symName: __ZNKSt3__112__hash_tableINS_17__hash_value_typeIN5Token9TokenTypeENS_12basic_stringIcNS_11char_traitsIcEENS_9allocatorIcEEEEEENS_22__unordered_map_hasherIS3_SA_NS_4hashIS3_EENS_8equal_toIS3_EELb1EEENS_21__unordered_map_equalIS3_SA_SF_SD_Lb1EEENS7_ISA_EEE12__node_allocB8ue170006Ev, symObjAddr: 0x9554, symBinAddr: 0x10000CBB4, symSize: 0x28 }
  - { offsetInCU: 0x492BC, offset: 0x492BC, size: 0x8, addend: 0x0, symName: __ZNSt3__117__compressed_pairINS_16__hash_node_baseIPNS_11__hash_nodeINS_17__hash_value_typeIN5Token9TokenTypeENS_12basic_stringIcNS_11char_traitsIcEENS_9allocatorIcEEEEEEPvEEEENS9_ISE_EEEC1B8ue170006INS_18__default_init_tagESH_EEOT_OT0_, symObjAddr: 0x957C, symBinAddr: 0x10000CBDC, symSize: 0x3C }
  - { offsetInCU: 0x49314, offset: 0x49314, size: 0x8, addend: 0x0, symName: __ZNKSt3__112__hash_tableINS_17__hash_value_typeIN5Token9TokenTypeENS_12basic_stringIcNS_11char_traitsIcEENS_9allocatorIcEEEEEENS_22__unordered_map_hasherIS3_SA_NS_4hashIS3_EENS_8equal_toIS3_EELb1EEENS_21__unordered_map_equalIS3_SA_SF_SD_Lb1EEENS7_ISA_EEE13hash_functionB8ue170006Ev, symObjAddr: 0x95B8, symBinAddr: 0x10000CC18, symSize: 0x28 }
  - { offsetInCU: 0x4933A, offset: 0x4933A, size: 0x8, addend: 0x0, symName: __ZNSt3__117__compressed_pairImNS_22__unordered_map_hasherIN5Token9TokenTypeENS_17__hash_value_typeIS3_NS_12basic_stringIcNS_11char_traitsIcEENS_9allocatorIcEEEEEENS_4hashIS3_EENS_8equal_toIS3_EELb1EEEEC1B8ue170006IiRKSG_EEOT_OT0_, symObjAddr: 0x95E0, symBinAddr: 0x10000CC40, symSize: 0x3C }
  - { offsetInCU: 0x49392, offset: 0x49392, size: 0x8, addend: 0x0, symName: __ZNKSt3__117__compressed_pairImNS_9allocatorIPNS_16__hash_node_baseIPNS_11__hash_nodeINS_17__hash_value_typeIN5Token9TokenTypeENS_12basic_stringIcNS_11char_traitsIcEENS1_IcEEEEEEPvEEEEEEE6secondB8ue170006Ev, symObjAddr: 0x961C, symBinAddr: 0x10000CC7C, symSize: 0x24 }
  - { offsetInCU: 0x493B8, offset: 0x493B8, size: 0x8, addend: 0x0, symName: __ZNKSt3__122__compressed_pair_elemINS_9allocatorIPNS_16__hash_node_baseIPNS_11__hash_nodeINS_17__hash_value_typeIN5Token9TokenTypeENS_12basic_stringIcNS_11char_traitsIcEENS1_IcEEEEEEPvEEEEEELi1ELb1EE5__getB8ue170006Ev, symObjAddr: 0x9640, symBinAddr: 0x10000CCA0, symSize: 0x14 }
  - { offsetInCU: 0x493DE, offset: 0x493DE, size: 0x8, addend: 0x0, symName: __ZNSt3__125__bucket_list_deallocatorINS_9allocatorIPNS_16__hash_node_baseIPNS_11__hash_nodeINS_17__hash_value_typeIN5Token9TokenTypeENS_12basic_stringIcNS_11char_traitsIcEENS1_IcEEEEEEPvEEEEEEEC2B8ue170006ERKSI_m, symObjAddr: 0x9654, symBinAddr: 0x10000CCB4, symSize: 0x44 }
  - { offsetInCU: 0x49426, offset: 0x49426, size: 0x8, addend: 0x0, symName: __ZNSt3__117__compressed_pairImNS_9allocatorIPNS_16__hash_node_baseIPNS_11__hash_nodeINS_17__hash_value_typeIN5Token9TokenTypeENS_12basic_stringIcNS_11char_traitsIcEENS1_IcEEEEEEPvEEEEEEEC1B8ue170006IRmRKSI_EEOT_OT0_, symObjAddr: 0x9698, symBinAddr: 0x10000CCF8, symSize: 0x3C }
  - { offsetInCU: 0x4947E, offset: 0x4947E, size: 0x8, addend: 0x0, symName: __ZNSt3__117__compressed_pairImNS_9allocatorIPNS_16__hash_node_baseIPNS_11__hash_nodeINS_17__hash_value_typeIN5Token9TokenTypeENS_12basic_stringIcNS_11char_traitsIcEENS1_IcEEEEEEPvEEEEEEEC2B8ue170006IRmRKSI_EEOT_OT0_, symObjAddr: 0x96D4, symBinAddr: 0x10000CD34, symSize: 0x44 }
  - { offsetInCU: 0x494D6, offset: 0x494D6, size: 0x8, addend: 0x0, symName: __ZNSt3__122__compressed_pair_elemImLi0ELb0EEC2B8ue170006IRmvEEOT_, symObjAddr: 0x9718, symBinAddr: 0x10000CD78, symSize: 0x24 }
  - { offsetInCU: 0x49518, offset: 0x49518, size: 0x8, addend: 0x0, symName: __ZNSt3__122__compressed_pair_elemINS_9allocatorIPNS_16__hash_node_baseIPNS_11__hash_nodeINS_17__hash_value_typeIN5Token9TokenTypeENS_12basic_stringIcNS_11char_traitsIcEENS1_IcEEEEEEPvEEEEEELi1ELb1EEC2B8ue170006IRKSI_vEEOT_, symObjAddr: 0x973C, symBinAddr: 0x10000CD9C, symSize: 0x18 }
  - { offsetInCU: 0x4955A, offset: 0x4955A, size: 0x8, addend: 0x0, symName: __ZNSt3__110unique_ptrIA_PNS_16__hash_node_baseIPNS_11__hash_nodeINS_17__hash_value_typeIN5Token9TokenTypeENS_12basic_stringIcNS_11char_traitsIcEENS_9allocatorIcEEEEEEPvEEEENS_25__bucket_list_deallocatorINS9_ISH_EEEEEC2B8ue170006ILb1EvEEDnNS_16__dependent_typeINS_27__unique_ptr_deleter_sfinaeISL_EEXT_EE20__good_rval_ref_typeE, symObjAddr: 0x9754, symBinAddr: 0x10000CDB4, symSize: 0x48 }
  - { offsetInCU: 0x495AA, offset: 0x495AA, size: 0x8, addend: 0x0, symName: __ZNSt3__117__compressed_pairIPPNS_16__hash_node_baseIPNS_11__hash_nodeINS_17__hash_value_typeIN5Token9TokenTypeENS_12basic_stringIcNS_11char_traitsIcEENS_9allocatorIcEEEEEEPvEEEENS_25__bucket_list_deallocatorINS9_ISH_EEEEEC1B8ue170006IDnSL_EEOT_OT0_, symObjAddr: 0x979C, symBinAddr: 0x10000CDFC, symSize: 0x3C }
  - { offsetInCU: 0x49602, offset: 0x49602, size: 0x8, addend: 0x0, symName: __ZNSt3__117__compressed_pairIPPNS_16__hash_node_baseIPNS_11__hash_nodeINS_17__hash_value_typeIN5Token9TokenTypeENS_12basic_stringIcNS_11char_traitsIcEENS_9allocatorIcEEEEEEPvEEEENS_25__bucket_list_deallocatorINS9_ISH_EEEEEC2B8ue170006IDnSL_EEOT_OT0_, symObjAddr: 0x97D8, symBinAddr: 0x10000CE38, symSize: 0x48 }
  - { offsetInCU: 0x4965A, offset: 0x4965A, size: 0x8, addend: 0x0, symName: __ZNSt3__122__compressed_pair_elemIPPNS_16__hash_node_baseIPNS_11__hash_nodeINS_17__hash_value_typeIN5Token9TokenTypeENS_12basic_stringIcNS_11char_traitsIcEENS_9allocatorIcEEEEEEPvEEEELi0ELb0EEC2B8ue170006IDnvEEOT_, symObjAddr: 0x9820, symBinAddr: 0x10000CE80, symSize: 0x1C }
  - { offsetInCU: 0x4969C, offset: 0x4969C, size: 0x8, addend: 0x0, symName: __ZNSt3__122__compressed_pair_elemINS_25__bucket_list_deallocatorINS_9allocatorIPNS_16__hash_node_baseIPNS_11__hash_nodeINS_17__hash_value_typeIN5Token9TokenTypeENS_12basic_stringIcNS_11char_traitsIcEENS2_IcEEEEEEPvEEEEEEEELi1ELb0EEC2B8ue170006ISK_vEEOT_, symObjAddr: 0x983C, symBinAddr: 0x10000CE9C, symSize: 0x34 }
  - { offsetInCU: 0x496DE, offset: 0x496DE, size: 0x8, addend: 0x0, symName: __ZNSt3__125__bucket_list_deallocatorINS_9allocatorIPNS_16__hash_node_baseIPNS_11__hash_nodeINS_17__hash_value_typeIN5Token9TokenTypeENS_12basic_stringIcNS_11char_traitsIcEENS1_IcEEEEEEPvEEEEEEEC1B8ue170006EOSJ_, symObjAddr: 0x9870, symBinAddr: 0x10000CED0, symSize: 0x34 }
  - { offsetInCU: 0x49717, offset: 0x49717, size: 0x8, addend: 0x0, symName: __ZNSt3__125__bucket_list_deallocatorINS_9allocatorIPNS_16__hash_node_baseIPNS_11__hash_nodeINS_17__hash_value_typeIN5Token9TokenTypeENS_12basic_stringIcNS_11char_traitsIcEENS1_IcEEEEEEPvEEEEEEEC2B8ue170006EOSJ_, symObjAddr: 0x98A4, symBinAddr: 0x10000CF04, symSize: 0x48 }
  - { offsetInCU: 0x49750, offset: 0x49750, size: 0x8, addend: 0x0, symName: __ZNKSt3__117__compressed_pairINS_16__hash_node_baseIPNS_11__hash_nodeINS_17__hash_value_typeIN5Token9TokenTypeENS_12basic_stringIcNS_11char_traitsIcEENS_9allocatorIcEEEEEEPvEEEENS9_ISE_EEE6secondB8ue170006Ev, symObjAddr: 0x98EC, symBinAddr: 0x10000CF4C, symSize: 0x24 }
  - { offsetInCU: 0x49776, offset: 0x49776, size: 0x8, addend: 0x0, symName: __ZNKSt3__122__compressed_pair_elemINS_9allocatorINS_11__hash_nodeINS_17__hash_value_typeIN5Token9TokenTypeENS_12basic_stringIcNS_11char_traitsIcEENS1_IcEEEEEEPvEEEELi1ELb1EE5__getB8ue170006Ev, symObjAddr: 0x9910, symBinAddr: 0x10000CF70, symSize: 0x14 }
  - { offsetInCU: 0x4979C, offset: 0x4979C, size: 0x8, addend: 0x0, symName: __ZNSt3__117__compressed_pairINS_16__hash_node_baseIPNS_11__hash_nodeINS_17__hash_value_typeIN5Token9TokenTypeENS_12basic_stringIcNS_11char_traitsIcEENS_9allocatorIcEEEEEEPvEEEENS9_ISE_EEEC2B8ue170006INS_18__default_init_tagESH_EEOT_OT0_, symObjAddr: 0x9924, symBinAddr: 0x10000CF84, symSize: 0x40 }
  - { offsetInCU: 0x497F4, offset: 0x497F4, size: 0x8, addend: 0x0, symName: __ZNSt3__122__compressed_pair_elemINS_16__hash_node_baseIPNS_11__hash_nodeINS_17__hash_value_typeIN5Token9TokenTypeENS_12basic_stringIcNS_11char_traitsIcEENS_9allocatorIcEEEEEEPvEEEELi0ELb0EEC2B8ue170006ENS_18__default_init_tagE, symObjAddr: 0x9964, symBinAddr: 0x10000CFC4, symSize: 0x2C }
  - { offsetInCU: 0x49828, offset: 0x49828, size: 0x8, addend: 0x0, symName: __ZNSt3__122__compressed_pair_elemINS_9allocatorINS_11__hash_nodeINS_17__hash_value_typeIN5Token9TokenTypeENS_12basic_stringIcNS_11char_traitsIcEENS1_IcEEEEEEPvEEEELi1ELb1EEC2B8ue170006ISE_vEEOT_, symObjAddr: 0x9990, symBinAddr: 0x10000CFF0, symSize: 0x18 }
  - { offsetInCU: 0x4986A, offset: 0x4986A, size: 0x8, addend: 0x0, symName: __ZNKSt3__117__compressed_pairImNS_22__unordered_map_hasherIN5Token9TokenTypeENS_17__hash_value_typeIS3_NS_12basic_stringIcNS_11char_traitsIcEENS_9allocatorIcEEEEEENS_4hashIS3_EENS_8equal_toIS3_EELb1EEEE6secondB8ue170006Ev, symObjAddr: 0x99A8, symBinAddr: 0x10000D008, symSize: 0x24 }
  - { offsetInCU: 0x49890, offset: 0x49890, size: 0x8, addend: 0x0, symName: __ZNKSt3__122__compressed_pair_elemINS_22__unordered_map_hasherIN5Token9TokenTypeENS_17__hash_value_typeIS3_NS_12basic_stringIcNS_11char_traitsIcEENS_9allocatorIcEEEEEENS_4hashIS3_EENS_8equal_toIS3_EELb1EEELi1ELb1EE5__getB8ue170006Ev, symObjAddr: 0x99CC, symBinAddr: 0x10000D02C, symSize: 0x14 }
  - { offsetInCU: 0x498B6, offset: 0x498B6, size: 0x8, addend: 0x0, symName: __ZNSt3__117__compressed_pairImNS_22__unordered_map_hasherIN5Token9TokenTypeENS_17__hash_value_typeIS3_NS_12basic_stringIcNS_11char_traitsIcEENS_9allocatorIcEEEEEENS_4hashIS3_EENS_8equal_toIS3_EELb1EEEEC2B8ue170006IiRKSG_EEOT_OT0_, symObjAddr: 0x99E0, symBinAddr: 0x10000D040, symSize: 0x44 }
  - { offsetInCU: 0x4990E, offset: 0x4990E, size: 0x8, addend: 0x0, symName: __ZNSt3__122__compressed_pair_elemINS_22__unordered_map_hasherIN5Token9TokenTypeENS_17__hash_value_typeIS3_NS_12basic_stringIcNS_11char_traitsIcEENS_9allocatorIcEEEEEENS_4hashIS3_EENS_8equal_toIS3_EELb1EEELi1ELb1EEC2B8ue170006IRKSG_vEEOT_, symObjAddr: 0x9A24, symBinAddr: 0x10000D084, symSize: 0x18 }
  - { offsetInCU: 0x49950, offset: 0x49950, size: 0x8, addend: 0x0, symName: __ZNKSt3__125__hash_map_const_iteratorINS_21__hash_const_iteratorIPNS_11__hash_nodeINS_17__hash_value_typeIN5Token9TokenTypeENS_12basic_stringIcNS_11char_traitsIcEENS_9allocatorIcEEEEEEPvEEEEEdeB8ue170006Ev, symObjAddr: 0x9A6C, symBinAddr: 0x10000D0CC, symSize: 0x28 }
  - { offsetInCU: 0x49976, offset: 0x49976, size: 0x8, addend: 0x0, symName: __ZNSt3__125__hash_map_const_iteratorINS_21__hash_const_iteratorIPNS_11__hash_nodeINS_17__hash_value_typeIN5Token9TokenTypeENS_12basic_stringIcNS_11char_traitsIcEENS_9allocatorIcEEEEEEPvEEEEEppB8ue170006Ev, symObjAddr: 0x9A94, symBinAddr: 0x10000D0F4, symSize: 0x2C }
  - { offsetInCU: 0x4999C, offset: 0x4999C, size: 0x8, addend: 0x0, symName: __ZNKSt3__121__hash_const_iteratorIPNS_11__hash_nodeINS_17__hash_value_typeIN5Token9TokenTypeENS_12basic_stringIcNS_11char_traitsIcEENS_9allocatorIcEEEEEEPvEEEptB8ue170006Ev, symObjAddr: 0x9B24, symBinAddr: 0x10000D184, symSize: 0x30 }
  - { offsetInCU: 0x499C2, offset: 0x499C2, size: 0x8, addend: 0x0, symName: __ZNSt3__114pointer_traitsIPKNS_17__hash_value_typeIN5Token9TokenTypeENS_12basic_stringIcNS_11char_traitsIcEENS_9allocatorIcEEEEEEE10pointer_toB8ue170006ERSB_, symObjAddr: 0x9B54, symBinAddr: 0x10000D1B4, symSize: 0x14 }
  - { offsetInCU: 0x499E5, offset: 0x499E5, size: 0x8, addend: 0x0, symName: __ZNSt3__121__hash_const_iteratorIPNS_11__hash_nodeINS_17__hash_value_typeIN5Token9TokenTypeENS_12basic_stringIcNS_11char_traitsIcEENS_9allocatorIcEEEEEEPvEEEppB8ue170006Ev, symObjAddr: 0x9B68, symBinAddr: 0x10000D1C8, symSize: 0x20 }
  - { offsetInCU: 0x49A0B, offset: 0x49A0B, size: 0x8, addend: 0x0, symName: __ZNKSt3__112__hash_tableINS_17__hash_value_typeIN5Token9TokenTypeENS_12basic_stringIcNS_11char_traitsIcEENS_9allocatorIcEEEEEENS_22__unordered_map_hasherIS3_SA_NS_4hashIS3_EENS_8equal_toIS3_EELb1EEENS_21__unordered_map_equalIS3_SA_SF_SD_Lb1EEENS7_ISA_EEE5beginEv, symObjAddr: 0x9B88, symBinAddr: 0x10000D1E8, symSize: 0x38 }
  - { offsetInCU: 0x49A33, offset: 0x49A33, size: 0x8, addend: 0x0, symName: __ZNSt3__125__hash_map_const_iteratorINS_21__hash_const_iteratorIPNS_11__hash_nodeINS_17__hash_value_typeIN5Token9TokenTypeENS_12basic_stringIcNS_11char_traitsIcEENS_9allocatorIcEEEEEEPvEEEEEC1B8ue170006ESG_, symObjAddr: 0x9BC0, symBinAddr: 0x10000D220, symSize: 0x34 }
  - { offsetInCU: 0x49A6C, offset: 0x49A6C, size: 0x8, addend: 0x0, symName: __ZNKSt3__117__compressed_pairINS_16__hash_node_baseIPNS_11__hash_nodeINS_17__hash_value_typeIN5Token9TokenTypeENS_12basic_stringIcNS_11char_traitsIcEENS_9allocatorIcEEEEEEPvEEEENS9_ISE_EEE5firstB8ue170006Ev, symObjAddr: 0x9BF4, symBinAddr: 0x10000D254, symSize: 0x24 }
  - { offsetInCU: 0x49A92, offset: 0x49A92, size: 0x8, addend: 0x0, symName: __ZNSt3__121__hash_const_iteratorIPNS_11__hash_nodeINS_17__hash_value_typeIN5Token9TokenTypeENS_12basic_stringIcNS_11char_traitsIcEENS_9allocatorIcEEEEEEPvEEEC1B8ue170006EPNS_16__hash_node_baseISE_EE, symObjAddr: 0x9C18, symBinAddr: 0x10000D278, symSize: 0x34 }
  - { offsetInCU: 0x49ACB, offset: 0x49ACB, size: 0x8, addend: 0x0, symName: __ZNKSt3__122__compressed_pair_elemINS_16__hash_node_baseIPNS_11__hash_nodeINS_17__hash_value_typeIN5Token9TokenTypeENS_12basic_stringIcNS_11char_traitsIcEENS_9allocatorIcEEEEEEPvEEEELi0ELb0EE5__getB8ue170006Ev, symObjAddr: 0x9C4C, symBinAddr: 0x10000D2AC, symSize: 0x14 }
  - { offsetInCU: 0x49AF1, offset: 0x49AF1, size: 0x8, addend: 0x0, symName: __ZNSt3__121__hash_const_iteratorIPNS_11__hash_nodeINS_17__hash_value_typeIN5Token9TokenTypeENS_12basic_stringIcNS_11char_traitsIcEENS_9allocatorIcEEEEEEPvEEEC2B8ue170006EPNS_16__hash_node_baseISE_EE, symObjAddr: 0x9C60, symBinAddr: 0x10000D2C0, symSize: 0x20 }
  - { offsetInCU: 0x49B2A, offset: 0x49B2A, size: 0x8, addend: 0x0, symName: __ZNSt3__125__hash_map_const_iteratorINS_21__hash_const_iteratorIPNS_11__hash_nodeINS_17__hash_value_typeIN5Token9TokenTypeENS_12basic_stringIcNS_11char_traitsIcEENS_9allocatorIcEEEEEEPvEEEEEC2B8ue170006ESG_, symObjAddr: 0x9C80, symBinAddr: 0x10000D2E0, symSize: 0x20 }
  - { offsetInCU: 0x49B63, offset: 0x49B63, size: 0x8, addend: 0x0, symName: __ZNKSt3__112__hash_tableINS_17__hash_value_typeIN5Token9TokenTypeENS_12basic_stringIcNS_11char_traitsIcEENS_9allocatorIcEEEEEENS_22__unordered_map_hasherIS3_SA_NS_4hashIS3_EENS_8equal_toIS3_EELb1EEENS_21__unordered_map_equalIS3_SA_SF_SD_Lb1EEENS7_ISA_EEE3endEv, symObjAddr: 0x9CA0, symBinAddr: 0x10000D300, symSize: 0x2C }
  - { offsetInCU: 0x49B91, offset: 0x49B91, size: 0x8, addend: 0x0, symName: __ZNSt3__119__to_address_helperINS_16reverse_iteratorIP5TokenEEvE6__callB8ue170006ERKS4_, symObjAddr: 0x9CCC, symBinAddr: 0x10000D32C, symSize: 0x38 }
  - { offsetInCU: 0x49BB4, offset: 0x49BB4, size: 0x8, addend: 0x0, symName: __ZNKSt3__116reverse_iteratorIP5TokenEptB8ue170006Ev, symObjAddr: 0x9D04, symBinAddr: 0x10000D364, symSize: 0x24 }
  - { offsetInCU: 0x49BDA, offset: 0x49BDA, size: 0x8, addend: 0x0, symName: __ZNSt3__128__exception_guard_exceptionsINS_29_AllocatorDestroyRangeReverseINS_9allocatorI5TokenEENS_16reverse_iteratorIPS3_EEEEED2B8ue170006Ev, symObjAddr: 0x9D28, symBinAddr: 0x10000D388, symSize: 0x50 }
  - { offsetInCU: 0x49C04, offset: 0x49C04, size: 0x8, addend: 0x0, symName: __ZNKSt3__129_AllocatorDestroyRangeReverseINS_9allocatorI5TokenEENS_16reverse_iteratorIPS2_EEEclB8ue170006Ev, symObjAddr: 0x9D78, symBinAddr: 0x10000D3D8, symSize: 0xB4 }
  - { offsetInCU: 0x49C2B, offset: 0x49C2B, size: 0x8, addend: 0x0, symName: __ZNSt3__116reverse_iteratorINS0_IP5TokenEEEC1B8ue170006ES3_, symObjAddr: 0x9E9C, symBinAddr: 0x10000D4FC, symSize: 0x3C }
  - { offsetInCU: 0x49C63, offset: 0x49C63, size: 0x8, addend: 0x0, symName: __ZNSt3__116allocator_traitsINS_9allocatorI5TokenEEE7destroyB8ue170006IS2_vEEvRS3_PT_, symObjAddr: 0x9F38, symBinAddr: 0x10000D598, symSize: 0x2C }
  - { offsetInCU: 0x49CA0, offset: 0x49CA0, size: 0x8, addend: 0x0, symName: __ZNSt3__116reverse_iteratorINS0_IP5TokenEEEppB8ue170006Ev, symObjAddr: 0x9F88, symBinAddr: 0x10000D5E8, symSize: 0x30 }
  - { offsetInCU: 0x49CC6, offset: 0x49CC6, size: 0x8, addend: 0x0, symName: __ZNKSt3__116reverse_iteratorINS0_IP5TokenEEE4baseB8ue170006Ev, symObjAddr: 0x9FB8, symBinAddr: 0x10000D618, symSize: 0x24 }
  - { offsetInCU: 0x49CEC, offset: 0x49CEC, size: 0x8, addend: 0x0, symName: __ZNSt3__19allocatorI5TokenE7destroyB8ue170006EPS1_, symObjAddr: 0x9FDC, symBinAddr: 0x10000D63C, symSize: 0x28 }
  - { offsetInCU: 0x49D20, offset: 0x49D20, size: 0x8, addend: 0x0, symName: __ZN5TokenD1Ev, symObjAddr: 0xA004, symBinAddr: 0x10000D664, symSize: 0x2C }
  - { offsetInCU: 0x49D4C, offset: 0x49D4C, size: 0x8, addend: 0x0, symName: __ZN5TokenD2Ev, symObjAddr: 0xA030, symBinAddr: 0x10000D690, symSize: 0x38 }
  - { offsetInCU: 0x49D7E, offset: 0x49D7E, size: 0x8, addend: 0x0, symName: __ZNSt3__119__to_address_helperINS_16reverse_iteratorINS1_IP5TokenEEEEvE6__callB8ue170006ERKS5_, symObjAddr: 0xA068, symBinAddr: 0x10000D6C8, symSize: 0x38 }
  - { offsetInCU: 0x49DA1, offset: 0x49DA1, size: 0x8, addend: 0x0, symName: __ZNKSt3__116reverse_iteratorINS0_IP5TokenEEEptB8ue170006Ev, symObjAddr: 0xA0A0, symBinAddr: 0x10000D700, symSize: 0x24 }
  - { offsetInCU: 0x49DC7, offset: 0x49DC7, size: 0x8, addend: 0x0, symName: __ZNKSt3__116reverse_iteratorINS0_IP5TokenEEEdeB8ue170006Ev, symObjAddr: 0xA0C4, symBinAddr: 0x10000D724, symSize: 0x34 }
  - { offsetInCU: 0x49DFB, offset: 0x49DFB, size: 0x8, addend: 0x0, symName: __ZNSt3__116reverse_iteratorIP5TokenEmmB8ue170006Ev, symObjAddr: 0xA0F8, symBinAddr: 0x10000D758, symSize: 0x20 }
  - { offsetInCU: 0x49E21, offset: 0x49E21, size: 0x8, addend: 0x0, symName: __ZNSt3__116reverse_iteratorINS0_IP5TokenEEEC2B8ue170006ES3_, symObjAddr: 0xA118, symBinAddr: 0x10000D778, symSize: 0x2C }
  - { offsetInCU: 0x49E59, offset: 0x49E59, size: 0x8, addend: 0x0, symName: __ZNSt3__116reverse_iteratorIP5TokenEC2B8ue170006ES2_, symObjAddr: 0xA144, symBinAddr: 0x10000D7A4, symSize: 0x28 }
  - { offsetInCU: 0x49E91, offset: 0x49E91, size: 0x8, addend: 0x0, symName: __ZNSt3__114__split_bufferI5TokenRNS_9allocatorIS1_EEED2Ev, symObjAddr: 0xA16C, symBinAddr: 0x10000D7CC, symSize: 0x8C }
  - { offsetInCU: 0x49EBD, offset: 0x49EBD, size: 0x8, addend: 0x0, symName: __ZNSt3__114__split_bufferI5TokenRNS_9allocatorIS1_EEE5clearB8ue170006Ev, symObjAddr: 0xA1F8, symBinAddr: 0x10000D858, symSize: 0x28 }
  - { offsetInCU: 0x49EE3, offset: 0x49EE3, size: 0x8, addend: 0x0, symName: __ZNSt3__116allocator_traitsINS_9allocatorI5TokenEEE10deallocateB8ue170006ERS3_PS2_m, symObjAddr: 0xA220, symBinAddr: 0x10000D880, symSize: 0x34 }
  - { offsetInCU: 0x49F25, offset: 0x49F25, size: 0x8, addend: 0x0, symName: __ZNKSt3__114__split_bufferI5TokenRNS_9allocatorIS1_EEE8capacityB8ue170006Ev, symObjAddr: 0xA254, symBinAddr: 0x10000D8B4, symSize: 0x40 }
  - { offsetInCU: 0x49F4B, offset: 0x49F4B, size: 0x8, addend: 0x0, symName: __ZNSt3__114__split_bufferI5TokenRNS_9allocatorIS1_EEE17__destruct_at_endB8ue170006EPS1_, symObjAddr: 0xA294, symBinAddr: 0x10000D8F4, symSize: 0x2C }
  - { offsetInCU: 0x49F7F, offset: 0x49F7F, size: 0x8, addend: 0x0, symName: __ZNSt3__114__split_bufferI5TokenRNS_9allocatorIS1_EEE17__destruct_at_endB8ue170006EPS1_NS_17integral_constantIbLb0EEE, symObjAddr: 0xA2C0, symBinAddr: 0x10000D920, symSize: 0x80 }
  - { offsetInCU: 0x49FBF, offset: 0x49FBF, size: 0x8, addend: 0x0, symName: __ZNSt3__19allocatorI5TokenE10deallocateB8ue170006EPS1_m, symObjAddr: 0xA340, symBinAddr: 0x10000D9A0, symSize: 0x44 }
  - { offsetInCU: 0x4A001, offset: 0x4A001, size: 0x8, addend: 0x0, symName: __ZNKSt3__114__split_bufferI5TokenRNS_9allocatorIS1_EEE9__end_capB8ue170006Ev, symObjAddr: 0xA384, symBinAddr: 0x10000D9E4, symSize: 0x28 }
  - { offsetInCU: 0x4A027, offset: 0x4A027, size: 0x8, addend: 0x0, symName: __ZNKSt3__117__compressed_pairIP5TokenRNS_9allocatorIS1_EEE5firstB8ue170006Ev, symObjAddr: 0xA3AC, symBinAddr: 0x10000DA0C, symSize: 0x24 }
  - { offsetInCU: 0x4A04D, offset: 0x4A04D, size: 0x8, addend: 0x0, symName: __ZNSt3__16vectorI5TokenNS_9allocatorIS1_EEE22__construct_one_at_endB8ue170006IJNS1_9TokenTypeERA6_KcRiEEEvDpOT_, symObjAddr: 0xA3D0, symBinAddr: 0x10000DA30, symSize: 0xA0 }
  - { offsetInCU: 0x4A0C4, offset: 0x4A0C4, size: 0x8, addend: 0x0, symName: __ZNSt3__16vectorI5TokenNS_9allocatorIS1_EEE24__emplace_back_slow_pathIJNS1_9TokenTypeERA6_KcRiEEEvDpOT_, symObjAddr: 0xA470, symBinAddr: 0x10000DAD0, symSize: 0xE8 }
  - { offsetInCU: 0x4A14C, offset: 0x4A14C, size: 0x8, addend: 0x0, symName: __ZNSt3__116allocator_traitsINS_9allocatorI5TokenEEE9constructB8ue170006IS2_JNS2_9TokenTypeERA6_KcRiEvEEvRS3_PT_DpOT0_, symObjAddr: 0xA558, symBinAddr: 0x10000DBB8, symSize: 0x44 }
  - { offsetInCU: 0x4A1CB, offset: 0x4A1CB, size: 0x8, addend: 0x0, symName: __ZNSt3__19allocatorI5TokenE9constructB8ue170006IS1_JNS1_9TokenTypeERA6_KcRiEEEvPT_DpOT0_, symObjAddr: 0xA59C, symBinAddr: 0x10000DBFC, symSize: 0x94 }
  - { offsetInCU: 0x4A247, offset: 0x4A247, size: 0x8, addend: 0x0, symName: __ZNSt3__16vectorI5TokenNS_9allocatorIS1_EEE22__construct_one_at_endB8ue170006IJNS1_9TokenTypeERNS_12basic_stringIcNS_11char_traitsIcEENS2_IcEEEERiEEEvDpOT_, symObjAddr: 0xA630, symBinAddr: 0x10000DC90, symSize: 0xA0 }
  - { offsetInCU: 0x4A2BE, offset: 0x4A2BE, size: 0x8, addend: 0x0, symName: __ZNSt3__16vectorI5TokenNS_9allocatorIS1_EEE24__emplace_back_slow_pathIJNS1_9TokenTypeERNS_12basic_stringIcNS_11char_traitsIcEENS2_IcEEEERiEEEvDpOT_, symObjAddr: 0xA6D0, symBinAddr: 0x10000DD30, symSize: 0xE8 }
  - { offsetInCU: 0x4A346, offset: 0x4A346, size: 0x8, addend: 0x0, symName: __ZNSt3__116allocator_traitsINS_9allocatorI5TokenEEE9constructB8ue170006IS2_JNS2_9TokenTypeERNS_12basic_stringIcNS_11char_traitsIcEENS1_IcEEEERiEvEEvRS3_PT_DpOT0_, symObjAddr: 0xA7B8, symBinAddr: 0x10000DE18, symSize: 0x44 }
  - { offsetInCU: 0x4A3C5, offset: 0x4A3C5, size: 0x8, addend: 0x0, symName: __ZNSt3__19allocatorI5TokenE9constructB8ue170006IS1_JNS1_9TokenTypeERNS_12basic_stringIcNS_11char_traitsIcEENS0_IcEEEERiEEEvPT_DpOT0_, symObjAddr: 0xA7FC, symBinAddr: 0x10000DE5C, symSize: 0x94 }
  - { offsetInCU: 0x4A447, offset: 0x4A447, size: 0x8, addend: 0x0, symName: __ZNSt3__16vectorI5TokenNS_9allocatorIS1_EEE12emplace_backIJNS1_9TokenTypeENS_12basic_stringIcNS_11char_traitsIcEENS2_IcEEEERiEEERS1_DpOT_, symObjAddr: 0xA890, symBinAddr: 0x10000DEF0, symSize: 0x8C }
  - { offsetInCU: 0x4A4B1, offset: 0x4A4B1, size: 0x8, addend: 0x0, symName: __ZNSt3__16vectorI5TokenNS_9allocatorIS1_EEE22__construct_one_at_endB8ue170006IJNS1_9TokenTypeENS_12basic_stringIcNS_11char_traitsIcEENS2_IcEEEERiEEEvDpOT_, symObjAddr: 0xA91C, symBinAddr: 0x10000DF7C, symSize: 0xA0 }
  - { offsetInCU: 0x4A528, offset: 0x4A528, size: 0x8, addend: 0x0, symName: __ZNSt3__16vectorI5TokenNS_9allocatorIS1_EEE24__emplace_back_slow_pathIJNS1_9TokenTypeENS_12basic_stringIcNS_11char_traitsIcEENS2_IcEEEERiEEEvDpOT_, symObjAddr: 0xA9BC, symBinAddr: 0x10000E01C, symSize: 0xE8 }
  - { offsetInCU: 0x4A5B0, offset: 0x4A5B0, size: 0x8, addend: 0x0, symName: __ZNSt3__116allocator_traitsINS_9allocatorI5TokenEEE9constructB8ue170006IS2_JNS2_9TokenTypeENS_12basic_stringIcNS_11char_traitsIcEENS1_IcEEEERiEvEEvRS3_PT_DpOT0_, symObjAddr: 0xAAA4, symBinAddr: 0x10000E104, symSize: 0x44 }
  - { offsetInCU: 0x4A62F, offset: 0x4A62F, size: 0x8, addend: 0x0, symName: __ZNSt3__19allocatorI5TokenE9constructB8ue170006IS1_JNS1_9TokenTypeENS_12basic_stringIcNS_11char_traitsIcEENS0_IcEEEERiEEEvPT_DpOT0_, symObjAddr: 0xAAE8, symBinAddr: 0x10000E148, symSize: 0x94 }
  - { offsetInCU: 0x4A6AB, offset: 0x4A6AB, size: 0x8, addend: 0x0, symName: __ZNKSt3__112basic_stringIcNS_11char_traitsIcEENS_9allocatorIcEEE15__get_long_sizeB8ue170006Ev, symObjAddr: 0xAB7C, symBinAddr: 0x10000E1DC, symSize: 0x28 }
  - { offsetInCU: 0x4A6D1, offset: 0x4A6D1, size: 0x8, addend: 0x0, symName: __ZNKSt3__112basic_stringIcNS_11char_traitsIcEENS_9allocatorIcEEE16__get_short_sizeB8ue170006Ev, symObjAddr: 0xABA4, symBinAddr: 0x10000E204, symSize: 0x34 }
  - { offsetInCU: 0x4A6F7, offset: 0x4A6F7, size: 0x8, addend: 0x0, symName: __ZNSt3__16vectorI5TokenNS_9allocatorIS1_EEE22__construct_one_at_endB8ue170006IJRNS1_9TokenTypeERNS_12basic_stringIcNS_11char_traitsIcEENS2_IcEEEERiEEEvDpOT_, symObjAddr: 0xABD8, symBinAddr: 0x10000E238, symSize: 0xA0 }
  - { offsetInCU: 0x4A76E, offset: 0x4A76E, size: 0x8, addend: 0x0, symName: __ZNSt3__16vectorI5TokenNS_9allocatorIS1_EEE24__emplace_back_slow_pathIJRNS1_9TokenTypeERNS_12basic_stringIcNS_11char_traitsIcEENS2_IcEEEERiEEEvDpOT_, symObjAddr: 0xAC78, symBinAddr: 0x10000E2D8, symSize: 0xE8 }
  - { offsetInCU: 0x4A7F6, offset: 0x4A7F6, size: 0x8, addend: 0x0, symName: __ZNSt3__116allocator_traitsINS_9allocatorI5TokenEEE9constructB8ue170006IS2_JRNS2_9TokenTypeERNS_12basic_stringIcNS_11char_traitsIcEENS1_IcEEEERiEvEEvRS3_PT_DpOT0_, symObjAddr: 0xAD60, symBinAddr: 0x10000E3C0, symSize: 0x44 }
  - { offsetInCU: 0x4A875, offset: 0x4A875, size: 0x8, addend: 0x0, symName: __ZNSt3__19allocatorI5TokenE9constructB8ue170006IS1_JRNS1_9TokenTypeERNS_12basic_stringIcNS_11char_traitsIcEENS0_IcEEEERiEEEvPT_DpOT0_, symObjAddr: 0xADA4, symBinAddr: 0x10000E404, symSize: 0x94 }
  - { offsetInCU: 0x4A8F1, offset: 0x4A8F1, size: 0x8, addend: 0x0, symName: __ZNSt3__16vectorI5TokenNS_9allocatorIS1_EEE22__construct_one_at_endB8ue170006IJNS1_9TokenTypeERA1_KcRiEEEvDpOT_, symObjAddr: 0xAE38, symBinAddr: 0x10000E498, symSize: 0xA0 }
  - { offsetInCU: 0x4A968, offset: 0x4A968, size: 0x8, addend: 0x0, symName: __ZNSt3__16vectorI5TokenNS_9allocatorIS1_EEE24__emplace_back_slow_pathIJNS1_9TokenTypeERA1_KcRiEEEvDpOT_, symObjAddr: 0xAED8, symBinAddr: 0x10000E538, symSize: 0xE8 }
  - { offsetInCU: 0x4A9F0, offset: 0x4A9F0, size: 0x8, addend: 0x0, symName: __ZNSt3__116allocator_traitsINS_9allocatorI5TokenEEE9constructB8ue170006IS2_JNS2_9TokenTypeERA1_KcRiEvEEvRS3_PT_DpOT0_, symObjAddr: 0xAFC0, symBinAddr: 0x10000E620, symSize: 0x44 }
  - { offsetInCU: 0x4AA6F, offset: 0x4AA6F, size: 0x8, addend: 0x0, symName: __ZNSt3__19allocatorI5TokenE9constructB8ue170006IS1_JNS1_9TokenTypeERA1_KcRiEEEvPT_DpOT0_, symObjAddr: 0xB004, symBinAddr: 0x10000E664, symSize: 0x94 }
  - { offsetInCU: 0x4AAEB, offset: 0x4AAEB, size: 0x8, addend: 0x0, symName: __ZNSt3__16vectorI5TokenNS_9allocatorIS1_EEEC2ERKS4_, symObjAddr: 0xB098, symBinAddr: 0x10000E6F8, symSize: 0x94 }
  - { offsetInCU: 0x4AB26, offset: 0x4AB26, size: 0x8, addend: 0x0, symName: __ZNSt3__116allocator_traitsINS_9allocatorI5TokenEEE37select_on_container_copy_constructionB8ue170006IS3_vvEES3_RKS3_, symObjAddr: 0xB12C, symBinAddr: 0x10000E78C, symSize: 0x10 }
  - { offsetInCU: 0x4AB5B, offset: 0x4AB5B, size: 0x8, addend: 0x0, symName: __ZNSt3__117__compressed_pairIP5TokenNS_9allocatorIS1_EEEC1B8ue170006IDnS4_EEOT_OT0_, symObjAddr: 0xB13C, symBinAddr: 0x10000E79C, symSize: 0x3C }
  - { offsetInCU: 0x4ABB3, offset: 0x4ABB3, size: 0x8, addend: 0x0, symName: __ZNSt3__16vectorI5TokenNS_9allocatorIS1_EEE16__init_with_sizeB8ue170006IPS1_S6_EEvT_T0_m, symObjAddr: 0xB178, symBinAddr: 0x10000E7D8, symSize: 0xB8 }
  - { offsetInCU: 0x4AC27, offset: 0x4AC27, size: 0x8, addend: 0x0, symName: __ZNSt3__117__compressed_pairIP5TokenNS_9allocatorIS1_EEEC2B8ue170006IDnS4_EEOT_OT0_, symObjAddr: 0xB230, symBinAddr: 0x10000E890, symSize: 0x44 }
  - { offsetInCU: 0x4AC7F, offset: 0x4AC7F, size: 0x8, addend: 0x0, symName: __ZNSt3__122__compressed_pair_elemINS_9allocatorI5TokenEELi1ELb1EEC2B8ue170006IS3_vEEOT_, symObjAddr: 0xB274, symBinAddr: 0x10000E8D4, symSize: 0x18 }
  - { offsetInCU: 0x4ACC1, offset: 0x4ACC1, size: 0x8, addend: 0x0, symName: __ZNSt3__16vectorI5TokenNS_9allocatorIS1_EEE16__destroy_vectorC1B8ue170006ERS4_, symObjAddr: 0xB2CC, symBinAddr: 0x10000E92C, symSize: 0x34 }
  - { offsetInCU: 0x4ACFA, offset: 0x4ACFA, size: 0x8, addend: 0x0, symName: __ZNSt3__16vectorI5TokenNS_9allocatorIS1_EEE11__vallocateB8ue170006Em, symObjAddr: 0xB300, symBinAddr: 0x10000E960, symSize: 0xB4 }
  - { offsetInCU: 0x4AD3E, offset: 0x4AD3E, size: 0x8, addend: 0x0, symName: __ZNSt3__16vectorI5TokenNS_9allocatorIS1_EEE18__construct_at_endIPS1_S6_EEvT_T0_m, symObjAddr: 0xB3B4, symBinAddr: 0x10000EA14, symSize: 0x8C }
  - { offsetInCU: 0x4ADB4, offset: 0x4ADB4, size: 0x8, addend: 0x0, symName: __ZNSt3__128__exception_guard_exceptionsINS_6vectorI5TokenNS_9allocatorIS2_EEE16__destroy_vectorEE10__completeB8ue170006Ev, symObjAddr: 0xB440, symBinAddr: 0x10000EAA0, symSize: 0x1C }
  - { offsetInCU: 0x4ADDA, offset: 0x4ADDA, size: 0x8, addend: 0x0, symName: __ZNSt3__128__exception_guard_exceptionsINS_6vectorI5TokenNS_9allocatorIS2_EEE16__destroy_vectorEED1B8ue170006Ev, symObjAddr: 0xB45C, symBinAddr: 0x10000EABC, symSize: 0x2C }
  - { offsetInCU: 0x4AE04, offset: 0x4AE04, size: 0x8, addend: 0x0, symName: __ZNSt3__128__exception_guard_exceptionsINS_6vectorI5TokenNS_9allocatorIS2_EEE16__destroy_vectorEEC1B8ue170006ES6_, symObjAddr: 0xB488, symBinAddr: 0x10000EAE8, symSize: 0x34 }
  - { offsetInCU: 0x4AE3C, offset: 0x4AE3C, size: 0x8, addend: 0x0, symName: __ZNSt3__128__exception_guard_exceptionsINS_6vectorI5TokenNS_9allocatorIS2_EEE16__destroy_vectorEEC2B8ue170006ES6_, symObjAddr: 0xB4BC, symBinAddr: 0x10000EB1C, symSize: 0x24 }
  - { offsetInCU: 0x4AE74, offset: 0x4AE74, size: 0x8, addend: 0x0, symName: __ZNSt3__16vectorI5TokenNS_9allocatorIS1_EEE16__destroy_vectorC2B8ue170006ERS4_, symObjAddr: 0xB4E0, symBinAddr: 0x10000EB40, symSize: 0x20 }
  - { offsetInCU: 0x4AED0, offset: 0x4AED0, size: 0x8, addend: 0x0, symName: __ZNSt3__14pairIP5TokenS2_EC1B8ue170006IS2_S2_LPv0EEEOT_OT0_, symObjAddr: 0xB76C, symBinAddr: 0x10000EDCC, symSize: 0x3C }
  - { offsetInCU: 0x4AF2E, offset: 0x4AF2E, size: 0x8, addend: 0x0, symName: __ZNSt3__14pairIP5TokenS2_EC2B8ue170006IS2_S2_LPv0EEEOT_OT0_, symObjAddr: 0xB7A8, symBinAddr: 0x10000EE08, symSize: 0x34 }
  - { offsetInCU: 0x4AF8C, offset: 0x4AF8C, size: 0x8, addend: 0x0, symName: __ZNSt3__129_AllocatorDestroyRangeReverseINS_9allocatorI5TokenEEPS2_EC1B8ue170006ERS3_RS4_S7_, symObjAddr: 0xB828, symBinAddr: 0x10000EE88, symSize: 0x44 }
  - { offsetInCU: 0x4AFE3, offset: 0x4AFE3, size: 0x8, addend: 0x0, symName: __ZNSt3__116allocator_traitsINS_9allocatorI5TokenEEE9constructB8ue170006IS2_JRS2_EvEEvRS3_PT_DpOT0_, symObjAddr: 0xB86C, symBinAddr: 0x10000EECC, symSize: 0x34 }
  - { offsetInCU: 0x4B03A, offset: 0x4B03A, size: 0x8, addend: 0x0, symName: __ZNSt3__128__exception_guard_exceptionsINS_29_AllocatorDestroyRangeReverseINS_9allocatorI5TokenEEPS3_EEE10__completeB8ue170006Ev, symObjAddr: 0xB8A0, symBinAddr: 0x10000EF00, symSize: 0x1C }
  - { offsetInCU: 0x4B060, offset: 0x4B060, size: 0x8, addend: 0x0, symName: __ZNSt3__128__exception_guard_exceptionsINS_29_AllocatorDestroyRangeReverseINS_9allocatorI5TokenEEPS3_EEED1B8ue170006Ev, symObjAddr: 0xB8BC, symBinAddr: 0x10000EF1C, symSize: 0x2C }
  - { offsetInCU: 0x4B08A, offset: 0x4B08A, size: 0x8, addend: 0x0, symName: __ZNSt3__128__exception_guard_exceptionsINS_29_AllocatorDestroyRangeReverseINS_9allocatorI5TokenEEPS3_EEEC1B8ue170006ES6_, symObjAddr: 0xB8E8, symBinAddr: 0x10000EF48, symSize: 0x34 }
  - { offsetInCU: 0x4B0C3, offset: 0x4B0C3, size: 0x8, addend: 0x0, symName: __ZNSt3__128__exception_guard_exceptionsINS_29_AllocatorDestroyRangeReverseINS_9allocatorI5TokenEEPS3_EEEC2B8ue170006ES6_, symObjAddr: 0xB91C, symBinAddr: 0x10000EF7C, symSize: 0x30 }
  - { offsetInCU: 0x4B0FC, offset: 0x4B0FC, size: 0x8, addend: 0x0, symName: __ZNSt3__129_AllocatorDestroyRangeReverseINS_9allocatorI5TokenEEPS2_EC2B8ue170006ERS3_RS4_S7_, symObjAddr: 0xB94C, symBinAddr: 0x10000EFAC, symSize: 0x38 }
  - { offsetInCU: 0x4B153, offset: 0x4B153, size: 0x8, addend: 0x0, symName: __ZNSt3__19allocatorI5TokenE9constructB8ue170006IS1_JRS1_EEEvPT_DpOT0_, symObjAddr: 0xB984, symBinAddr: 0x10000EFE4, symSize: 0x30 }
  - { offsetInCU: 0x4B1A9, offset: 0x4B1A9, size: 0x8, addend: 0x0, symName: __ZNSt3__128__exception_guard_exceptionsINS_29_AllocatorDestroyRangeReverseINS_9allocatorI5TokenEEPS3_EEED2B8ue170006Ev, symObjAddr: 0xB9B4, symBinAddr: 0x10000F014, symSize: 0x50 }
  - { offsetInCU: 0x4B1D3, offset: 0x4B1D3, size: 0x8, addend: 0x0, symName: __ZNKSt3__129_AllocatorDestroyRangeReverseINS_9allocatorI5TokenEEPS2_EclB8ue170006Ev, symObjAddr: 0xBA04, symBinAddr: 0x10000F064, symSize: 0x68 }
  - { offsetInCU: 0x4B1F9, offset: 0x4B1F9, size: 0x8, addend: 0x0, symName: __ZNSt3__118__unwrap_iter_implIP5TokenLb1EE8__unwrapB8ue170006ES2_, symObjAddr: 0xBADC, symBinAddr: 0x10000F13C, symSize: 0x24 }
  - { offsetInCU: 0x4B21C, offset: 0x4B21C, size: 0x8, addend: 0x0, symName: __ZNSt3__118__unwrap_iter_implIP5TokenLb1EE8__rewrapB8ue170006ES2_S2_, symObjAddr: 0xBB00, symBinAddr: 0x10000F160, symSize: 0x58 }
  - { offsetInCU: 0x4B24D, offset: 0x4B24D, size: 0x8, addend: 0x0, symName: __ZNSt3__128__exception_guard_exceptionsINS_6vectorI5TokenNS_9allocatorIS2_EEE16__destroy_vectorEED2B8ue170006Ev, symObjAddr: 0xBB58, symBinAddr: 0x10000F1B8, symSize: 0x50 }
  - { offsetInCU: 0x4B277, offset: 0x4B277, size: 0x8, addend: 0x0, symName: __ZNSt3__16vectorI5TokenNS_9allocatorIS1_EEE16__destroy_vectorclB8ue170006Ev, symObjAddr: 0xBBA8, symBinAddr: 0x10000F208, symSize: 0x90 }
  - { offsetInCU: 0x4B29D, offset: 0x4B29D, size: 0x8, addend: 0x0, symName: __ZNSt3__16vectorI5TokenNS_9allocatorIS1_EEE7__clearB8ue170006Ev, symObjAddr: 0xBC38, symBinAddr: 0x10000F298, symSize: 0x28 }
  - { offsetInCU: 0x4B2C3, offset: 0x4B2C3, size: 0x8, addend: 0x0, symName: __ZNSt3__16vectorI5TokenNS_9allocatorIS1_EEE22__base_destruct_at_endB8ue170006EPS1_, symObjAddr: 0xBC60, symBinAddr: 0x10000F2C0, symSize: 0x8C }
  - { offsetInCU: 0x4B307, offset: 0x4B307, size: 0x8, addend: 0x0, symName: __ZN6ParserC2ERNSt3__16vectorI5TokenNS0_9allocatorIS2_EEEE, symObjAddr: 0xBCEC, symBinAddr: 0x10000F34C, symSize: 0x44 }
  - { offsetInCU: 0x4B33F, offset: 0x4B33F, size: 0x8, addend: 0x0, symName: __ZN7DatalogC1Ev, symObjAddr: 0xBD30, symBinAddr: 0x10000F390, symSize: 0x2C }
  - { offsetInCU: 0x4B36B, offset: 0x4B36B, size: 0x8, addend: 0x0, symName: __ZN7DatalogC2Ev, symObjAddr: 0xBD5C, symBinAddr: 0x10000F3BC, symSize: 0x5C }
  - { offsetInCU: 0x4B397, offset: 0x4B397, size: 0x8, addend: 0x0, symName: __ZNSt3__16vectorI9PredicateNS_9allocatorIS1_EEEC1B8ue170006Ev, symObjAddr: 0xBDB8, symBinAddr: 0x10000F418, symSize: 0x2C }
  - { offsetInCU: 0x4B3C1, offset: 0x4B3C1, size: 0x8, addend: 0x0, symName: __ZNSt3__13setINS_12basic_stringIcNS_11char_traitsIcEENS_9allocatorIcEEEENS_4lessIS6_EENS4_IS6_EEEC1B8ue170006Ev, symObjAddr: 0xBDE4, symBinAddr: 0x10000F444, symSize: 0x2C }
  - { offsetInCU: 0x4B3EB, offset: 0x4B3EB, size: 0x8, addend: 0x0, symName: __ZNSt3__16vectorI9PredicateNS_9allocatorIS1_EEEC2B8ue170006Ev, symObjAddr: 0xBE10, symBinAddr: 0x10000F470, symSize: 0x4C }
  - { offsetInCU: 0x4B415, offset: 0x4B415, size: 0x8, addend: 0x0, symName: __ZNSt3__117__compressed_pairIP9PredicateNS_9allocatorIS1_EEEC1B8ue170006IDnNS_18__default_init_tagEEEOT_OT0_, symObjAddr: 0xBE5C, symBinAddr: 0x10000F4BC, symSize: 0x3C }
  - { offsetInCU: 0x4B46D, offset: 0x4B46D, size: 0x8, addend: 0x0, symName: __ZNSt3__117__compressed_pairIP9PredicateNS_9allocatorIS1_EEEC2B8ue170006IDnNS_18__default_init_tagEEEOT_OT0_, symObjAddr: 0xBE98, symBinAddr: 0x10000F4F8, symSize: 0x40 }
  - { offsetInCU: 0x4B4C5, offset: 0x4B4C5, size: 0x8, addend: 0x0, symName: __ZNSt3__122__compressed_pair_elemIP9PredicateLi0ELb0EEC2B8ue170006IDnvEEOT_, symObjAddr: 0xBED8, symBinAddr: 0x10000F538, symSize: 0x1C }
  - { offsetInCU: 0x4B507, offset: 0x4B507, size: 0x8, addend: 0x0, symName: __ZNSt3__122__compressed_pair_elemINS_9allocatorI9PredicateEELi1ELb1EEC2B8ue170006ENS_18__default_init_tagE, symObjAddr: 0xBEF4, symBinAddr: 0x10000F554, symSize: 0x2C }
  - { offsetInCU: 0x4B53B, offset: 0x4B53B, size: 0x8, addend: 0x0, symName: __ZNSt3__19allocatorI9PredicateEC2B8ue170006Ev, symObjAddr: 0xBF20, symBinAddr: 0x10000F580, symSize: 0x2C }
  - { offsetInCU: 0x4B565, offset: 0x4B565, size: 0x8, addend: 0x0, symName: __ZNSt3__116__non_trivial_ifILb1ENS_9allocatorI9PredicateEEEC2B8ue170006Ev, symObjAddr: 0xBF4C, symBinAddr: 0x10000F5AC, symSize: 0x14 }
  - { offsetInCU: 0x4B58F, offset: 0x4B58F, size: 0x8, addend: 0x0, symName: __ZNSt3__13setINS_12basic_stringIcNS_11char_traitsIcEENS_9allocatorIcEEEENS_4lessIS6_EENS4_IS6_EEEC2B8ue170006Ev, symObjAddr: 0xBF60, symBinAddr: 0x10000F5C0, symSize: 0x30 }
  - { offsetInCU: 0x4B5B9, offset: 0x4B5B9, size: 0x8, addend: 0x0, symName: __ZNSt3__16__treeINS_12basic_stringIcNS_11char_traitsIcEENS_9allocatorIcEEEENS_4lessIS6_EENS4_IS6_EEEC1ERKS8_, symObjAddr: 0xBF90, symBinAddr: 0x10000F5F0, symSize: 0x34 }
  - { offsetInCU: 0x4B5F4, offset: 0x4B5F4, size: 0x8, addend: 0x0, symName: __ZNSt3__16__treeINS_12basic_stringIcNS_11char_traitsIcEENS_9allocatorIcEEEENS_4lessIS6_EENS4_IS6_EEEC2ERKS8_, symObjAddr: 0xBFC4, symBinAddr: 0x10000F624, symSize: 0x7C }
  - { offsetInCU: 0x4B62F, offset: 0x4B62F, size: 0x8, addend: 0x0, symName: __ZNSt3__117__compressed_pairINS_15__tree_end_nodeIPNS_16__tree_node_baseIPvEEEENS_9allocatorINS_11__tree_nodeINS_12basic_stringIcNS_11char_traitsIcEENS7_IcEEEES3_EEEEEC1B8ue170006ILb1EvEEv, symObjAddr: 0xC040, symBinAddr: 0x10000F6A0, symSize: 0x2C }
  - { offsetInCU: 0x4B664, offset: 0x4B664, size: 0x8, addend: 0x0, symName: __ZNSt3__117__compressed_pairImNS_4lessINS_12basic_stringIcNS_11char_traitsIcEENS_9allocatorIcEEEEEEEC1B8ue170006IiRKS8_EEOT_OT0_, symObjAddr: 0xC06C, symBinAddr: 0x10000F6CC, symSize: 0x3C }
  - { offsetInCU: 0x4B6BC, offset: 0x4B6BC, size: 0x8, addend: 0x0, symName: __ZNSt3__16__treeINS_12basic_stringIcNS_11char_traitsIcEENS_9allocatorIcEEEENS_4lessIS6_EENS4_IS6_EEE10__end_nodeB8ue170006Ev, symObjAddr: 0xC0A8, symBinAddr: 0x10000F708, symSize: 0x2C }
  - { offsetInCU: 0x4B6E2, offset: 0x4B6E2, size: 0x8, addend: 0x0, symName: __ZNSt3__16__treeINS_12basic_stringIcNS_11char_traitsIcEENS_9allocatorIcEEEENS_4lessIS6_EENS4_IS6_EEE12__begin_nodeB8ue170006Ev, symObjAddr: 0xC0D4, symBinAddr: 0x10000F734, symSize: 0x14 }
  - { offsetInCU: 0x4B708, offset: 0x4B708, size: 0x8, addend: 0x0, symName: __ZNSt3__117__compressed_pairINS_15__tree_end_nodeIPNS_16__tree_node_baseIPvEEEENS_9allocatorINS_11__tree_nodeINS_12basic_stringIcNS_11char_traitsIcEENS7_IcEEEES3_EEEEEC2B8ue170006ILb1EvEEv, symObjAddr: 0xC0E8, symBinAddr: 0x10000F748, symSize: 0x34 }
  - { offsetInCU: 0x4B73D, offset: 0x4B73D, size: 0x8, addend: 0x0, symName: __ZNSt3__122__compressed_pair_elemINS_15__tree_end_nodeIPNS_16__tree_node_baseIPvEEEELi0ELb0EEC2B8ue170006ENS_16__value_init_tagE, symObjAddr: 0xC11C, symBinAddr: 0x10000F77C, symSize: 0x2C }
  - { offsetInCU: 0x4B771, offset: 0x4B771, size: 0x8, addend: 0x0, symName: __ZNSt3__122__compressed_pair_elemINS_9allocatorINS_11__tree_nodeINS_12basic_stringIcNS_11char_traitsIcEENS1_IcEEEEPvEEEELi1ELb1EEC2B8ue170006ENS_16__value_init_tagE, symObjAddr: 0xC148, symBinAddr: 0x10000F7A8, symSize: 0x2C }
  - { offsetInCU: 0x4B7A5, offset: 0x4B7A5, size: 0x8, addend: 0x0, symName: __ZNSt3__115__tree_end_nodeIPNS_16__tree_node_baseIPvEEEC1B8ue170006Ev, symObjAddr: 0xC174, symBinAddr: 0x10000F7D4, symSize: 0x2C }
  - { offsetInCU: 0x4B7CF, offset: 0x4B7CF, size: 0x8, addend: 0x0, symName: __ZNSt3__115__tree_end_nodeIPNS_16__tree_node_baseIPvEEEC2B8ue170006Ev, symObjAddr: 0xC1A0, symBinAddr: 0x10000F800, symSize: 0x18 }
  - { offsetInCU: 0x4B7F9, offset: 0x4B7F9, size: 0x8, addend: 0x0, symName: __ZNSt3__19allocatorINS_11__tree_nodeINS_12basic_stringIcNS_11char_traitsIcEENS0_IcEEEEPvEEEC2B8ue170006Ev, symObjAddr: 0xC1B8, symBinAddr: 0x10000F818, symSize: 0x2C }
  - { offsetInCU: 0x4B823, offset: 0x4B823, size: 0x8, addend: 0x0, symName: __ZNSt3__116__non_trivial_ifILb1ENS_9allocatorINS_11__tree_nodeINS_12basic_stringIcNS_11char_traitsIcEENS1_IcEEEEPvEEEEEC2B8ue170006Ev, symObjAddr: 0xC1E4, symBinAddr: 0x10000F844, symSize: 0x14 }
  - { offsetInCU: 0x4B84D, offset: 0x4B84D, size: 0x8, addend: 0x0, symName: __ZNSt3__117__compressed_pairImNS_4lessINS_12basic_stringIcNS_11char_traitsIcEENS_9allocatorIcEEEEEEEC2B8ue170006IiRKS8_EEOT_OT0_, symObjAddr: 0xC1F8, symBinAddr: 0x10000F858, symSize: 0x44 }
  - { offsetInCU: 0x4B8A5, offset: 0x4B8A5, size: 0x8, addend: 0x0, symName: __ZNSt3__122__compressed_pair_elemINS_4lessINS_12basic_stringIcNS_11char_traitsIcEENS_9allocatorIcEEEEEELi1ELb1EEC2B8ue170006IRKS8_vEEOT_, symObjAddr: 0xC23C, symBinAddr: 0x10000F89C, symSize: 0x18 }
  - { offsetInCU: 0x4B8E7, offset: 0x4B8E7, size: 0x8, addend: 0x0, symName: __ZNSt3__114pointer_traitsIPNS_15__tree_end_nodeIPNS_16__tree_node_baseIPvEEEEE10pointer_toB8ue170006ERS6_, symObjAddr: 0xC254, symBinAddr: 0x10000F8B4, symSize: 0x14 }
  - { offsetInCU: 0x4B90A, offset: 0x4B90A, size: 0x8, addend: 0x0, symName: __ZNSt3__117__compressed_pairINS_15__tree_end_nodeIPNS_16__tree_node_baseIPvEEEENS_9allocatorINS_11__tree_nodeINS_12basic_stringIcNS_11char_traitsIcEENS7_IcEEEES3_EEEEE5firstB8ue170006Ev, symObjAddr: 0xC268, symBinAddr: 0x10000F8C8, symSize: 0x24 }
  - { offsetInCU: 0x4B930, offset: 0x4B930, size: 0x8, addend: 0x0, symName: __ZNSt3__122__compressed_pair_elemINS_15__tree_end_nodeIPNS_16__tree_node_baseIPvEEEELi0ELb0EE5__getB8ue170006Ev, symObjAddr: 0xC28C, symBinAddr: 0x10000F8EC, symSize: 0x14 }
  - { offsetInCU: 0x4B956, offset: 0x4B956, size: 0x8, addend: 0x0, symName: __ZNK6Parser9tokenTypeEv, symObjAddr: 0xC2A0, symBinAddr: 0x10000F900, symSize: 0x2C }
  - { offsetInCU: 0x4B97C, offset: 0x4B97C, size: 0x8, addend: 0x0, symName: __ZN6Parser5matchEN5Token9TokenTypeE, symObjAddr: 0xC2CC, symBinAddr: 0x10000F92C, symSize: 0x54 }
  - { offsetInCU: 0x4B9B0, offset: 0x4B9B0, size: 0x8, addend: 0x0, symName: __ZN6Parser10schemeListEv, symObjAddr: 0xC320, symBinAddr: 0x10000F980, symSize: 0x98 }
  - { offsetInCU: 0x4B9D6, offset: 0x4B9D6, size: 0x8, addend: 0x0, symName: __ZNK7Datalog10getSchemesEv, symObjAddr: 0xC3B8, symBinAddr: 0x10000FA18, symSize: 0x18 }
  - { offsetInCU: 0x4B9FC, offset: 0x4B9FC, size: 0x8, addend: 0x0, symName: __ZNKSt3__16vectorI9PredicateNS_9allocatorIS1_EEE5emptyB8ue170006Ev, symObjAddr: 0xC3D0, symBinAddr: 0x10000FA30, symSize: 0x28 }
  - { offsetInCU: 0x4BA22, offset: 0x4BA22, size: 0x8, addend: 0x0, symName: __ZN6Parser10throwErrorEv, symObjAddr: 0xC3F8, symBinAddr: 0x10000FA58, symSize: 0x64 }
  - { offsetInCU: 0x4BA36, offset: 0x4BA36, size: 0x8, addend: 0x0, symName: __ZN6Parser8factListEv, symObjAddr: 0xC45C, symBinAddr: 0x10000FABC, symSize: 0x98 }
  - { offsetInCU: 0x4BA5C, offset: 0x4BA5C, size: 0x8, addend: 0x0, symName: __ZN6Parser8ruleListEv, symObjAddr: 0xC4F4, symBinAddr: 0x10000FB54, symSize: 0x98 }
  - { offsetInCU: 0x4BA82, offset: 0x4BA82, size: 0x8, addend: 0x0, symName: __ZN6Parser9queryListEv, symObjAddr: 0xC58C, symBinAddr: 0x10000FBEC, symSize: 0x98 }
  - { offsetInCU: 0x4BAA8, offset: 0x4BAA8, size: 0x8, addend: 0x0, symName: __ZNK7Datalog10getQueriesEv, symObjAddr: 0xC624, symBinAddr: 0x10000FC84, symSize: 0x18 }
  - { offsetInCU: 0x4BACE, offset: 0x4BACE, size: 0x8, addend: 0x0, symName: __ZNK7Datalog8getFactsEv, symObjAddr: 0xC63C, symBinAddr: 0x10000FC9C, symSize: 0x14 }
  - { offsetInCU: 0x4BAF4, offset: 0x4BAF4, size: 0x8, addend: 0x0, symName: __ZNKSt3__16vectorI9PredicateNS_9allocatorIS1_EEE5beginB8ue170006Ev, symObjAddr: 0xC650, symBinAddr: 0x10000FCB0, symSize: 0x30 }
  - { offsetInCU: 0x4BB1C, offset: 0x4BB1C, size: 0x8, addend: 0x0, symName: __ZNKSt3__16vectorI9PredicateNS_9allocatorIS1_EEE3endB8ue170006Ev, symObjAddr: 0xC680, symBinAddr: 0x10000FCE0, symSize: 0x30 }
  - { offsetInCU: 0x4BB44, offset: 0x4BB44, size: 0x8, addend: 0x0, symName: __ZNKSt3__111__wrap_iterIPK9PredicateEdeB8ue170006Ev, symObjAddr: 0xC6E4, symBinAddr: 0x10000FD44, symSize: 0x18 }
  - { offsetInCU: 0x4BB6A, offset: 0x4BB6A, size: 0x8, addend: 0x0, symName: __ZN9PredicateC1ERKS_, symObjAddr: 0xC6FC, symBinAddr: 0x10000FD5C, symSize: 0x34 }
  - { offsetInCU: 0x4BB9F, offset: 0x4BB9F, size: 0x8, addend: 0x0, symName: __ZN9Predicate13getParametersEv, symObjAddr: 0xC730, symBinAddr: 0x10000FD90, symSize: 0x3C }
  - { offsetInCU: 0x4BBC5, offset: 0x4BBC5, size: 0x8, addend: 0x0, symName: __ZNSt3__16vectorI9ParameterNS_9allocatorIS1_EEE5beginB8ue170006Ev, symObjAddr: 0xC76C, symBinAddr: 0x10000FDCC, symSize: 0x30 }
  - { offsetInCU: 0x4BBED, offset: 0x4BBED, size: 0x8, addend: 0x0, symName: __ZNSt3__16vectorI9ParameterNS_9allocatorIS1_EEE3endB8ue170006Ev, symObjAddr: 0xC79C, symBinAddr: 0x10000FDFC, symSize: 0x30 }
  - { offsetInCU: 0x4BC15, offset: 0x4BC15, size: 0x8, addend: 0x0, symName: __ZNKSt3__111__wrap_iterIP9ParameterEdeB8ue170006Ev, symObjAddr: 0xC800, symBinAddr: 0x10000FE60, symSize: 0x18 }
  - { offsetInCU: 0x4BC3B, offset: 0x4BC3B, size: 0x8, addend: 0x0, symName: __ZN7Datalog11addToDomainERKNSt3__112basic_stringIcNS0_11char_traitsIcEENS0_9allocatorIcEEEE, symObjAddr: 0xC818, symBinAddr: 0x10000FE78, symSize: 0x38 }
  - { offsetInCU: 0x4BC6F, offset: 0x4BC6F, size: 0x8, addend: 0x0, symName: __ZNK9Parameter8toStringEv, symObjAddr: 0xC850, symBinAddr: 0x10000FEB0, symSize: 0x2C }
  - { offsetInCU: 0x4BC95, offset: 0x4BC95, size: 0x8, addend: 0x0, symName: __ZNSt3__111__wrap_iterIP9ParameterEppB8ue170006Ev, symObjAddr: 0xC87C, symBinAddr: 0x10000FEDC, symSize: 0x20 }
  - { offsetInCU: 0x4BCBB, offset: 0x4BCBB, size: 0x8, addend: 0x0, symName: __ZNSt3__16vectorI9ParameterNS_9allocatorIS1_EEED1B8ue170006Ev, symObjAddr: 0xC89C, symBinAddr: 0x10000FEFC, symSize: 0x2C }
  - { offsetInCU: 0x4BCE5, offset: 0x4BCE5, size: 0x8, addend: 0x0, symName: __ZNSt3__111__wrap_iterIPK9PredicateEppB8ue170006Ev, symObjAddr: 0xC8C8, symBinAddr: 0x10000FF28, symSize: 0x20 }
  - { offsetInCU: 0x4BD0B, offset: 0x4BD0B, size: 0x8, addend: 0x0, symName: __ZNSt3__113basic_ostreamIcNS_11char_traitsIcEEElsB8ue170006EPFRS3_S4_E, symObjAddr: 0xC930, symBinAddr: 0x10000FF90, symSize: 0x2C }
  - { offsetInCU: 0x4BD3F, offset: 0x4BD3F, size: 0x8, addend: 0x0, symName: __ZNK6Parser12getCurrTokenEv, symObjAddr: 0xC9F8, symBinAddr: 0x100010058, symSize: 0x3C }
  - { offsetInCU: 0x4BD65, offset: 0x4BD65, size: 0x8, addend: 0x0, symName: __ZNK5Token8toStringEv, symObjAddr: 0xCA34, symBinAddr: 0x100010094, symSize: 0x184 }
  - { offsetInCU: 0x4BD9A, offset: 0x4BD9A, size: 0x8, addend: 0x0, symName: __ZNKSt3__16vectorI5TokenNS_9allocatorIS1_EEE2atEm, symObjAddr: 0xCBB8, symBinAddr: 0x100010218, symSize: 0x68 }
  - { offsetInCU: 0x4BDD1, offset: 0x4BDD1, size: 0x8, addend: 0x0, symName: __ZNK5Token7getTypeEv, symObjAddr: 0xCC20, symBinAddr: 0x100010280, symSize: 0x18 }
  - { offsetInCU: 0x4BDF7, offset: 0x4BDF7, size: 0x8, addend: 0x0, symName: __ZNKSt3__16vectorI5TokenNS_9allocatorIS1_EEE20__throw_out_of_rangeB8ue170006Ev, symObjAddr: 0xCC38, symBinAddr: 0x100010298, symSize: 0x1C }
  - { offsetInCU: 0x4BE1D, offset: 0x4BE1D, size: 0x8, addend: 0x0, symName: __ZNSt12out_of_rangeC1B8ue170006EPKc, symObjAddr: 0xCCB8, symBinAddr: 0x100010318, symSize: 0x34 }
  - { offsetInCU: 0x4BE55, offset: 0x4BE55, size: 0x8, addend: 0x0, symName: __ZNSt12out_of_rangeC2B8ue170006EPKc, symObjAddr: 0xCCEC, symBinAddr: 0x10001034C, symSize: 0x4C }
  - { offsetInCU: 0x4BE8D, offset: 0x4BE8D, size: 0x8, addend: 0x0, symName: __ZN6Parser12advanceTokenEv, symObjAddr: 0xCD38, symBinAddr: 0x100010398, symSize: 0x68 }
  - { offsetInCU: 0x4BEB3, offset: 0x4BEB3, size: 0x8, addend: 0x0, symName: __ZNKSt3__16vectorI5TokenNS_9allocatorIS1_EEE5emptyB8ue170006Ev, symObjAddr: 0xCDA0, symBinAddr: 0x100010400, symSize: 0x28 }
  - { offsetInCU: 0x4BED9, offset: 0x4BED9, size: 0x8, addend: 0x0, symName: __ZN7Datalog12addToSchemesERK9Predicate, symObjAddr: 0xCDC8, symBinAddr: 0x100010428, symSize: 0x30 }
  - { offsetInCU: 0x4BF0D, offset: 0x4BF0D, size: 0x8, addend: 0x0, symName: __ZN6Parser6schemeEv, symObjAddr: 0xCDF8, symBinAddr: 0x100010458, symSize: 0x30 }
  - { offsetInCU: 0x4BF33, offset: 0x4BF33, size: 0x8, addend: 0x0, symName: __ZNSt3__16vectorI9PredicateNS_9allocatorIS1_EEE9push_backB8ue170006ERKS1_, symObjAddr: 0xCE28, symBinAddr: 0x100010488, symSize: 0x6C }
  - { offsetInCU: 0x4BF6A, offset: 0x4BF6A, size: 0x8, addend: 0x0, symName: __ZNSt3__16vectorI9PredicateNS_9allocatorIS1_EEE9__end_capB8ue170006Ev, symObjAddr: 0xCE94, symBinAddr: 0x1000104F4, symSize: 0x28 }
  - { offsetInCU: 0x4BF90, offset: 0x4BF90, size: 0x8, addend: 0x0, symName: __ZNSt3__16vectorI9PredicateNS_9allocatorIS1_EEE22__construct_one_at_endB8ue170006IJRKS1_EEEvDpOT_, symObjAddr: 0xCEBC, symBinAddr: 0x10001051C, symSize: 0x90 }
  - { offsetInCU: 0x4BFDF, offset: 0x4BFDF, size: 0x8, addend: 0x0, symName: __ZNSt3__16vectorI9PredicateNS_9allocatorIS1_EEE21__push_back_slow_pathIRKS1_EEvOT_, symObjAddr: 0xCF4C, symBinAddr: 0x1000105AC, symSize: 0xD8 }
  - { offsetInCU: 0x4C03D, offset: 0x4C03D, size: 0x8, addend: 0x0, symName: __ZNSt3__117__compressed_pairIP9PredicateNS_9allocatorIS1_EEE5firstB8ue170006Ev, symObjAddr: 0xD024, symBinAddr: 0x100010684, symSize: 0x24 }
  - { offsetInCU: 0x4C063, offset: 0x4C063, size: 0x8, addend: 0x0, symName: __ZNSt3__122__compressed_pair_elemIP9PredicateLi0ELb0EE5__getB8ue170006Ev, symObjAddr: 0xD048, symBinAddr: 0x1000106A8, symSize: 0x14 }
  - { offsetInCU: 0x4C0A5, offset: 0x4C0A5, size: 0x8, addend: 0x0, symName: __ZNSt3__16vectorI9PredicateNS_9allocatorIS1_EEE21_ConstructTransactionC1B8ue170006ERS4_m, symObjAddr: 0xD05C, symBinAddr: 0x1000106BC, symSize: 0x3C }
  - { offsetInCU: 0x4C0ED, offset: 0x4C0ED, size: 0x8, addend: 0x0, symName: __ZNSt3__116allocator_traitsINS_9allocatorI9PredicateEEE9constructB8ue170006IS2_JRKS2_EvEEvRS3_PT_DpOT0_, symObjAddr: 0xD098, symBinAddr: 0x1000106F8, symSize: 0x34 }
  - { offsetInCU: 0x4C144, offset: 0x4C144, size: 0x8, addend: 0x0, symName: __ZNSt3__16vectorI9PredicateNS_9allocatorIS1_EEE7__allocB8ue170006Ev, symObjAddr: 0xD0CC, symBinAddr: 0x10001072C, symSize: 0x28 }
  - { offsetInCU: 0x4C16A, offset: 0x4C16A, size: 0x8, addend: 0x0, symName: __ZNSt3__16vectorI9PredicateNS_9allocatorIS1_EEE21_ConstructTransactionD1B8ue170006Ev, symObjAddr: 0xD108, symBinAddr: 0x100010768, symSize: 0x2C }
  - { offsetInCU: 0x4C194, offset: 0x4C194, size: 0x8, addend: 0x0, symName: __ZNSt3__16vectorI9PredicateNS_9allocatorIS1_EEE21_ConstructTransactionC2B8ue170006ERS4_m, symObjAddr: 0xD134, symBinAddr: 0x100010794, symSize: 0x4C }
  - { offsetInCU: 0x4C1DC, offset: 0x4C1DC, size: 0x8, addend: 0x0, symName: __ZNSt3__19allocatorI9PredicateE9constructB8ue170006IS1_JRKS1_EEEvPT_DpOT0_, symObjAddr: 0xD180, symBinAddr: 0x1000107E0, symSize: 0x30 }
  - { offsetInCU: 0x4C232, offset: 0x4C232, size: 0x8, addend: 0x0, symName: __ZNSt3__117__compressed_pairIP9PredicateNS_9allocatorIS1_EEE6secondB8ue170006Ev, symObjAddr: 0xD1B0, symBinAddr: 0x100010810, symSize: 0x24 }
  - { offsetInCU: 0x4C258, offset: 0x4C258, size: 0x8, addend: 0x0, symName: __ZNSt3__122__compressed_pair_elemINS_9allocatorI9PredicateEELi1ELb1EE5__getB8ue170006Ev, symObjAddr: 0xD1D4, symBinAddr: 0x100010834, symSize: 0x14 }
  - { offsetInCU: 0x4C27E, offset: 0x4C27E, size: 0x8, addend: 0x0, symName: __ZNSt3__16vectorI9PredicateNS_9allocatorIS1_EEE21_ConstructTransactionD2B8ue170006Ev, symObjAddr: 0xD1E8, symBinAddr: 0x100010848, symSize: 0x20 }
  - { offsetInCU: 0x4C2A8, offset: 0x4C2A8, size: 0x8, addend: 0x0, symName: __ZNKSt3__16vectorI9PredicateNS_9allocatorIS1_EEE11__recommendB8ue170006Em, symObjAddr: 0xD208, symBinAddr: 0x100010868, symSize: 0xB4 }
  - { offsetInCU: 0x4C2FD, offset: 0x4C2FD, size: 0x8, addend: 0x0, symName: __ZNKSt3__16vectorI9PredicateNS_9allocatorIS1_EEE4sizeB8ue170006Ev, symObjAddr: 0xD2BC, symBinAddr: 0x10001091C, symSize: 0x28 }
  - { offsetInCU: 0x4C323, offset: 0x4C323, size: 0x8, addend: 0x0, symName: __ZNSt3__114__split_bufferI9PredicateRNS_9allocatorIS1_EEEC1EmmS4_, symObjAddr: 0xD2E4, symBinAddr: 0x100010944, symSize: 0x44 }
  - { offsetInCU: 0x4C379, offset: 0x4C379, size: 0x8, addend: 0x0, symName: __ZNSt3__114__split_bufferI9PredicateRNS_9allocatorIS1_EEED1Ev, symObjAddr: 0xD438, symBinAddr: 0x100010A98, symSize: 0x2C }
  - { offsetInCU: 0x4C3A5, offset: 0x4C3A5, size: 0x8, addend: 0x0, symName: __ZNKSt3__16vectorI9PredicateNS_9allocatorIS1_EEE8max_sizeEv, symObjAddr: 0xD464, symBinAddr: 0x100010AC4, symSize: 0x60 }
  - { offsetInCU: 0x4C3CD, offset: 0x4C3CD, size: 0x8, addend: 0x0, symName: __ZNKSt3__16vectorI9PredicateNS_9allocatorIS1_EEE20__throw_length_errorB8ue170006Ev, symObjAddr: 0xD4C4, symBinAddr: 0x100010B24, symSize: 0x1C }
  - { offsetInCU: 0x4C3F3, offset: 0x4C3F3, size: 0x8, addend: 0x0, symName: __ZNKSt3__16vectorI9PredicateNS_9allocatorIS1_EEE8capacityB8ue170006Ev, symObjAddr: 0xD4E0, symBinAddr: 0x100010B40, symSize: 0x40 }
  - { offsetInCU: 0x4C424, offset: 0x4C424, size: 0x8, addend: 0x0, symName: __ZNSt3__116allocator_traitsINS_9allocatorI9PredicateEEE8max_sizeB8ue170006IS3_vEEmRKS3_, symObjAddr: 0xD520, symBinAddr: 0x100010B80, symSize: 0x24 }
  - { offsetInCU: 0x4C452, offset: 0x4C452, size: 0x8, addend: 0x0, symName: __ZNKSt3__16vectorI9PredicateNS_9allocatorIS1_EEE7__allocB8ue170006Ev, symObjAddr: 0xD544, symBinAddr: 0x100010BA4, symSize: 0x28 }
  - { offsetInCU: 0x4C478, offset: 0x4C478, size: 0x8, addend: 0x0, symName: __ZNKSt3__19allocatorI9PredicateE8max_sizeB8ue170006Ev, symObjAddr: 0xD56C, symBinAddr: 0x100010BCC, symSize: 0x18 }
  - { offsetInCU: 0x4C49E, offset: 0x4C49E, size: 0x8, addend: 0x0, symName: __ZNKSt3__117__compressed_pairIP9PredicateNS_9allocatorIS1_EEE6secondB8ue170006Ev, symObjAddr: 0xD584, symBinAddr: 0x100010BE4, symSize: 0x24 }
  - { offsetInCU: 0x4C4C4, offset: 0x4C4C4, size: 0x8, addend: 0x0, symName: __ZNKSt3__122__compressed_pair_elemINS_9allocatorI9PredicateEELi1ELb1EE5__getB8ue170006Ev, symObjAddr: 0xD5A8, symBinAddr: 0x100010C08, symSize: 0x14 }
  - { offsetInCU: 0x4C4EA, offset: 0x4C4EA, size: 0x8, addend: 0x0, symName: __ZNKSt3__16vectorI9PredicateNS_9allocatorIS1_EEE9__end_capB8ue170006Ev, symObjAddr: 0xD5BC, symBinAddr: 0x100010C1C, symSize: 0x28 }
  - { offsetInCU: 0x4C510, offset: 0x4C510, size: 0x8, addend: 0x0, symName: __ZNKSt3__117__compressed_pairIP9PredicateNS_9allocatorIS1_EEE5firstB8ue170006Ev, symObjAddr: 0xD5E4, symBinAddr: 0x100010C44, symSize: 0x24 }
  - { offsetInCU: 0x4C536, offset: 0x4C536, size: 0x8, addend: 0x0, symName: __ZNKSt3__122__compressed_pair_elemIP9PredicateLi0ELb0EE5__getB8ue170006Ev, symObjAddr: 0xD608, symBinAddr: 0x100010C68, symSize: 0x14 }
  - { offsetInCU: 0x4C55C, offset: 0x4C55C, size: 0x8, addend: 0x0, symName: __ZNSt3__114__split_bufferI9PredicateRNS_9allocatorIS1_EEEC2EmmS4_, symObjAddr: 0xD61C, symBinAddr: 0x100010C7C, symSize: 0xE0 }
  - { offsetInCU: 0x4C5CF, offset: 0x4C5CF, size: 0x8, addend: 0x0, symName: __ZNSt3__117__compressed_pairIP9PredicateRNS_9allocatorIS1_EEEC1B8ue170006IDnS5_EEOT_OT0_, symObjAddr: 0xD6FC, symBinAddr: 0x100010D5C, symSize: 0x3C }
  - { offsetInCU: 0x4C627, offset: 0x4C627, size: 0x8, addend: 0x0, symName: __ZNSt3__114__split_bufferI9PredicateRNS_9allocatorIS1_EEE7__allocB8ue170006Ev, symObjAddr: 0xD778, symBinAddr: 0x100010DD8, symSize: 0x28 }
  - { offsetInCU: 0x4C64D, offset: 0x4C64D, size: 0x8, addend: 0x0, symName: __ZNSt3__114__split_bufferI9PredicateRNS_9allocatorIS1_EEE9__end_capB8ue170006Ev, symObjAddr: 0xD7A0, symBinAddr: 0x100010E00, symSize: 0x28 }
  - { offsetInCU: 0x4C673, offset: 0x4C673, size: 0x8, addend: 0x0, symName: __ZNSt3__117__compressed_pairIP9PredicateRNS_9allocatorIS1_EEEC2B8ue170006IDnS5_EEOT_OT0_, symObjAddr: 0xD7C8, symBinAddr: 0x100010E28, symSize: 0x48 }
  - { offsetInCU: 0x4C6CB, offset: 0x4C6CB, size: 0x8, addend: 0x0, symName: __ZNSt3__122__compressed_pair_elemIRNS_9allocatorI9PredicateEELi1ELb0EEC2B8ue170006IS4_vEEOT_, symObjAddr: 0xD810, symBinAddr: 0x100010E70, symSize: 0x20 }
  - { offsetInCU: 0x4C70D, offset: 0x4C70D, size: 0x8, addend: 0x0, symName: __ZNSt3__19allocatorI9PredicateE8allocateB8ue170006Em, symObjAddr: 0xD830, symBinAddr: 0x100010E90, symSize: 0x5C }
  - { offsetInCU: 0x4C741, offset: 0x4C741, size: 0x8, addend: 0x0, symName: __ZNSt3__117__compressed_pairIP9PredicateRNS_9allocatorIS1_EEE6secondB8ue170006Ev, symObjAddr: 0xD88C, symBinAddr: 0x100010EEC, symSize: 0x28 }
  - { offsetInCU: 0x4C767, offset: 0x4C767, size: 0x8, addend: 0x0, symName: __ZNSt3__122__compressed_pair_elemIRNS_9allocatorI9PredicateEELi1ELb0EE5__getB8ue170006Ev, symObjAddr: 0xD8B4, symBinAddr: 0x100010F14, symSize: 0x18 }
  - { offsetInCU: 0x4C78D, offset: 0x4C78D, size: 0x8, addend: 0x0, symName: __ZNSt3__117__compressed_pairIP9PredicateRNS_9allocatorIS1_EEE5firstB8ue170006Ev, symObjAddr: 0xD8CC, symBinAddr: 0x100010F2C, symSize: 0x24 }
  - { offsetInCU: 0x4C7B3, offset: 0x4C7B3, size: 0x8, addend: 0x0, symName: __ZNKSt3__16vectorI9PredicateNS_9allocatorIS1_EEE17__annotate_deleteB8ue170006Ev, symObjAddr: 0xD8F0, symBinAddr: 0x100010F50, symSize: 0xD4 }
  - { offsetInCU: 0x4C7D9, offset: 0x4C7D9, size: 0x8, addend: 0x0, symName: __ZNSt3__116reverse_iteratorIP9PredicateEC1B8ue170006ES2_, symObjAddr: 0xDAF0, symBinAddr: 0x100011150, symSize: 0x34 }
  - { offsetInCU: 0x4C811, offset: 0x4C811, size: 0x8, addend: 0x0, symName: __ZNKSt3__116reverse_iteratorIP9PredicateE4baseB8ue170006Ev, symObjAddr: 0xDB24, symBinAddr: 0x100011184, symSize: 0x18 }
  - { offsetInCU: 0x4C837, offset: 0x4C837, size: 0x8, addend: 0x0, symName: __ZNKSt3__16vectorI9PredicateNS_9allocatorIS1_EEE14__annotate_newB8ue170006Em, symObjAddr: 0xDB78, symBinAddr: 0x1000111D8, symSize: 0xC8 }
  - { offsetInCU: 0x4C86C, offset: 0x4C86C, size: 0x8, addend: 0x0, symName: __ZNKSt3__16vectorI9PredicateNS_9allocatorIS1_EEE31__annotate_contiguous_containerB8ue170006EPKvS6_S6_S6_, symObjAddr: 0xDC40, symBinAddr: 0x1000112A0, symSize: 0x20 }
  - { offsetInCU: 0x4C8C2, offset: 0x4C8C2, size: 0x8, addend: 0x0, symName: __ZNKSt3__16vectorI9PredicateNS_9allocatorIS1_EEE4dataB8ue170006Ev, symObjAddr: 0xDC60, symBinAddr: 0x1000112C0, symSize: 0x28 }
  - { offsetInCU: 0x4C8E8, offset: 0x4C8E8, size: 0x8, addend: 0x0, symName: __ZNSt3__129_AllocatorDestroyRangeReverseINS_9allocatorI9PredicateEENS_16reverse_iteratorIPS2_EEEC1B8ue170006ERS3_RS6_S9_, symObjAddr: 0xDCD4, symBinAddr: 0x100011334, symSize: 0x44 }
  - { offsetInCU: 0x4C945, offset: 0x4C945, size: 0x8, addend: 0x0, symName: __ZNSt3__116allocator_traitsINS_9allocatorI9PredicateEEE9constructB8ue170006IS2_JS2_EvEEvRS3_PT_DpOT0_, symObjAddr: 0xDD60, symBinAddr: 0x1000113C0, symSize: 0x34 }
  - { offsetInCU: 0x4C99C, offset: 0x4C99C, size: 0x8, addend: 0x0, symName: __ZNKSt3__116reverse_iteratorIP9PredicateEdeB8ue170006Ev, symObjAddr: 0xDDB8, symBinAddr: 0x100011418, symSize: 0x28 }
  - { offsetInCU: 0x4C9D0, offset: 0x4C9D0, size: 0x8, addend: 0x0, symName: __ZNSt3__116reverse_iteratorIP9PredicateEppB8ue170006Ev, symObjAddr: 0xDDE0, symBinAddr: 0x100011440, symSize: 0x20 }
  - { offsetInCU: 0x4C9F6, offset: 0x4C9F6, size: 0x8, addend: 0x0, symName: __ZNSt3__128__exception_guard_exceptionsINS_29_AllocatorDestroyRangeReverseINS_9allocatorI9PredicateEENS_16reverse_iteratorIPS3_EEEEE10__completeB8ue170006Ev, symObjAddr: 0xDE00, symBinAddr: 0x100011460, symSize: 0x1C }
  - { offsetInCU: 0x4CA1C, offset: 0x4CA1C, size: 0x8, addend: 0x0, symName: __ZNSt3__128__exception_guard_exceptionsINS_29_AllocatorDestroyRangeReverseINS_9allocatorI9PredicateEENS_16reverse_iteratorIPS3_EEEEED1B8ue170006Ev, symObjAddr: 0xDE1C, symBinAddr: 0x10001147C, symSize: 0x2C }
  - { offsetInCU: 0x4CA46, offset: 0x4CA46, size: 0x8, addend: 0x0, symName: __ZNSt3__128__exception_guard_exceptionsINS_29_AllocatorDestroyRangeReverseINS_9allocatorI9PredicateEENS_16reverse_iteratorIPS3_EEEEEC1B8ue170006ES8_, symObjAddr: 0xDE48, symBinAddr: 0x1000114A8, symSize: 0x34 }
  - { offsetInCU: 0x4CA7F, offset: 0x4CA7F, size: 0x8, addend: 0x0, symName: __ZNSt3__128__exception_guard_exceptionsINS_29_AllocatorDestroyRangeReverseINS_9allocatorI9PredicateEENS_16reverse_iteratorIPS3_EEEEEC2B8ue170006ES8_, symObjAddr: 0xDE7C, symBinAddr: 0x1000114DC, symSize: 0x30 }
  - { offsetInCU: 0x4CAB8, offset: 0x4CAB8, size: 0x8, addend: 0x0, symName: __ZNSt3__129_AllocatorDestroyRangeReverseINS_9allocatorI9PredicateEENS_16reverse_iteratorIPS2_EEEC2B8ue170006ERS3_RS6_S9_, symObjAddr: 0xDEAC, symBinAddr: 0x10001150C, symSize: 0x38 }
  - { offsetInCU: 0x4CB0F, offset: 0x4CB0F, size: 0x8, addend: 0x0, symName: __ZNSt3__19allocatorI9PredicateE9constructB8ue170006IS1_JS1_EEEvPT_DpOT0_, symObjAddr: 0xDEE4, symBinAddr: 0x100011544, symSize: 0x30 }
  - { offsetInCU: 0x4CB65, offset: 0x4CB65, size: 0x8, addend: 0x0, symName: __ZN9PredicateC1EOS_, symObjAddr: 0xDF14, symBinAddr: 0x100011574, symSize: 0x34 }
  - { offsetInCU: 0x4CB9A, offset: 0x4CB9A, size: 0x8, addend: 0x0, symName: __ZN9PredicateC2EOS_, symObjAddr: 0xDF48, symBinAddr: 0x1000115A8, symSize: 0x48 }
  - { offsetInCU: 0x4CBCF, offset: 0x4CBCF, size: 0x8, addend: 0x0, symName: __ZNSt3__16vectorI9ParameterNS_9allocatorIS1_EEEC1B8ue170006EOS4_, symObjAddr: 0xDF90, symBinAddr: 0x1000115F0, symSize: 0x34 }
  - { offsetInCU: 0x4CC0A, offset: 0x4CC0A, size: 0x8, addend: 0x0, symName: __ZNSt3__16vectorI9ParameterNS_9allocatorIS1_EEEC2B8ue170006EOS4_, symObjAddr: 0xDFC4, symBinAddr: 0x100011624, symSize: 0xC4 }
  - { offsetInCU: 0x4CC45, offset: 0x4CC45, size: 0x8, addend: 0x0, symName: __ZNSt3__16vectorI9ParameterNS_9allocatorIS1_EEE7__allocB8ue170006Ev, symObjAddr: 0xE088, symBinAddr: 0x1000116E8, symSize: 0x28 }
  - { offsetInCU: 0x4CC71, offset: 0x4CC71, size: 0x8, addend: 0x0, symName: __ZNSt3__117__compressed_pairIP9ParameterNS_9allocatorIS1_EEEC1B8ue170006IDnS4_EEOT_OT0_, symObjAddr: 0xE0B0, symBinAddr: 0x100011710, symSize: 0x3C }
  - { offsetInCU: 0x4CCC9, offset: 0x4CCC9, size: 0x8, addend: 0x0, symName: __ZNSt3__16vectorI9ParameterNS_9allocatorIS1_EEE9__end_capB8ue170006Ev, symObjAddr: 0xE0EC, symBinAddr: 0x10001174C, symSize: 0x28 }
  - { offsetInCU: 0x4CCEF, offset: 0x4CCEF, size: 0x8, addend: 0x0, symName: __ZNSt3__117__compressed_pairIP9ParameterNS_9allocatorIS1_EEE6secondB8ue170006Ev, symObjAddr: 0xE114, symBinAddr: 0x100011774, symSize: 0x24 }
  - { offsetInCU: 0x4CD15, offset: 0x4CD15, size: 0x8, addend: 0x0, symName: __ZNSt3__122__compressed_pair_elemINS_9allocatorI9ParameterEELi1ELb1EE5__getB8ue170006Ev, symObjAddr: 0xE138, symBinAddr: 0x100011798, symSize: 0x14 }
  - { offsetInCU: 0x4CD3B, offset: 0x4CD3B, size: 0x8, addend: 0x0, symName: __ZNSt3__117__compressed_pairIP9ParameterNS_9allocatorIS1_EEEC2B8ue170006IDnS4_EEOT_OT0_, symObjAddr: 0xE14C, symBinAddr: 0x1000117AC, symSize: 0x44 }
  - { offsetInCU: 0x4CD93, offset: 0x4CD93, size: 0x8, addend: 0x0, symName: __ZNSt3__122__compressed_pair_elemIP9ParameterLi0ELb0EEC2B8ue170006IDnvEEOT_, symObjAddr: 0xE190, symBinAddr: 0x1000117F0, symSize: 0x1C }
  - { offsetInCU: 0x4CDD5, offset: 0x4CDD5, size: 0x8, addend: 0x0, symName: __ZNSt3__122__compressed_pair_elemINS_9allocatorI9ParameterEELi1ELb1EEC2B8ue170006IS3_vEEOT_, symObjAddr: 0xE1AC, symBinAddr: 0x10001180C, symSize: 0x18 }
  - { offsetInCU: 0x4CE17, offset: 0x4CE17, size: 0x8, addend: 0x0, symName: __ZNSt3__117__compressed_pairIP9ParameterNS_9allocatorIS1_EEE5firstB8ue170006Ev, symObjAddr: 0xE1C4, symBinAddr: 0x100011824, symSize: 0x24 }
  - { offsetInCU: 0x4CE3D, offset: 0x4CE3D, size: 0x8, addend: 0x0, symName: __ZNSt3__122__compressed_pair_elemIP9ParameterLi0ELb0EE5__getB8ue170006Ev, symObjAddr: 0xE1E8, symBinAddr: 0x100011848, symSize: 0x14 }
  - { offsetInCU: 0x4CE69, offset: 0x4CE69, size: 0x8, addend: 0x0, symName: __ZNSt3__119__to_address_helperINS_16reverse_iteratorIP9PredicateEEvE6__callB8ue170006ERKS4_, symObjAddr: 0xE1FC, symBinAddr: 0x10001185C, symSize: 0x38 }
  - { offsetInCU: 0x4CE8C, offset: 0x4CE8C, size: 0x8, addend: 0x0, symName: __ZNKSt3__116reverse_iteratorIP9PredicateEptB8ue170006Ev, symObjAddr: 0xE234, symBinAddr: 0x100011894, symSize: 0x24 }
  - { offsetInCU: 0x4CEB2, offset: 0x4CEB2, size: 0x8, addend: 0x0, symName: __ZNSt3__128__exception_guard_exceptionsINS_29_AllocatorDestroyRangeReverseINS_9allocatorI9PredicateEENS_16reverse_iteratorIPS3_EEEEED2B8ue170006Ev, symObjAddr: 0xE258, symBinAddr: 0x1000118B8, symSize: 0x50 }
  - { offsetInCU: 0x4CEDC, offset: 0x4CEDC, size: 0x8, addend: 0x0, symName: __ZNKSt3__129_AllocatorDestroyRangeReverseINS_9allocatorI9PredicateEENS_16reverse_iteratorIPS2_EEEclB8ue170006Ev, symObjAddr: 0xE2A8, symBinAddr: 0x100011908, symSize: 0xB4 }
  - { offsetInCU: 0x4CF03, offset: 0x4CF03, size: 0x8, addend: 0x0, symName: __ZNSt3__116reverse_iteratorINS0_IP9PredicateEEEC1B8ue170006ES3_, symObjAddr: 0xE3CC, symBinAddr: 0x100011A2C, symSize: 0x3C }
  - { offsetInCU: 0x4CF3B, offset: 0x4CF3B, size: 0x8, addend: 0x0, symName: __ZNSt3__116allocator_traitsINS_9allocatorI9PredicateEEE7destroyB8ue170006IS2_vEEvRS3_PT_, symObjAddr: 0xE468, symBinAddr: 0x100011AC8, symSize: 0x2C }
  - { offsetInCU: 0x4CF78, offset: 0x4CF78, size: 0x8, addend: 0x0, symName: __ZNSt3__116reverse_iteratorINS0_IP9PredicateEEEppB8ue170006Ev, symObjAddr: 0xE4B8, symBinAddr: 0x100011B18, symSize: 0x30 }
  - { offsetInCU: 0x4CF9E, offset: 0x4CF9E, size: 0x8, addend: 0x0, symName: __ZNKSt3__116reverse_iteratorINS0_IP9PredicateEEE4baseB8ue170006Ev, symObjAddr: 0xE4E8, symBinAddr: 0x100011B48, symSize: 0x24 }
  - { offsetInCU: 0x4CFC4, offset: 0x4CFC4, size: 0x8, addend: 0x0, symName: __ZNSt3__19allocatorI9PredicateE7destroyB8ue170006EPS1_, symObjAddr: 0xE50C, symBinAddr: 0x100011B6C, symSize: 0x28 }
  - { offsetInCU: 0x4CFFE, offset: 0x4CFFE, size: 0x8, addend: 0x0, symName: __ZNSt3__119__to_address_helperINS_16reverse_iteratorINS1_IP9PredicateEEEEvE6__callB8ue170006ERKS5_, symObjAddr: 0xE534, symBinAddr: 0x100011B94, symSize: 0x38 }
  - { offsetInCU: 0x4D021, offset: 0x4D021, size: 0x8, addend: 0x0, symName: __ZNKSt3__116reverse_iteratorINS0_IP9PredicateEEEptB8ue170006Ev, symObjAddr: 0xE56C, symBinAddr: 0x100011BCC, symSize: 0x24 }
  - { offsetInCU: 0x4D047, offset: 0x4D047, size: 0x8, addend: 0x0, symName: __ZNKSt3__116reverse_iteratorINS0_IP9PredicateEEEdeB8ue170006Ev, symObjAddr: 0xE590, symBinAddr: 0x100011BF0, symSize: 0x34 }
  - { offsetInCU: 0x4D07B, offset: 0x4D07B, size: 0x8, addend: 0x0, symName: __ZNSt3__116reverse_iteratorIP9PredicateEmmB8ue170006Ev, symObjAddr: 0xE5C4, symBinAddr: 0x100011C24, symSize: 0x20 }
  - { offsetInCU: 0x4D0A1, offset: 0x4D0A1, size: 0x8, addend: 0x0, symName: __ZNSt3__116reverse_iteratorINS0_IP9PredicateEEEC2B8ue170006ES3_, symObjAddr: 0xE5E4, symBinAddr: 0x100011C44, symSize: 0x2C }
  - { offsetInCU: 0x4D0D9, offset: 0x4D0D9, size: 0x8, addend: 0x0, symName: __ZNSt3__116reverse_iteratorIP9PredicateEC2B8ue170006ES2_, symObjAddr: 0xE610, symBinAddr: 0x100011C70, symSize: 0x28 }
  - { offsetInCU: 0x4D111, offset: 0x4D111, size: 0x8, addend: 0x0, symName: __ZNSt3__114__split_bufferI9PredicateRNS_9allocatorIS1_EEED2Ev, symObjAddr: 0xE638, symBinAddr: 0x100011C98, symSize: 0x8C }
  - { offsetInCU: 0x4D13D, offset: 0x4D13D, size: 0x8, addend: 0x0, symName: __ZNSt3__114__split_bufferI9PredicateRNS_9allocatorIS1_EEE5clearB8ue170006Ev, symObjAddr: 0xE6C4, symBinAddr: 0x100011D24, symSize: 0x28 }
  - { offsetInCU: 0x4D163, offset: 0x4D163, size: 0x8, addend: 0x0, symName: __ZNSt3__116allocator_traitsINS_9allocatorI9PredicateEEE10deallocateB8ue170006ERS3_PS2_m, symObjAddr: 0xE6EC, symBinAddr: 0x100011D4C, symSize: 0x34 }
  - { offsetInCU: 0x4D1A5, offset: 0x4D1A5, size: 0x8, addend: 0x0, symName: __ZNKSt3__114__split_bufferI9PredicateRNS_9allocatorIS1_EEE8capacityB8ue170006Ev, symObjAddr: 0xE720, symBinAddr: 0x100011D80, symSize: 0x40 }
  - { offsetInCU: 0x4D1CB, offset: 0x4D1CB, size: 0x8, addend: 0x0, symName: __ZNSt3__114__split_bufferI9PredicateRNS_9allocatorIS1_EEE17__destruct_at_endB8ue170006EPS1_, symObjAddr: 0xE760, symBinAddr: 0x100011DC0, symSize: 0x2C }
  - { offsetInCU: 0x4D1FF, offset: 0x4D1FF, size: 0x8, addend: 0x0, symName: __ZNSt3__114__split_bufferI9PredicateRNS_9allocatorIS1_EEE17__destruct_at_endB8ue170006EPS1_NS_17integral_constantIbLb0EEE, symObjAddr: 0xE78C, symBinAddr: 0x100011DEC, symSize: 0x80 }
  - { offsetInCU: 0x4D23F, offset: 0x4D23F, size: 0x8, addend: 0x0, symName: __ZNSt3__19allocatorI9PredicateE10deallocateB8ue170006EPS1_m, symObjAddr: 0xE80C, symBinAddr: 0x100011E6C, symSize: 0x44 }
  - { offsetInCU: 0x4D281, offset: 0x4D281, size: 0x8, addend: 0x0, symName: __ZNKSt3__114__split_bufferI9PredicateRNS_9allocatorIS1_EEE9__end_capB8ue170006Ev, symObjAddr: 0xE850, symBinAddr: 0x100011EB0, symSize: 0x28 }
  - { offsetInCU: 0x4D2A7, offset: 0x4D2A7, size: 0x8, addend: 0x0, symName: __ZNKSt3__117__compressed_pairIP9PredicateRNS_9allocatorIS1_EEE5firstB8ue170006Ev, symObjAddr: 0xE878, symBinAddr: 0x100011ED8, symSize: 0x24 }
  - { offsetInCU: 0x4D2CD, offset: 0x4D2CD, size: 0x8, addend: 0x0, symName: __ZN6Parser16predicateCreatorEN5Token9TokenTypeE, symObjAddr: 0xE89C, symBinAddr: 0x100011EFC, symSize: 0x448 }
  - { offsetInCU: 0x4D371, offset: 0x4D371, size: 0x8, addend: 0x0, symName: __ZNK5Token8getValueEv, symObjAddr: 0xECE4, symBinAddr: 0x100012344, symSize: 0x3C }
  - { offsetInCU: 0x4D397, offset: 0x4D397, size: 0x8, addend: 0x0, symName: __ZNSt3__16vectorI9ParameterNS_9allocatorIS1_EEEC1B8ue170006Ev, symObjAddr: 0xED20, symBinAddr: 0x100012380, symSize: 0x2C }
  - { offsetInCU: 0x4D3C1, offset: 0x4D3C1, size: 0x8, addend: 0x0, symName: __ZN9Predicate12addParameterERK9Parameter, symObjAddr: 0xED4C, symBinAddr: 0x1000123AC, symSize: 0x30 }
  - { offsetInCU: 0x4D3F5, offset: 0x4D3F5, size: 0x8, addend: 0x0, symName: __ZNK6Parser16parameterCreatorEv, symObjAddr: 0xED7C, symBinAddr: 0x1000123DC, symSize: 0x170 }
  - { offsetInCU: 0x4D445, offset: 0x4D445, size: 0x8, addend: 0x0, symName: __ZN9ParameterD1Ev, symObjAddr: 0xEEEC, symBinAddr: 0x10001254C, symSize: 0x2C }
  - { offsetInCU: 0x4D471, offset: 0x4D471, size: 0x8, addend: 0x0, symName: __ZN6Parser6idListERNSt3__16vectorI9ParameterNS0_9allocatorIS2_EEEE, symObjAddr: 0xEF18, symBinAddr: 0x100012578, symSize: 0xB4 }
  - { offsetInCU: 0x4D4A5, offset: 0x4D4A5, size: 0x8, addend: 0x0, symName: __ZN9Predicate12addParameterERKNSt3__16vectorI9ParameterNS0_9allocatorIS2_EEEE, symObjAddr: 0xEFCC, symBinAddr: 0x10001262C, symSize: 0x8C }
  - { offsetInCU: 0x4D52A, offset: 0x4D52A, size: 0x8, addend: 0x0, symName: __ZN6Parser10stringListERNSt3__16vectorI9ParameterNS0_9allocatorIS2_EEEE, symObjAddr: 0xF058, symBinAddr: 0x1000126B8, symSize: 0xB4 }
  - { offsetInCU: 0x4D55E, offset: 0x4D55E, size: 0x8, addend: 0x0, symName: __ZN9Parameter8isTypeIDEv, symObjAddr: 0xF10C, symBinAddr: 0x10001276C, symSize: 0x64 }
  - { offsetInCU: 0x4D584, offset: 0x4D584, size: 0x8, addend: 0x0, symName: __ZN6Parser13parameterListERNSt3__16vectorI9ParameterNS0_9allocatorIS2_EEEE, symObjAddr: 0xF170, symBinAddr: 0x1000127D0, symSize: 0xE0 }
  - { offsetInCU: 0x4D5B8, offset: 0x4D5B8, size: 0x8, addend: 0x0, symName: __ZNSt3__16vectorI9ParameterNS_9allocatorIS1_EEEC2B8ue170006Ev, symObjAddr: 0xF250, symBinAddr: 0x1000128B0, symSize: 0x4C }
  - { offsetInCU: 0x4D5E2, offset: 0x4D5E2, size: 0x8, addend: 0x0, symName: __ZNSt3__117__compressed_pairIP9ParameterNS_9allocatorIS1_EEEC1B8ue170006IDnNS_18__default_init_tagEEEOT_OT0_, symObjAddr: 0xF29C, symBinAddr: 0x1000128FC, symSize: 0x3C }
  - { offsetInCU: 0x4D63A, offset: 0x4D63A, size: 0x8, addend: 0x0, symName: __ZNSt3__117__compressed_pairIP9ParameterNS_9allocatorIS1_EEEC2B8ue170006IDnNS_18__default_init_tagEEEOT_OT0_, symObjAddr: 0xF2D8, symBinAddr: 0x100012938, symSize: 0x40 }
  - { offsetInCU: 0x4D692, offset: 0x4D692, size: 0x8, addend: 0x0, symName: __ZNSt3__122__compressed_pair_elemINS_9allocatorI9ParameterEELi1ELb1EEC2B8ue170006ENS_18__default_init_tagE, symObjAddr: 0xF318, symBinAddr: 0x100012978, symSize: 0x2C }
  - { offsetInCU: 0x4D6C6, offset: 0x4D6C6, size: 0x8, addend: 0x0, symName: __ZNSt3__19allocatorI9ParameterEC2B8ue170006Ev, symObjAddr: 0xF344, symBinAddr: 0x1000129A4, symSize: 0x2C }
  - { offsetInCU: 0x4D6F0, offset: 0x4D6F0, size: 0x8, addend: 0x0, symName: __ZNSt3__116__non_trivial_ifILb1ENS_9allocatorI9ParameterEEEC2B8ue170006Ev, symObjAddr: 0xF370, symBinAddr: 0x1000129D0, symSize: 0x14 }
  - { offsetInCU: 0x4D71A, offset: 0x4D71A, size: 0x8, addend: 0x0, symName: __ZNSt3__16vectorI9ParameterNS_9allocatorIS1_EEE9push_backB8ue170006ERKS1_, symObjAddr: 0xF384, symBinAddr: 0x1000129E4, symSize: 0x6C }
  - { offsetInCU: 0x4D751, offset: 0x4D751, size: 0x8, addend: 0x0, symName: __ZNSt3__16vectorI9ParameterNS_9allocatorIS1_EEE22__construct_one_at_endB8ue170006IJRKS1_EEEvDpOT_, symObjAddr: 0xF3F0, symBinAddr: 0x100012A50, symSize: 0x90 }
  - { offsetInCU: 0x4D7A0, offset: 0x4D7A0, size: 0x8, addend: 0x0, symName: __ZNSt3__16vectorI9ParameterNS_9allocatorIS1_EEE21__push_back_slow_pathIRKS1_EEvOT_, symObjAddr: 0xF480, symBinAddr: 0x100012AE0, symSize: 0xD8 }
  - { offsetInCU: 0x4D81A, offset: 0x4D81A, size: 0x8, addend: 0x0, symName: __ZNSt3__16vectorI9ParameterNS_9allocatorIS1_EEE21_ConstructTransactionC1B8ue170006ERS4_m, symObjAddr: 0xF558, symBinAddr: 0x100012BB8, symSize: 0x3C }
  - { offsetInCU: 0x4D862, offset: 0x4D862, size: 0x8, addend: 0x0, symName: __ZNSt3__116allocator_traitsINS_9allocatorI9ParameterEEE9constructB8ue170006IS2_JRKS2_EvEEvRS3_PT_DpOT0_, symObjAddr: 0xF594, symBinAddr: 0x100012BF4, symSize: 0x34 }
  - { offsetInCU: 0x4D8B9, offset: 0x4D8B9, size: 0x8, addend: 0x0, symName: __ZNSt3__16vectorI9ParameterNS_9allocatorIS1_EEE21_ConstructTransactionD1B8ue170006Ev, symObjAddr: 0xF5DC, symBinAddr: 0x100012C3C, symSize: 0x2C }
  - { offsetInCU: 0x4D8E3, offset: 0x4D8E3, size: 0x8, addend: 0x0, symName: __ZNSt3__16vectorI9ParameterNS_9allocatorIS1_EEE21_ConstructTransactionC2B8ue170006ERS4_m, symObjAddr: 0xF608, symBinAddr: 0x100012C68, symSize: 0x4C }
  - { offsetInCU: 0x4D92B, offset: 0x4D92B, size: 0x8, addend: 0x0, symName: __ZNSt3__19allocatorI9ParameterE9constructB8ue170006IS1_JRKS1_EEEvPT_DpOT0_, symObjAddr: 0xF654, symBinAddr: 0x100012CB4, symSize: 0x30 }
  - { offsetInCU: 0x4D981, offset: 0x4D981, size: 0x8, addend: 0x0, symName: __ZN9ParameterC1ERKS_, symObjAddr: 0xF684, symBinAddr: 0x100012CE4, symSize: 0x34 }
  - { offsetInCU: 0x4D9B6, offset: 0x4D9B6, size: 0x8, addend: 0x0, symName: __ZN9ParameterC2ERKS_, symObjAddr: 0xF6B8, symBinAddr: 0x100012D18, symSize: 0x34 }
  - { offsetInCU: 0x4D9EB, offset: 0x4D9EB, size: 0x8, addend: 0x0, symName: __ZNSt3__16vectorI9ParameterNS_9allocatorIS1_EEE21_ConstructTransactionD2B8ue170006Ev, symObjAddr: 0xF6EC, symBinAddr: 0x100012D4C, symSize: 0x20 }
  - { offsetInCU: 0x4DA15, offset: 0x4DA15, size: 0x8, addend: 0x0, symName: __ZNKSt3__16vectorI9ParameterNS_9allocatorIS1_EEE11__recommendB8ue170006Em, symObjAddr: 0xF70C, symBinAddr: 0x100012D6C, symSize: 0xB4 }
  - { offsetInCU: 0x4DA6A, offset: 0x4DA6A, size: 0x8, addend: 0x0, symName: __ZNKSt3__16vectorI9ParameterNS_9allocatorIS1_EEE4sizeB8ue170006Ev, symObjAddr: 0xF7C0, symBinAddr: 0x100012E20, symSize: 0x28 }
  - { offsetInCU: 0x4DA90, offset: 0x4DA90, size: 0x8, addend: 0x0, symName: __ZNSt3__114__split_bufferI9ParameterRNS_9allocatorIS1_EEEC1EmmS4_, symObjAddr: 0xF7E8, symBinAddr: 0x100012E48, symSize: 0x44 }
  - { offsetInCU: 0x4DAE6, offset: 0x4DAE6, size: 0x8, addend: 0x0, symName: __ZNSt3__114__split_bufferI9ParameterRNS_9allocatorIS1_EEED1Ev, symObjAddr: 0xF93C, symBinAddr: 0x100012F9C, symSize: 0x2C }
  - { offsetInCU: 0x4DB12, offset: 0x4DB12, size: 0x8, addend: 0x0, symName: __ZNKSt3__16vectorI9ParameterNS_9allocatorIS1_EEE8max_sizeEv, symObjAddr: 0xF968, symBinAddr: 0x100012FC8, symSize: 0x60 }
  - { offsetInCU: 0x4DB3A, offset: 0x4DB3A, size: 0x8, addend: 0x0, symName: __ZNKSt3__16vectorI9ParameterNS_9allocatorIS1_EEE20__throw_length_errorB8ue170006Ev, symObjAddr: 0xF9C8, symBinAddr: 0x100013028, symSize: 0x1C }
  - { offsetInCU: 0x4DB60, offset: 0x4DB60, size: 0x8, addend: 0x0, symName: __ZNKSt3__16vectorI9ParameterNS_9allocatorIS1_EEE8capacityB8ue170006Ev, symObjAddr: 0xF9E4, symBinAddr: 0x100013044, symSize: 0x40 }
  - { offsetInCU: 0x4DB91, offset: 0x4DB91, size: 0x8, addend: 0x0, symName: __ZNSt3__116allocator_traitsINS_9allocatorI9ParameterEEE8max_sizeB8ue170006IS3_vEEmRKS3_, symObjAddr: 0xFA24, symBinAddr: 0x100013084, symSize: 0x24 }
  - { offsetInCU: 0x4DBBF, offset: 0x4DBBF, size: 0x8, addend: 0x0, symName: __ZNKSt3__16vectorI9ParameterNS_9allocatorIS1_EEE7__allocB8ue170006Ev, symObjAddr: 0xFA48, symBinAddr: 0x1000130A8, symSize: 0x28 }
  - { offsetInCU: 0x4DBE5, offset: 0x4DBE5, size: 0x8, addend: 0x0, symName: __ZNKSt3__19allocatorI9ParameterE8max_sizeB8ue170006Ev, symObjAddr: 0xFA70, symBinAddr: 0x1000130D0, symSize: 0x18 }
  - { offsetInCU: 0x4DC0B, offset: 0x4DC0B, size: 0x8, addend: 0x0, symName: __ZNKSt3__117__compressed_pairIP9ParameterNS_9allocatorIS1_EEE6secondB8ue170006Ev, symObjAddr: 0xFA88, symBinAddr: 0x1000130E8, symSize: 0x24 }
  - { offsetInCU: 0x4DC31, offset: 0x4DC31, size: 0x8, addend: 0x0, symName: __ZNKSt3__122__compressed_pair_elemINS_9allocatorI9ParameterEELi1ELb1EE5__getB8ue170006Ev, symObjAddr: 0xFAAC, symBinAddr: 0x10001310C, symSize: 0x14 }
  - { offsetInCU: 0x4DC57, offset: 0x4DC57, size: 0x8, addend: 0x0, symName: __ZNKSt3__16vectorI9ParameterNS_9allocatorIS1_EEE9__end_capB8ue170006Ev, symObjAddr: 0xFAC0, symBinAddr: 0x100013120, symSize: 0x28 }
  - { offsetInCU: 0x4DC7D, offset: 0x4DC7D, size: 0x8, addend: 0x0, symName: __ZNKSt3__117__compressed_pairIP9ParameterNS_9allocatorIS1_EEE5firstB8ue170006Ev, symObjAddr: 0xFAE8, symBinAddr: 0x100013148, symSize: 0x24 }
  - { offsetInCU: 0x4DCA3, offset: 0x4DCA3, size: 0x8, addend: 0x0, symName: __ZNKSt3__122__compressed_pair_elemIP9ParameterLi0ELb0EE5__getB8ue170006Ev, symObjAddr: 0xFB0C, symBinAddr: 0x10001316C, symSize: 0x14 }
  - { offsetInCU: 0x4DCC9, offset: 0x4DCC9, size: 0x8, addend: 0x0, symName: __ZNSt3__114__split_bufferI9ParameterRNS_9allocatorIS1_EEEC2EmmS4_, symObjAddr: 0xFB20, symBinAddr: 0x100013180, symSize: 0xE0 }
  - { offsetInCU: 0x4DD3C, offset: 0x4DD3C, size: 0x8, addend: 0x0, symName: __ZNSt3__117__compressed_pairIP9ParameterRNS_9allocatorIS1_EEEC1B8ue170006IDnS5_EEOT_OT0_, symObjAddr: 0xFC00, symBinAddr: 0x100013260, symSize: 0x3C }
  - { offsetInCU: 0x4DD94, offset: 0x4DD94, size: 0x8, addend: 0x0, symName: __ZNSt3__114__split_bufferI9ParameterRNS_9allocatorIS1_EEE7__allocB8ue170006Ev, symObjAddr: 0xFC7C, symBinAddr: 0x1000132DC, symSize: 0x28 }
  - { offsetInCU: 0x4DDBA, offset: 0x4DDBA, size: 0x8, addend: 0x0, symName: __ZNSt3__114__split_bufferI9ParameterRNS_9allocatorIS1_EEE9__end_capB8ue170006Ev, symObjAddr: 0xFCA4, symBinAddr: 0x100013304, symSize: 0x28 }
  - { offsetInCU: 0x4DDE0, offset: 0x4DDE0, size: 0x8, addend: 0x0, symName: __ZNSt3__117__compressed_pairIP9ParameterRNS_9allocatorIS1_EEEC2B8ue170006IDnS5_EEOT_OT0_, symObjAddr: 0xFCCC, symBinAddr: 0x10001332C, symSize: 0x48 }
  - { offsetInCU: 0x4DE38, offset: 0x4DE38, size: 0x8, addend: 0x0, symName: __ZNSt3__122__compressed_pair_elemIRNS_9allocatorI9ParameterEELi1ELb0EEC2B8ue170006IS4_vEEOT_, symObjAddr: 0xFD14, symBinAddr: 0x100013374, symSize: 0x20 }
  - { offsetInCU: 0x4DE7A, offset: 0x4DE7A, size: 0x8, addend: 0x0, symName: __ZNSt3__19allocatorI9ParameterE8allocateB8ue170006Em, symObjAddr: 0xFD34, symBinAddr: 0x100013394, symSize: 0x5C }
  - { offsetInCU: 0x4DEAE, offset: 0x4DEAE, size: 0x8, addend: 0x0, symName: __ZNSt3__117__compressed_pairIP9ParameterRNS_9allocatorIS1_EEE6secondB8ue170006Ev, symObjAddr: 0xFD90, symBinAddr: 0x1000133F0, symSize: 0x28 }
  - { offsetInCU: 0x4DED4, offset: 0x4DED4, size: 0x8, addend: 0x0, symName: __ZNSt3__122__compressed_pair_elemIRNS_9allocatorI9ParameterEELi1ELb0EE5__getB8ue170006Ev, symObjAddr: 0xFDB8, symBinAddr: 0x100013418, symSize: 0x18 }
  - { offsetInCU: 0x4DEFA, offset: 0x4DEFA, size: 0x8, addend: 0x0, symName: __ZNSt3__117__compressed_pairIP9ParameterRNS_9allocatorIS1_EEE5firstB8ue170006Ev, symObjAddr: 0xFDD0, symBinAddr: 0x100013430, symSize: 0x24 }
  - { offsetInCU: 0x4DF20, offset: 0x4DF20, size: 0x8, addend: 0x0, symName: __ZNKSt3__16vectorI9ParameterNS_9allocatorIS1_EEE17__annotate_deleteB8ue170006Ev, symObjAddr: 0xFDF4, symBinAddr: 0x100013454, symSize: 0xD4 }
  - { offsetInCU: 0x4DF46, offset: 0x4DF46, size: 0x8, addend: 0x0, symName: __ZNSt3__116reverse_iteratorIP9ParameterEC1B8ue170006ES2_, symObjAddr: 0xFFF4, symBinAddr: 0x100013654, symSize: 0x34 }
  - { offsetInCU: 0x4DF7E, offset: 0x4DF7E, size: 0x8, addend: 0x0, symName: __ZNKSt3__116reverse_iteratorIP9ParameterE4baseB8ue170006Ev, symObjAddr: 0x10028, symBinAddr: 0x100013688, symSize: 0x18 }
  - { offsetInCU: 0x4DFA4, offset: 0x4DFA4, size: 0x8, addend: 0x0, symName: __ZNKSt3__16vectorI9ParameterNS_9allocatorIS1_EEE14__annotate_newB8ue170006Em, symObjAddr: 0x1007C, symBinAddr: 0x1000136DC, symSize: 0xC8 }
  - { offsetInCU: 0x4DFD9, offset: 0x4DFD9, size: 0x8, addend: 0x0, symName: __ZNKSt3__16vectorI9ParameterNS_9allocatorIS1_EEE31__annotate_contiguous_containerB8ue170006EPKvS6_S6_S6_, symObjAddr: 0x10144, symBinAddr: 0x1000137A4, symSize: 0x20 }
  - { offsetInCU: 0x4E02F, offset: 0x4E02F, size: 0x8, addend: 0x0, symName: __ZNKSt3__16vectorI9ParameterNS_9allocatorIS1_EEE4dataB8ue170006Ev, symObjAddr: 0x10164, symBinAddr: 0x1000137C4, symSize: 0x28 }
  - { offsetInCU: 0x4E055, offset: 0x4E055, size: 0x8, addend: 0x0, symName: __ZNSt3__129_AllocatorDestroyRangeReverseINS_9allocatorI9ParameterEENS_16reverse_iteratorIPS2_EEEC1B8ue170006ERS3_RS6_S9_, symObjAddr: 0x101D8, symBinAddr: 0x100013838, symSize: 0x44 }
  - { offsetInCU: 0x4E0AC, offset: 0x4E0AC, size: 0x8, addend: 0x0, symName: __ZNKSt3__116reverse_iteratorIP9ParameterEdeB8ue170006Ev, symObjAddr: 0x10288, symBinAddr: 0x1000138E8, symSize: 0x28 }
  - { offsetInCU: 0x4E0E0, offset: 0x4E0E0, size: 0x8, addend: 0x0, symName: __ZNSt3__116reverse_iteratorIP9ParameterEppB8ue170006Ev, symObjAddr: 0x102B0, symBinAddr: 0x100013910, symSize: 0x20 }
  - { offsetInCU: 0x4E106, offset: 0x4E106, size: 0x8, addend: 0x0, symName: __ZNSt3__128__exception_guard_exceptionsINS_29_AllocatorDestroyRangeReverseINS_9allocatorI9ParameterEENS_16reverse_iteratorIPS3_EEEEE10__completeB8ue170006Ev, symObjAddr: 0x102D0, symBinAddr: 0x100013930, symSize: 0x1C }
  - { offsetInCU: 0x4E12C, offset: 0x4E12C, size: 0x8, addend: 0x0, symName: __ZNSt3__128__exception_guard_exceptionsINS_29_AllocatorDestroyRangeReverseINS_9allocatorI9ParameterEENS_16reverse_iteratorIPS3_EEEEED1B8ue170006Ev, symObjAddr: 0x102EC, symBinAddr: 0x10001394C, symSize: 0x2C }
  - { offsetInCU: 0x4E156, offset: 0x4E156, size: 0x8, addend: 0x0, symName: __ZNSt3__128__exception_guard_exceptionsINS_29_AllocatorDestroyRangeReverseINS_9allocatorI9ParameterEENS_16reverse_iteratorIPS3_EEEEEC1B8ue170006ES8_, symObjAddr: 0x10318, symBinAddr: 0x100013978, symSize: 0x34 }
  - { offsetInCU: 0x4E18F, offset: 0x4E18F, size: 0x8, addend: 0x0, symName: __ZNSt3__128__exception_guard_exceptionsINS_29_AllocatorDestroyRangeReverseINS_9allocatorI9ParameterEENS_16reverse_iteratorIPS3_EEEEEC2B8ue170006ES8_, symObjAddr: 0x1034C, symBinAddr: 0x1000139AC, symSize: 0x30 }
  - { offsetInCU: 0x4E1C8, offset: 0x4E1C8, size: 0x8, addend: 0x0, symName: __ZNSt3__129_AllocatorDestroyRangeReverseINS_9allocatorI9ParameterEENS_16reverse_iteratorIPS2_EEEC2B8ue170006ERS3_RS6_S9_, symObjAddr: 0x1037C, symBinAddr: 0x1000139DC, symSize: 0x38 }
  - { offsetInCU: 0x4E225, offset: 0x4E225, size: 0x8, addend: 0x0, symName: __ZNSt3__119__to_address_helperINS_16reverse_iteratorIP9ParameterEEvE6__callB8ue170006ERKS4_, symObjAddr: 0x103B4, symBinAddr: 0x100013A14, symSize: 0x38 }
  - { offsetInCU: 0x4E248, offset: 0x4E248, size: 0x8, addend: 0x0, symName: __ZNKSt3__116reverse_iteratorIP9ParameterEptB8ue170006Ev, symObjAddr: 0x103EC, symBinAddr: 0x100013A4C, symSize: 0x24 }
  - { offsetInCU: 0x4E26E, offset: 0x4E26E, size: 0x8, addend: 0x0, symName: __ZNSt3__128__exception_guard_exceptionsINS_29_AllocatorDestroyRangeReverseINS_9allocatorI9ParameterEENS_16reverse_iteratorIPS3_EEEEED2B8ue170006Ev, symObjAddr: 0x10410, symBinAddr: 0x100013A70, symSize: 0x50 }
  - { offsetInCU: 0x4E298, offset: 0x4E298, size: 0x8, addend: 0x0, symName: __ZNKSt3__129_AllocatorDestroyRangeReverseINS_9allocatorI9ParameterEENS_16reverse_iteratorIPS2_EEEclB8ue170006Ev, symObjAddr: 0x10460, symBinAddr: 0x100013AC0, symSize: 0xB4 }
  - { offsetInCU: 0x4E2BF, offset: 0x4E2BF, size: 0x8, addend: 0x0, symName: __ZNSt3__116reverse_iteratorINS0_IP9ParameterEEEC1B8ue170006ES3_, symObjAddr: 0x10584, symBinAddr: 0x100013BE4, symSize: 0x3C }
  - { offsetInCU: 0x4E2F7, offset: 0x4E2F7, size: 0x8, addend: 0x0, symName: __ZNSt3__116allocator_traitsINS_9allocatorI9ParameterEEE7destroyB8ue170006IS2_vEEvRS3_PT_, symObjAddr: 0x10620, symBinAddr: 0x100013C80, symSize: 0x2C }
  - { offsetInCU: 0x4E334, offset: 0x4E334, size: 0x8, addend: 0x0, symName: __ZNSt3__116reverse_iteratorINS0_IP9ParameterEEEppB8ue170006Ev, symObjAddr: 0x10670, symBinAddr: 0x100013CD0, symSize: 0x30 }
  - { offsetInCU: 0x4E35A, offset: 0x4E35A, size: 0x8, addend: 0x0, symName: __ZNKSt3__116reverse_iteratorINS0_IP9ParameterEEE4baseB8ue170006Ev, symObjAddr: 0x106A0, symBinAddr: 0x100013D00, symSize: 0x24 }
  - { offsetInCU: 0x4E380, offset: 0x4E380, size: 0x8, addend: 0x0, symName: __ZNSt3__19allocatorI9ParameterE7destroyB8ue170006EPS1_, symObjAddr: 0x106C4, symBinAddr: 0x100013D24, symSize: 0x28 }
  - { offsetInCU: 0x4E3BA, offset: 0x4E3BA, size: 0x8, addend: 0x0, symName: __ZNSt3__119__to_address_helperINS_16reverse_iteratorINS1_IP9ParameterEEEEvE6__callB8ue170006ERKS5_, symObjAddr: 0x106EC, symBinAddr: 0x100013D4C, symSize: 0x38 }
  - { offsetInCU: 0x4E3DD, offset: 0x4E3DD, size: 0x8, addend: 0x0, symName: __ZNKSt3__116reverse_iteratorINS0_IP9ParameterEEEptB8ue170006Ev, symObjAddr: 0x10724, symBinAddr: 0x100013D84, symSize: 0x24 }
  - { offsetInCU: 0x4E403, offset: 0x4E403, size: 0x8, addend: 0x0, symName: __ZNKSt3__116reverse_iteratorINS0_IP9ParameterEEEdeB8ue170006Ev, symObjAddr: 0x10748, symBinAddr: 0x100013DA8, symSize: 0x34 }
  - { offsetInCU: 0x4E437, offset: 0x4E437, size: 0x8, addend: 0x0, symName: __ZNSt3__116reverse_iteratorIP9ParameterEmmB8ue170006Ev, symObjAddr: 0x1077C, symBinAddr: 0x100013DDC, symSize: 0x20 }
  - { offsetInCU: 0x4E45D, offset: 0x4E45D, size: 0x8, addend: 0x0, symName: __ZNSt3__116reverse_iteratorINS0_IP9ParameterEEEC2B8ue170006ES3_, symObjAddr: 0x1079C, symBinAddr: 0x100013DFC, symSize: 0x2C }
  - { offsetInCU: 0x4E495, offset: 0x4E495, size: 0x8, addend: 0x0, symName: __ZNSt3__116reverse_iteratorIP9ParameterEC2B8ue170006ES2_, symObjAddr: 0x107C8, symBinAddr: 0x100013E28, symSize: 0x28 }
  - { offsetInCU: 0x4E4CD, offset: 0x4E4CD, size: 0x8, addend: 0x0, symName: __ZNSt3__114__split_bufferI9ParameterRNS_9allocatorIS1_EEED2Ev, symObjAddr: 0x107F0, symBinAddr: 0x100013E50, symSize: 0x8C }
  - { offsetInCU: 0x4E4F9, offset: 0x4E4F9, size: 0x8, addend: 0x0, symName: __ZNSt3__114__split_bufferI9ParameterRNS_9allocatorIS1_EEE5clearB8ue170006Ev, symObjAddr: 0x1087C, symBinAddr: 0x100013EDC, symSize: 0x28 }
  - { offsetInCU: 0x4E51F, offset: 0x4E51F, size: 0x8, addend: 0x0, symName: __ZNSt3__116allocator_traitsINS_9allocatorI9ParameterEEE10deallocateB8ue170006ERS3_PS2_m, symObjAddr: 0x108A4, symBinAddr: 0x100013F04, symSize: 0x34 }
  - { offsetInCU: 0x4E561, offset: 0x4E561, size: 0x8, addend: 0x0, symName: __ZNKSt3__114__split_bufferI9ParameterRNS_9allocatorIS1_EEE8capacityB8ue170006Ev, symObjAddr: 0x108D8, symBinAddr: 0x100013F38, symSize: 0x40 }
  - { offsetInCU: 0x4E587, offset: 0x4E587, size: 0x8, addend: 0x0, symName: __ZNSt3__114__split_bufferI9ParameterRNS_9allocatorIS1_EEE17__destruct_at_endB8ue170006EPS1_, symObjAddr: 0x10918, symBinAddr: 0x100013F78, symSize: 0x2C }
  - { offsetInCU: 0x4E5BB, offset: 0x4E5BB, size: 0x8, addend: 0x0, symName: __ZNSt3__114__split_bufferI9ParameterRNS_9allocatorIS1_EEE17__destruct_at_endB8ue170006EPS1_NS_17integral_constantIbLb0EEE, symObjAddr: 0x10944, symBinAddr: 0x100013FA4, symSize: 0x80 }
  - { offsetInCU: 0x4E5FB, offset: 0x4E5FB, size: 0x8, addend: 0x0, symName: __ZNSt3__19allocatorI9ParameterE10deallocateB8ue170006EPS1_m, symObjAddr: 0x109C4, symBinAddr: 0x100014024, symSize: 0x44 }
  - { offsetInCU: 0x4E63D, offset: 0x4E63D, size: 0x8, addend: 0x0, symName: __ZNKSt3__114__split_bufferI9ParameterRNS_9allocatorIS1_EEE9__end_capB8ue170006Ev, symObjAddr: 0x10A08, symBinAddr: 0x100014068, symSize: 0x28 }
  - { offsetInCU: 0x4E663, offset: 0x4E663, size: 0x8, addend: 0x0, symName: __ZNKSt3__117__compressed_pairIP9ParameterRNS_9allocatorIS1_EEE5firstB8ue170006Ev, symObjAddr: 0x10A30, symBinAddr: 0x100014090, symSize: 0x24 }
  - { offsetInCU: 0x4E689, offset: 0x4E689, size: 0x8, addend: 0x0, symName: __ZN9ParameterC1E5Token, symObjAddr: 0x10A54, symBinAddr: 0x1000140B4, symSize: 0x34 }
  - { offsetInCU: 0x4E6C2, offset: 0x4E6C2, size: 0x8, addend: 0x0, symName: __ZN9ParameterC2E5Token, symObjAddr: 0x10A88, symBinAddr: 0x1000140E8, symSize: 0x34 }
  - { offsetInCU: 0x4E6FB, offset: 0x4E6FB, size: 0x8, addend: 0x0, symName: __ZN9ParameterD2Ev, symObjAddr: 0x10ABC, symBinAddr: 0x10001411C, symSize: 0x2C }
  - { offsetInCU: 0x4E72D, offset: 0x4E72D, size: 0x8, addend: 0x0, symName: __ZNSt3__16vectorI9ParameterNS_9allocatorIS1_EEE12emplace_backIJS1_EEERS1_DpOT_, symObjAddr: 0x10AE8, symBinAddr: 0x100014148, symSize: 0x74 }
  - { offsetInCU: 0x4E76F, offset: 0x4E76F, size: 0x8, addend: 0x0, symName: __ZNSt3__16vectorI9ParameterNS_9allocatorIS1_EEE22__construct_one_at_endB8ue170006IJS1_EEEvDpOT_, symObjAddr: 0x10B5C, symBinAddr: 0x1000141BC, symSize: 0x90 }
  - { offsetInCU: 0x4E7BE, offset: 0x4E7BE, size: 0x8, addend: 0x0, symName: __ZNSt3__16vectorI9ParameterNS_9allocatorIS1_EEE24__emplace_back_slow_pathIJS1_EEEvDpOT_, symObjAddr: 0x10BEC, symBinAddr: 0x10001424C, symSize: 0xD8 }
  - { offsetInCU: 0x4E81E, offset: 0x4E81E, size: 0x8, addend: 0x0, symName: __ZNSt3__16vectorI9ParameterNS_9allocatorIS1_EEE4backB8ue170006Ev, symObjAddr: 0x10CC4, symBinAddr: 0x100014324, symSize: 0x1C }
  - { offsetInCU: 0x4E844, offset: 0x4E844, size: 0x8, addend: 0x0, symName: __ZNSt3__116allocator_traitsINS_9allocatorI9ParameterEEE9constructB8ue170006IS2_JS2_EvEEvRS3_PT_DpOT0_, symObjAddr: 0x10CE0, symBinAddr: 0x100014340, symSize: 0x34 }
  - { offsetInCU: 0x4E89B, offset: 0x4E89B, size: 0x8, addend: 0x0, symName: __ZNSt3__19allocatorI9ParameterE9constructB8ue170006IS1_JS1_EEEvPT_DpOT0_, symObjAddr: 0x10D14, symBinAddr: 0x100014374, symSize: 0x30 }
  - { offsetInCU: 0x4E8F1, offset: 0x4E8F1, size: 0x8, addend: 0x0, symName: __ZN9ParameterC1EOS_, symObjAddr: 0x10D44, symBinAddr: 0x1000143A4, symSize: 0x34 }
  - { offsetInCU: 0x4E926, offset: 0x4E926, size: 0x8, addend: 0x0, symName: __ZN9ParameterC2EOS_, symObjAddr: 0x10D78, symBinAddr: 0x1000143D8, symSize: 0x34 }
  - { offsetInCU: 0x4E961, offset: 0x4E961, size: 0x8, addend: 0x0, symName: __ZN5TokenC1EOS_, symObjAddr: 0x10DAC, symBinAddr: 0x10001440C, symSize: 0x34 }
  - { offsetInCU: 0x4E996, offset: 0x4E996, size: 0x8, addend: 0x0, symName: __ZN5TokenC2EOS_, symObjAddr: 0x10DE0, symBinAddr: 0x100014440, symSize: 0x60 }
  - { offsetInCU: 0x4E9CB, offset: 0x4E9CB, size: 0x8, addend: 0x0, symName: __ZNKSt3__16vectorI9ParameterNS_9allocatorIS1_EEE5beginB8ue170006Ev, symObjAddr: 0x10E40, symBinAddr: 0x1000144A0, symSize: 0x30 }
  - { offsetInCU: 0x4E9F3, offset: 0x4E9F3, size: 0x8, addend: 0x0, symName: __ZNKSt3__16vectorI9ParameterNS_9allocatorIS1_EEE3endB8ue170006Ev, symObjAddr: 0x10E70, symBinAddr: 0x1000144D0, symSize: 0x30 }
  - { offsetInCU: 0x4EA1B, offset: 0x4EA1B, size: 0x8, addend: 0x0, symName: __ZNKSt3__111__wrap_iterIPK9ParameterEdeB8ue170006Ev, symObjAddr: 0x10ED4, symBinAddr: 0x100014534, symSize: 0x18 }
  - { offsetInCU: 0x4EA41, offset: 0x4EA41, size: 0x8, addend: 0x0, symName: __ZNSt3__111__wrap_iterIPK9ParameterEppB8ue170006Ev, symObjAddr: 0x10EEC, symBinAddr: 0x10001454C, symSize: 0x20 }
  - { offsetInCU: 0x4EA67, offset: 0x4EA67, size: 0x8, addend: 0x0, symName: __ZNKSt3__16vectorI9ParameterNS_9allocatorIS1_EEE11__make_iterB8ue170006EPKS1_, symObjAddr: 0x10F0C, symBinAddr: 0x10001456C, symSize: 0x30 }
  - { offsetInCU: 0x4EA9C, offset: 0x4EA9C, size: 0x8, addend: 0x0, symName: __ZNSt3__111__wrap_iterIPK9ParameterEC1B8ue170006ES3_, symObjAddr: 0x10F3C, symBinAddr: 0x10001459C, symSize: 0x34 }
  - { offsetInCU: 0x4EAD4, offset: 0x4EAD4, size: 0x8, addend: 0x0, symName: __ZNSt3__111__wrap_iterIPK9ParameterEC2B8ue170006ES3_, symObjAddr: 0x10F70, symBinAddr: 0x1000145D0, symSize: 0x20 }
  - { offsetInCU: 0x4EB0C, offset: 0x4EB0C, size: 0x8, addend: 0x0, symName: __ZNKSt3__111__wrap_iterIPK9ParameterE4baseB8ue170006Ev, symObjAddr: 0x10FD8, symBinAddr: 0x100014638, symSize: 0x18 }
  - { offsetInCU: 0x4EB32, offset: 0x4EB32, size: 0x8, addend: 0x0, symName: __ZNSt3__16vectorI9ParameterNS_9allocatorIS1_EEE9push_backB8ue170006EOS1_, symObjAddr: 0x10FF0, symBinAddr: 0x100014650, symSize: 0x6C }
  - { offsetInCU: 0x4EB69, offset: 0x4EB69, size: 0x8, addend: 0x0, symName: __ZNSt3__16vectorI9ParameterNS_9allocatorIS1_EEE21__push_back_slow_pathIS1_EEvOT_, symObjAddr: 0x1105C, symBinAddr: 0x1000146BC, symSize: 0xD8 }
  - { offsetInCU: 0x4EBC7, offset: 0x4EBC7, size: 0x8, addend: 0x0, symName: __ZN7Datalog10addToFactsERK9Predicate, symObjAddr: 0x11134, symBinAddr: 0x100014794, symSize: 0x2C }
  - { offsetInCU: 0x4EBFB, offset: 0x4EBFB, size: 0x8, addend: 0x0, symName: __ZN6Parser4factEv, symObjAddr: 0x11160, symBinAddr: 0x1000147C0, symSize: 0xAC }
  - { offsetInCU: 0x4EC30, offset: 0x4EC30, size: 0x8, addend: 0x0, symName: __ZN7Datalog10addToRulesERK4Rule, symObjAddr: 0x1120C, symBinAddr: 0x10001486C, symSize: 0x30 }
  - { offsetInCU: 0x4EC64, offset: 0x4EC64, size: 0x8, addend: 0x0, symName: __ZN6Parser4ruleEv, symObjAddr: 0x1123C, symBinAddr: 0x10001489C, symSize: 0x1A4 }
  - { offsetInCU: 0x4ECB7, offset: 0x4ECB7, size: 0x8, addend: 0x0, symName: __ZN6Parser13predicateListERNSt3__16vectorI9PredicateNS0_9allocatorIS2_EEEE, symObjAddr: 0x113E0, symBinAddr: 0x100014A40, symSize: 0xAC }
  - { offsetInCU: 0x4ECEB, offset: 0x4ECEB, size: 0x8, addend: 0x0, symName: __ZN4Rule13addPredicatesERKNSt3__16vectorI9PredicateNS0_9allocatorIS2_EEEE, symObjAddr: 0x1148C, symBinAddr: 0x100014AEC, symSize: 0xC4 }
  - { offsetInCU: 0x4ED60, offset: 0x4ED60, size: 0x8, addend: 0x0, symName: __ZNSt3__16vectorI9PredicateNS_9allocatorIS1_EEED1B8ue170006Ev, symObjAddr: 0x11550, symBinAddr: 0x100014BB0, symSize: 0x2C }
  - { offsetInCU: 0x4ED8A, offset: 0x4ED8A, size: 0x8, addend: 0x0, symName: __ZNSt3__16vectorI9PredicateNS_9allocatorIS1_EEE12emplace_backIJS1_EEERS1_DpOT_, symObjAddr: 0x1157C, symBinAddr: 0x100014BDC, symSize: 0x74 }
  - { offsetInCU: 0x4EDCC, offset: 0x4EDCC, size: 0x8, addend: 0x0, symName: __ZNSt3__16vectorI9PredicateNS_9allocatorIS1_EEE22__construct_one_at_endB8ue170006IJS1_EEEvDpOT_, symObjAddr: 0x115F0, symBinAddr: 0x100014C50, symSize: 0x90 }
  - { offsetInCU: 0x4EE1B, offset: 0x4EE1B, size: 0x8, addend: 0x0, symName: __ZNSt3__16vectorI9PredicateNS_9allocatorIS1_EEE24__emplace_back_slow_pathIJS1_EEEvDpOT_, symObjAddr: 0x11680, symBinAddr: 0x100014CE0, symSize: 0xD8 }
  - { offsetInCU: 0x4EE7B, offset: 0x4EE7B, size: 0x8, addend: 0x0, symName: __ZNSt3__16vectorI9PredicateNS_9allocatorIS1_EEE4backB8ue170006Ev, symObjAddr: 0x11758, symBinAddr: 0x100014DB8, symSize: 0x1C }
  - { offsetInCU: 0x4EEA1, offset: 0x4EEA1, size: 0x8, addend: 0x0, symName: __ZNSt3__16vectorI9PredicateNS_9allocatorIS1_EEED2B8ue170006Ev, symObjAddr: 0x11774, symBinAddr: 0x100014DD4, symSize: 0x44 }
  - { offsetInCU: 0x4EECB, offset: 0x4EECB, size: 0x8, addend: 0x0, symName: __ZNSt3__16vectorI9PredicateNS_9allocatorIS1_EEE16__destroy_vectorC1B8ue170006ERS4_, symObjAddr: 0x117B8, symBinAddr: 0x100014E18, symSize: 0x34 }
  - { offsetInCU: 0x4EF04, offset: 0x4EF04, size: 0x8, addend: 0x0, symName: __ZNSt3__16vectorI9PredicateNS_9allocatorIS1_EEE16__destroy_vectorclB8ue170006Ev, symObjAddr: 0x117EC, symBinAddr: 0x100014E4C, symSize: 0x90 }
  - { offsetInCU: 0x4EF2A, offset: 0x4EF2A, size: 0x8, addend: 0x0, symName: __ZNSt3__16vectorI9PredicateNS_9allocatorIS1_EEE16__destroy_vectorC2B8ue170006ERS4_, symObjAddr: 0x1187C, symBinAddr: 0x100014EDC, symSize: 0x20 }
  - { offsetInCU: 0x4EF63, offset: 0x4EF63, size: 0x8, addend: 0x0, symName: __ZNSt3__16vectorI9PredicateNS_9allocatorIS1_EEE7__clearB8ue170006Ev, symObjAddr: 0x1189C, symBinAddr: 0x100014EFC, symSize: 0x28 }
  - { offsetInCU: 0x4EF89, offset: 0x4EF89, size: 0x8, addend: 0x0, symName: __ZNSt3__16vectorI9PredicateNS_9allocatorIS1_EEE22__base_destruct_at_endB8ue170006EPS1_, symObjAddr: 0x118C4, symBinAddr: 0x100014F24, symSize: 0x8C }
  - { offsetInCU: 0x4EFCD, offset: 0x4EFCD, size: 0x8, addend: 0x0, symName: __ZN7Datalog12addToQueriesERK9Predicate, symObjAddr: 0x11950, symBinAddr: 0x100014FB0, symSize: 0x30 }
  - { offsetInCU: 0x4F001, offset: 0x4F001, size: 0x8, addend: 0x0, symName: __ZN6Parser5queryEv, symObjAddr: 0x11980, symBinAddr: 0x100014FE0, symSize: 0xA4 }
  - { offsetInCU: 0x4F036, offset: 0x4F036, size: 0x8, addend: 0x0, symName: __ZNKSt3__16vectorI9PredicateNS_9allocatorIS1_EEE11__make_iterB8ue170006EPKS1_, symObjAddr: 0x11A24, symBinAddr: 0x100015084, symSize: 0x30 }
  - { offsetInCU: 0x4F06B, offset: 0x4F06B, size: 0x8, addend: 0x0, symName: __ZNSt3__111__wrap_iterIPK9PredicateEC1B8ue170006ES3_, symObjAddr: 0x11A54, symBinAddr: 0x1000150B4, symSize: 0x34 }
  - { offsetInCU: 0x4F0A3, offset: 0x4F0A3, size: 0x8, addend: 0x0, symName: __ZNSt3__111__wrap_iterIPK9PredicateEC2B8ue170006ES3_, symObjAddr: 0x11A88, symBinAddr: 0x1000150E8, symSize: 0x20 }
  - { offsetInCU: 0x4F0DB, offset: 0x4F0DB, size: 0x8, addend: 0x0, symName: __ZNKSt3__111__wrap_iterIPK9PredicateE4baseB8ue170006Ev, symObjAddr: 0x11AF0, symBinAddr: 0x100015150, symSize: 0x18 }
  - { offsetInCU: 0x4F101, offset: 0x4F101, size: 0x8, addend: 0x0, symName: __ZN9PredicateC2ERKS_, symObjAddr: 0x11B08, symBinAddr: 0x100015168, symSize: 0x70 }
  - { offsetInCU: 0x4F136, offset: 0x4F136, size: 0x8, addend: 0x0, symName: __ZNSt3__16vectorI9ParameterNS_9allocatorIS1_EEEC1ERKS4_, symObjAddr: 0x11B78, symBinAddr: 0x1000151D8, symSize: 0x34 }
  - { offsetInCU: 0x4F171, offset: 0x4F171, size: 0x8, addend: 0x0, symName: __ZNSt3__16vectorI9ParameterNS_9allocatorIS1_EEEC2ERKS4_, symObjAddr: 0x11BAC, symBinAddr: 0x10001520C, symSize: 0x94 }
  - { offsetInCU: 0x4F1AC, offset: 0x4F1AC, size: 0x8, addend: 0x0, symName: __ZNSt3__116allocator_traitsINS_9allocatorI9ParameterEEE37select_on_container_copy_constructionB8ue170006IS3_vvEES3_RKS3_, symObjAddr: 0x11C40, symBinAddr: 0x1000152A0, symSize: 0x10 }
  - { offsetInCU: 0x4F1DB, offset: 0x4F1DB, size: 0x8, addend: 0x0, symName: __ZNSt3__16vectorI9ParameterNS_9allocatorIS1_EEE16__init_with_sizeB8ue170006IPS1_S6_EEvT_T0_m, symObjAddr: 0x11C50, symBinAddr: 0x1000152B0, symSize: 0xB8 }
  - { offsetInCU: 0x4F24F, offset: 0x4F24F, size: 0x8, addend: 0x0, symName: __ZNSt3__16vectorI9ParameterNS_9allocatorIS1_EEE16__destroy_vectorC1B8ue170006ERS4_, symObjAddr: 0x11D48, symBinAddr: 0x1000153A8, symSize: 0x34 }
  - { offsetInCU: 0x4F288, offset: 0x4F288, size: 0x8, addend: 0x0, symName: __ZNSt3__16vectorI9ParameterNS_9allocatorIS1_EEE11__vallocateB8ue170006Em, symObjAddr: 0x11D7C, symBinAddr: 0x1000153DC, symSize: 0xB4 }
  - { offsetInCU: 0x4F2CC, offset: 0x4F2CC, size: 0x8, addend: 0x0, symName: __ZNSt3__16vectorI9ParameterNS_9allocatorIS1_EEE18__construct_at_endIPS1_S6_EEvT_T0_m, symObjAddr: 0x11E30, symBinAddr: 0x100015490, symSize: 0x8C }
  - { offsetInCU: 0x4F342, offset: 0x4F342, size: 0x8, addend: 0x0, symName: __ZNSt3__128__exception_guard_exceptionsINS_6vectorI9ParameterNS_9allocatorIS2_EEE16__destroy_vectorEE10__completeB8ue170006Ev, symObjAddr: 0x11EBC, symBinAddr: 0x10001551C, symSize: 0x1C }
  - { offsetInCU: 0x4F368, offset: 0x4F368, size: 0x8, addend: 0x0, symName: __ZNSt3__128__exception_guard_exceptionsINS_6vectorI9ParameterNS_9allocatorIS2_EEE16__destroy_vectorEED1B8ue170006Ev, symObjAddr: 0x11ED8, symBinAddr: 0x100015538, symSize: 0x2C }
  - { offsetInCU: 0x4F392, offset: 0x4F392, size: 0x8, addend: 0x0, symName: __ZNSt3__128__exception_guard_exceptionsINS_6vectorI9ParameterNS_9allocatorIS2_EEE16__destroy_vectorEEC1B8ue170006ES6_, symObjAddr: 0x11F04, symBinAddr: 0x100015564, symSize: 0x34 }
  - { offsetInCU: 0x4F3CA, offset: 0x4F3CA, size: 0x8, addend: 0x0, symName: __ZNSt3__128__exception_guard_exceptionsINS_6vectorI9ParameterNS_9allocatorIS2_EEE16__destroy_vectorEEC2B8ue170006ES6_, symObjAddr: 0x11F38, symBinAddr: 0x100015598, symSize: 0x24 }
  - { offsetInCU: 0x4F402, offset: 0x4F402, size: 0x8, addend: 0x0, symName: __ZNSt3__16vectorI9ParameterNS_9allocatorIS1_EEE16__destroy_vectorC2B8ue170006ERS4_, symObjAddr: 0x11F5C, symBinAddr: 0x1000155BC, symSize: 0x20 }
  - { offsetInCU: 0x4F45E, offset: 0x4F45E, size: 0x8, addend: 0x0, symName: __ZNSt3__14pairIP9ParameterS2_EC1B8ue170006IS2_S2_LPv0EEEOT_OT0_, symObjAddr: 0x121E8, symBinAddr: 0x100015848, symSize: 0x3C }
  - { offsetInCU: 0x4F4BC, offset: 0x4F4BC, size: 0x8, addend: 0x0, symName: __ZNSt3__14pairIP9ParameterS2_EC2B8ue170006IS2_S2_LPv0EEEOT_OT0_, symObjAddr: 0x12224, symBinAddr: 0x100015884, symSize: 0x34 }
  - { offsetInCU: 0x4F51A, offset: 0x4F51A, size: 0x8, addend: 0x0, symName: __ZNSt3__129_AllocatorDestroyRangeReverseINS_9allocatorI9ParameterEEPS2_EC1B8ue170006ERS3_RS4_S7_, symObjAddr: 0x122A4, symBinAddr: 0x100015904, symSize: 0x44 }
  - { offsetInCU: 0x4F571, offset: 0x4F571, size: 0x8, addend: 0x0, symName: __ZNSt3__116allocator_traitsINS_9allocatorI9ParameterEEE9constructB8ue170006IS2_JRS2_EvEEvRS3_PT_DpOT0_, symObjAddr: 0x122E8, symBinAddr: 0x100015948, symSize: 0x34 }
  - { offsetInCU: 0x4F5C8, offset: 0x4F5C8, size: 0x8, addend: 0x0, symName: __ZNSt3__128__exception_guard_exceptionsINS_29_AllocatorDestroyRangeReverseINS_9allocatorI9ParameterEEPS3_EEE10__completeB8ue170006Ev, symObjAddr: 0x1231C, symBinAddr: 0x10001597C, symSize: 0x1C }
  - { offsetInCU: 0x4F5EE, offset: 0x4F5EE, size: 0x8, addend: 0x0, symName: __ZNSt3__128__exception_guard_exceptionsINS_29_AllocatorDestroyRangeReverseINS_9allocatorI9ParameterEEPS3_EEED1B8ue170006Ev, symObjAddr: 0x12338, symBinAddr: 0x100015998, symSize: 0x2C }
  - { offsetInCU: 0x4F618, offset: 0x4F618, size: 0x8, addend: 0x0, symName: __ZNSt3__128__exception_guard_exceptionsINS_29_AllocatorDestroyRangeReverseINS_9allocatorI9ParameterEEPS3_EEEC1B8ue170006ES6_, symObjAddr: 0x12364, symBinAddr: 0x1000159C4, symSize: 0x34 }
  - { offsetInCU: 0x4F651, offset: 0x4F651, size: 0x8, addend: 0x0, symName: __ZNSt3__128__exception_guard_exceptionsINS_29_AllocatorDestroyRangeReverseINS_9allocatorI9ParameterEEPS3_EEEC2B8ue170006ES6_, symObjAddr: 0x12398, symBinAddr: 0x1000159F8, symSize: 0x30 }
  - { offsetInCU: 0x4F68A, offset: 0x4F68A, size: 0x8, addend: 0x0, symName: __ZNSt3__129_AllocatorDestroyRangeReverseINS_9allocatorI9ParameterEEPS2_EC2B8ue170006ERS3_RS4_S7_, symObjAddr: 0x123C8, symBinAddr: 0x100015A28, symSize: 0x38 }
  - { offsetInCU: 0x4F6E1, offset: 0x4F6E1, size: 0x8, addend: 0x0, symName: __ZNSt3__19allocatorI9ParameterE9constructB8ue170006IS1_JRS1_EEEvPT_DpOT0_, symObjAddr: 0x12400, symBinAddr: 0x100015A60, symSize: 0x30 }
  - { offsetInCU: 0x4F737, offset: 0x4F737, size: 0x8, addend: 0x0, symName: __ZNSt3__128__exception_guard_exceptionsINS_29_AllocatorDestroyRangeReverseINS_9allocatorI9ParameterEEPS3_EEED2B8ue170006Ev, symObjAddr: 0x12430, symBinAddr: 0x100015A90, symSize: 0x50 }
  - { offsetInCU: 0x4F761, offset: 0x4F761, size: 0x8, addend: 0x0, symName: __ZNKSt3__129_AllocatorDestroyRangeReverseINS_9allocatorI9ParameterEEPS2_EclB8ue170006Ev, symObjAddr: 0x12480, symBinAddr: 0x100015AE0, symSize: 0x68 }
  - { offsetInCU: 0x4F787, offset: 0x4F787, size: 0x8, addend: 0x0, symName: __ZNSt3__118__unwrap_iter_implIP9ParameterLb1EE8__unwrapB8ue170006ES2_, symObjAddr: 0x12558, symBinAddr: 0x100015BB8, symSize: 0x24 }
  - { offsetInCU: 0x4F7AA, offset: 0x4F7AA, size: 0x8, addend: 0x0, symName: __ZNSt3__118__unwrap_iter_implIP9ParameterLb1EE8__rewrapB8ue170006ES2_S2_, symObjAddr: 0x1257C, symBinAddr: 0x100015BDC, symSize: 0x58 }
  - { offsetInCU: 0x4F7DB, offset: 0x4F7DB, size: 0x8, addend: 0x0, symName: __ZNSt3__128__exception_guard_exceptionsINS_6vectorI9ParameterNS_9allocatorIS2_EEE16__destroy_vectorEED2B8ue170006Ev, symObjAddr: 0x125D4, symBinAddr: 0x100015C34, symSize: 0x50 }
  - { offsetInCU: 0x4F805, offset: 0x4F805, size: 0x8, addend: 0x0, symName: __ZNSt3__16vectorI9ParameterNS_9allocatorIS1_EEE16__destroy_vectorclB8ue170006Ev, symObjAddr: 0x12624, symBinAddr: 0x100015C84, symSize: 0x90 }
  - { offsetInCU: 0x4F82B, offset: 0x4F82B, size: 0x8, addend: 0x0, symName: __ZNSt3__16vectorI9ParameterNS_9allocatorIS1_EEE7__clearB8ue170006Ev, symObjAddr: 0x126B4, symBinAddr: 0x100015D14, symSize: 0x28 }
  - { offsetInCU: 0x4F851, offset: 0x4F851, size: 0x8, addend: 0x0, symName: __ZNSt3__16vectorI9ParameterNS_9allocatorIS1_EEE22__base_destruct_at_endB8ue170006EPS1_, symObjAddr: 0x126DC, symBinAddr: 0x100015D3C, symSize: 0x8C }
  - { offsetInCU: 0x4F895, offset: 0x4F895, size: 0x8, addend: 0x0, symName: __ZNSt3__16vectorI9ParameterNS_9allocatorIS1_EEE11__make_iterB8ue170006EPS1_, symObjAddr: 0x12768, symBinAddr: 0x100015DC8, symSize: 0x30 }
  - { offsetInCU: 0x4F8CA, offset: 0x4F8CA, size: 0x8, addend: 0x0, symName: __ZNSt3__111__wrap_iterIP9ParameterEC1B8ue170006ES2_, symObjAddr: 0x12798, symBinAddr: 0x100015DF8, symSize: 0x34 }
  - { offsetInCU: 0x4F902, offset: 0x4F902, size: 0x8, addend: 0x0, symName: __ZNSt3__111__wrap_iterIP9ParameterEC2B8ue170006ES2_, symObjAddr: 0x127CC, symBinAddr: 0x100015E2C, symSize: 0x20 }
  - { offsetInCU: 0x4F93A, offset: 0x4F93A, size: 0x8, addend: 0x0, symName: __ZNKSt3__111__wrap_iterIP9ParameterE4baseB8ue170006Ev, symObjAddr: 0x12834, symBinAddr: 0x100015E94, symSize: 0x18 }
  - { offsetInCU: 0x4F960, offset: 0x4F960, size: 0x8, addend: 0x0, symName: __ZNSt3__13setINS_12basic_stringIcNS_11char_traitsIcEENS_9allocatorIcEEEENS_4lessIS6_EENS4_IS6_EEE6insertB8ue170006ERKS6_, symObjAddr: 0x1284C, symBinAddr: 0x100015EAC, symSize: 0x4C }
  - { offsetInCU: 0x4F995, offset: 0x4F995, size: 0x8, addend: 0x0, symName: __ZNSt3__16__treeINS_12basic_stringIcNS_11char_traitsIcEENS_9allocatorIcEEEENS_4lessIS6_EENS4_IS6_EEE15__insert_uniqueB8ue170006ERKS6_, symObjAddr: 0x12898, symBinAddr: 0x100015EF8, symSize: 0x50 }
  - { offsetInCU: 0x4F9CA, offset: 0x4F9CA, size: 0x8, addend: 0x0, symName: __ZNSt3__14pairINS_21__tree_const_iteratorINS_12basic_stringIcNS_11char_traitsIcEENS_9allocatorIcEEEEPNS_11__tree_nodeIS7_PvEElEEbEC1B8ue170006INS_15__tree_iteratorIS7_SB_lEEbLS9_0EEEONS0_IT_T0_EE, symObjAddr: 0x128E8, symBinAddr: 0x100015F48, symSize: 0x34 }
  - { offsetInCU: 0x4FA1B, offset: 0x4FA1B, size: 0x8, addend: 0x0, symName: __ZNSt3__16__treeINS_12basic_stringIcNS_11char_traitsIcEENS_9allocatorIcEEEENS_4lessIS6_EENS4_IS6_EEE25__emplace_unique_key_argsIS6_JRKS6_EEENS_4pairINS_15__tree_iteratorIS6_PNS_11__tree_nodeIS6_PvEElEEbEERKT_DpOT0_, symObjAddr: 0x1291C, symBinAddr: 0x100015F7C, symSize: 0xF0 }
  - { offsetInCU: 0x4FAC7, offset: 0x4FAC7, size: 0x8, addend: 0x0, symName: __ZNSt3__122__tree_key_value_typesINS_12basic_stringIcNS_11char_traitsIcEENS_9allocatorIcEEEEE9__get_keyB8ue170006ERKS6_, symObjAddr: 0x12A0C, symBinAddr: 0x10001606C, symSize: 0x14 }
  - { offsetInCU: 0x4FAEB, offset: 0x4FAEB, size: 0x8, addend: 0x0, symName: __ZNSt3__16__treeINS_12basic_stringIcNS_11char_traitsIcEENS_9allocatorIcEEEENS_4lessIS6_EENS4_IS6_EEE12__find_equalIS6_EERPNS_16__tree_node_baseIPvEERPNS_15__tree_end_nodeISF_EERKT_, symObjAddr: 0x12A20, symBinAddr: 0x100016080, symSize: 0x184 }
  - { offsetInCU: 0x4FB58, offset: 0x4FB58, size: 0x8, addend: 0x0, symName: __ZNSt3__16__treeINS_12basic_stringIcNS_11char_traitsIcEENS_9allocatorIcEEEENS_4lessIS6_EENS4_IS6_EEE16__construct_nodeIJRKS6_EEENS_10unique_ptrINS_11__tree_nodeIS6_PvEENS_22__tree_node_destructorINS4_ISH_EEEEEEDpOT_, symObjAddr: 0x12BA4, symBinAddr: 0x100016204, symSize: 0x110 }
  - { offsetInCU: 0x4FBB9, offset: 0x4FBB9, size: 0x8, addend: 0x0, symName: __ZNSt3__16__treeINS_12basic_stringIcNS_11char_traitsIcEENS_9allocatorIcEEEENS_4lessIS6_EENS4_IS6_EEE16__insert_node_atEPNS_15__tree_end_nodeIPNS_16__tree_node_baseIPvEEEERSF_SF_, symObjAddr: 0x12CB4, symBinAddr: 0x100016314, symSize: 0xCC }
  - { offsetInCU: 0x4FC0E, offset: 0x4FC0E, size: 0x8, addend: 0x0, symName: __ZNKSt3__110unique_ptrINS_11__tree_nodeINS_12basic_stringIcNS_11char_traitsIcEENS_9allocatorIcEEEEPvEENS_22__tree_node_destructorINS5_IS9_EEEEE3getB8ue170006Ev, symObjAddr: 0x12D80, symBinAddr: 0x1000163E0, symSize: 0x28 }
  - { offsetInCU: 0x4FC34, offset: 0x4FC34, size: 0x8, addend: 0x0, symName: __ZNSt3__110unique_ptrINS_11__tree_nodeINS_12basic_stringIcNS_11char_traitsIcEENS_9allocatorIcEEEEPvEENS_22__tree_node_destructorINS5_IS9_EEEEE7releaseB8ue170006Ev, symObjAddr: 0x12DA8, symBinAddr: 0x100016408, symSize: 0x44 }
  - { offsetInCU: 0x4FC69, offset: 0x4FC69, size: 0x8, addend: 0x0, symName: __ZNSt3__110unique_ptrINS_11__tree_nodeINS_12basic_stringIcNS_11char_traitsIcEENS_9allocatorIcEEEEPvEENS_22__tree_node_destructorINS5_IS9_EEEEED1B8ue170006Ev, symObjAddr: 0x12DEC, symBinAddr: 0x10001644C, symSize: 0x2C }
  - { offsetInCU: 0x4FC93, offset: 0x4FC93, size: 0x8, addend: 0x0, symName: __ZNSt3__115__tree_iteratorINS_12basic_stringIcNS_11char_traitsIcEENS_9allocatorIcEEEEPNS_11__tree_nodeIS6_PvEElEC1B8ue170006ESA_, symObjAddr: 0x12E18, symBinAddr: 0x100016478, symSize: 0x34 }
  - { offsetInCU: 0x4FCD2, offset: 0x4FCD2, size: 0x8, addend: 0x0, symName: __ZNSt3__14pairINS_15__tree_iteratorINS_12basic_stringIcNS_11char_traitsIcEENS_9allocatorIcEEEEPNS_11__tree_nodeIS7_PvEElEEbEC1B8ue170006ISC_RbLS9_0EEEOT_OT0_, symObjAddr: 0x12E4C, symBinAddr: 0x1000164AC, symSize: 0x3C }
  - { offsetInCU: 0x4FD30, offset: 0x4FD30, size: 0x8, addend: 0x0, symName: __ZNKSt3__16__treeINS_12basic_stringIcNS_11char_traitsIcEENS_9allocatorIcEEEENS_4lessIS6_EENS4_IS6_EEE6__rootB8ue170006Ev, symObjAddr: 0x12E88, symBinAddr: 0x1000164E8, symSize: 0x28 }
  - { offsetInCU: 0x4FD56, offset: 0x4FD56, size: 0x8, addend: 0x0, symName: __ZNKSt3__16__treeINS_12basic_stringIcNS_11char_traitsIcEENS_9allocatorIcEEEENS_4lessIS6_EENS4_IS6_EEE10__root_ptrB8ue170006Ev, symObjAddr: 0x12EB0, symBinAddr: 0x100016510, symSize: 0x24 }
  - { offsetInCU: 0x4FD7C, offset: 0x4FD7C, size: 0x8, addend: 0x0, symName: __ZNSt3__16__treeINS_12basic_stringIcNS_11char_traitsIcEENS_9allocatorIcEEEENS_4lessIS6_EENS4_IS6_EEE10value_compB8ue170006Ev, symObjAddr: 0x12ED4, symBinAddr: 0x100016534, symSize: 0x28 }
  - { offsetInCU: 0x4FDA2, offset: 0x4FDA2, size: 0x8, addend: 0x0, symName: __ZNKSt3__14lessINS_12basic_stringIcNS_11char_traitsIcEENS_9allocatorIcEEEEEclB8ue170006ERKS6_S9_, symObjAddr: 0x12EFC, symBinAddr: 0x10001655C, symSize: 0x34 }
  - { offsetInCU: 0x4FDE6, offset: 0x4FDE6, size: 0x8, addend: 0x0, symName: __ZNKSt3__16__treeINS_12basic_stringIcNS_11char_traitsIcEENS_9allocatorIcEEEENS_4lessIS6_EENS4_IS6_EEE10__end_nodeB8ue170006Ev, symObjAddr: 0x12F30, symBinAddr: 0x100016590, symSize: 0x2C }
  - { offsetInCU: 0x4FE0C, offset: 0x4FE0C, size: 0x8, addend: 0x0, symName: __ZNKSt3__117__compressed_pairINS_15__tree_end_nodeIPNS_16__tree_node_baseIPvEEEENS_9allocatorINS_11__tree_nodeINS_12basic_stringIcNS_11char_traitsIcEENS7_IcEEEES3_EEEEE5firstB8ue170006Ev, symObjAddr: 0x12F5C, symBinAddr: 0x1000165BC, symSize: 0x24 }
  - { offsetInCU: 0x4FE32, offset: 0x4FE32, size: 0x8, addend: 0x0, symName: __ZNKSt3__122__compressed_pair_elemINS_15__tree_end_nodeIPNS_16__tree_node_baseIPvEEEELi0ELb0EE5__getB8ue170006Ev, symObjAddr: 0x12F80, symBinAddr: 0x1000165E0, symSize: 0x14 }
  - { offsetInCU: 0x4FE58, offset: 0x4FE58, size: 0x8, addend: 0x0, symName: __ZNSt3__117__compressed_pairImNS_4lessINS_12basic_stringIcNS_11char_traitsIcEENS_9allocatorIcEEEEEEE6secondB8ue170006Ev, symObjAddr: 0x12F94, symBinAddr: 0x1000165F4, symSize: 0x24 }
  - { offsetInCU: 0x4FE7E, offset: 0x4FE7E, size: 0x8, addend: 0x0, symName: __ZNSt3__122__compressed_pair_elemINS_4lessINS_12basic_stringIcNS_11char_traitsIcEENS_9allocatorIcEEEEEELi1ELb1EE5__getB8ue170006Ev, symObjAddr: 0x12FB8, symBinAddr: 0x100016618, symSize: 0x14 }
  - { offsetInCU: 0x4FEA4, offset: 0x4FEA4, size: 0x8, addend: 0x0, symName: __ZNKSt3__112basic_stringIcNS_11char_traitsIcEENS_9allocatorIcEEE7compareB8ue170006ERKS5_, symObjAddr: 0x13004, symBinAddr: 0x100016664, symSize: 0x4C }
  - { offsetInCU: 0x4FEDB, offset: 0x4FEDB, size: 0x8, addend: 0x0, symName: __ZNKSt3__112basic_stringIcNS_11char_traitsIcEENS_9allocatorIcEEE7compareINS_17basic_string_viewIcS2_EELi0EEEiRKT_, symObjAddr: 0x13050, symBinAddr: 0x1000166B0, symSize: 0x12C }
  - { offsetInCU: 0x4FF5E, offset: 0x4FF5E, size: 0x8, addend: 0x0, symName: __ZNKSt3__112basic_stringIcNS_11char_traitsIcEENS_9allocatorIcEEEcvNS_17basic_string_viewIcS2_EEB8ue170006Ev, symObjAddr: 0x1317C, symBinAddr: 0x1000167DC, symSize: 0x50 }
  - { offsetInCU: 0x4FF84, offset: 0x4FF84, size: 0x8, addend: 0x0, symName: __ZNKSt3__117basic_string_viewIcNS_11char_traitsIcEEE4sizeB8ue170006Ev, symObjAddr: 0x131CC, symBinAddr: 0x10001682C, symSize: 0x18 }
  - { offsetInCU: 0x4FFAA, offset: 0x4FFAA, size: 0x8, addend: 0x0, symName: __ZNSt3__111char_traitsIcE7compareB8ue170006EPKcS3_m, symObjAddr: 0x131E4, symBinAddr: 0x100016844, symSize: 0x34 }
  - { offsetInCU: 0x4FFE9, offset: 0x4FFE9, size: 0x8, addend: 0x0, symName: __ZNKSt3__112basic_stringIcNS_11char_traitsIcEENS_9allocatorIcEEE4dataB8ue170006Ev, symObjAddr: 0x13218, symBinAddr: 0x100016878, symSize: 0x28 }
  - { offsetInCU: 0x5000F, offset: 0x5000F, size: 0x8, addend: 0x0, symName: __ZNKSt3__117basic_string_viewIcNS_11char_traitsIcEEE4dataB8ue170006Ev, symObjAddr: 0x13240, symBinAddr: 0x1000168A0, symSize: 0x18 }
  - { offsetInCU: 0x50035, offset: 0x50035, size: 0x8, addend: 0x0, symName: __ZNKSt3__112basic_stringIcNS_11char_traitsIcEENS_9allocatorIcEEE13__get_pointerB8ue170006Ev, symObjAddr: 0x1326C, symBinAddr: 0x1000168CC, symSize: 0x54 }
  - { offsetInCU: 0x5005B, offset: 0x5005B, size: 0x8, addend: 0x0, symName: __ZNKSt3__112basic_stringIcNS_11char_traitsIcEENS_9allocatorIcEEE18__get_long_pointerB8ue170006Ev, symObjAddr: 0x132C0, symBinAddr: 0x100016920, symSize: 0x28 }
  - { offsetInCU: 0x50081, offset: 0x50081, size: 0x8, addend: 0x0, symName: __ZNKSt3__112basic_stringIcNS_11char_traitsIcEENS_9allocatorIcEEE19__get_short_pointerB8ue170006Ev, symObjAddr: 0x132E8, symBinAddr: 0x100016948, symSize: 0x28 }
  - { offsetInCU: 0x500A7, offset: 0x500A7, size: 0x8, addend: 0x0, symName: __ZNSt3__114pointer_traitsIPKcE10pointer_toB8ue170006ERS1_, symObjAddr: 0x13310, symBinAddr: 0x100016970, symSize: 0x14 }
  - { offsetInCU: 0x500CA, offset: 0x500CA, size: 0x8, addend: 0x0, symName: __ZNSt3__117basic_string_viewIcNS_11char_traitsIcEEEC1B8ue170006EPKcm, symObjAddr: 0x13324, symBinAddr: 0x100016984, symSize: 0x3C }
  - { offsetInCU: 0x50112, offset: 0x50112, size: 0x8, addend: 0x0, symName: __ZNSt3__117basic_string_viewIcNS_11char_traitsIcEEEC2B8ue170006EPKcm, symObjAddr: 0x13360, symBinAddr: 0x1000169C0, symSize: 0x2C }
  - { offsetInCU: 0x5015A, offset: 0x5015A, size: 0x8, addend: 0x0, symName: __ZNSt3__16__treeINS_12basic_stringIcNS_11char_traitsIcEENS_9allocatorIcEEEENS_4lessIS6_EENS4_IS6_EEE12__node_allocB8ue170006Ev, symObjAddr: 0x1338C, symBinAddr: 0x1000169EC, symSize: 0x28 }
  - { offsetInCU: 0x50180, offset: 0x50180, size: 0x8, addend: 0x0, symName: __ZNSt3__116allocator_traitsINS_9allocatorINS_11__tree_nodeINS_12basic_stringIcNS_11char_traitsIcEENS1_IcEEEEPvEEEEE8allocateB8ue170006ERSA_m, symObjAddr: 0x133B4, symBinAddr: 0x100016A14, symSize: 0x2C }
  - { offsetInCU: 0x501B3, offset: 0x501B3, size: 0x8, addend: 0x0, symName: __ZNSt3__122__tree_node_destructorINS_9allocatorINS_11__tree_nodeINS_12basic_stringIcNS_11char_traitsIcEENS1_IcEEEEPvEEEEEC1B8ue170006ERSA_b, symObjAddr: 0x133E0, symBinAddr: 0x100016A40, symSize: 0x48 }
  - { offsetInCU: 0x50201, offset: 0x50201, size: 0x8, addend: 0x0, symName: __ZNSt3__110unique_ptrINS_11__tree_nodeINS_12basic_stringIcNS_11char_traitsIcEENS_9allocatorIcEEEEPvEENS_22__tree_node_destructorINS5_IS9_EEEEEC1B8ue170006ILb1EvEEPS9_NS_16__dependent_typeINS_27__unique_ptr_deleter_sfinaeISC_EEXT_EE20__good_rval_ref_typeE, symObjAddr: 0x13428, symBinAddr: 0x100016A88, symSize: 0x3C }
  - { offsetInCU: 0x50252, offset: 0x50252, size: 0x8, addend: 0x0, symName: __ZNSt3__116allocator_traitsINS_9allocatorINS_11__tree_nodeINS_12basic_stringIcNS_11char_traitsIcEENS1_IcEEEEPvEEEEE9constructB8ue170006IS7_JRKS7_EvEEvRSA_PT_DpOT0_, symObjAddr: 0x13464, symBinAddr: 0x100016AC4, symSize: 0x34 }
  - { offsetInCU: 0x502A9, offset: 0x502A9, size: 0x8, addend: 0x0, symName: __ZNSt3__122__tree_key_value_typesINS_12basic_stringIcNS_11char_traitsIcEENS_9allocatorIcEEEEE9__get_ptrB8ue170006ERS6_, symObjAddr: 0x13498, symBinAddr: 0x100016AF8, symSize: 0x14 }
  - { offsetInCU: 0x502CD, offset: 0x502CD, size: 0x8, addend: 0x0, symName: __ZNKSt3__110unique_ptrINS_11__tree_nodeINS_12basic_stringIcNS_11char_traitsIcEENS_9allocatorIcEEEEPvEENS_22__tree_node_destructorINS5_IS9_EEEEEptB8ue170006Ev, symObjAddr: 0x134AC, symBinAddr: 0x100016B0C, symSize: 0x28 }
  - { offsetInCU: 0x502F3, offset: 0x502F3, size: 0x8, addend: 0x0, symName: __ZNSt3__110unique_ptrINS_11__tree_nodeINS_12basic_stringIcNS_11char_traitsIcEENS_9allocatorIcEEEEPvEENS_22__tree_node_destructorINS5_IS9_EEEEE11get_deleterB8ue170006Ev, symObjAddr: 0x134D4, symBinAddr: 0x100016B34, symSize: 0x24 }
  - { offsetInCU: 0x50319, offset: 0x50319, size: 0x8, addend: 0x0, symName: __ZNSt3__117__compressed_pairINS_15__tree_end_nodeIPNS_16__tree_node_baseIPvEEEENS_9allocatorINS_11__tree_nodeINS_12basic_stringIcNS_11char_traitsIcEENS7_IcEEEES3_EEEEE6secondB8ue170006Ev, symObjAddr: 0x134F8, symBinAddr: 0x100016B58, symSize: 0x24 }
  - { offsetInCU: 0x5033F, offset: 0x5033F, size: 0x8, addend: 0x0, symName: __ZNSt3__122__compressed_pair_elemINS_9allocatorINS_11__tree_nodeINS_12basic_stringIcNS_11char_traitsIcEENS1_IcEEEEPvEEEELi1ELb1EE5__getB8ue170006Ev, symObjAddr: 0x1351C, symBinAddr: 0x100016B7C, symSize: 0x14 }
  - { offsetInCU: 0x50365, offset: 0x50365, size: 0x8, addend: 0x0, symName: __ZNSt3__19allocatorINS_11__tree_nodeINS_12basic_stringIcNS_11char_traitsIcEENS0_IcEEEEPvEEE8allocateB8ue170006Em, symObjAddr: 0x13530, symBinAddr: 0x100016B90, symSize: 0x5C }
  - { offsetInCU: 0x503A4, offset: 0x503A4, size: 0x8, addend: 0x0, symName: __ZNSt3__116allocator_traitsINS_9allocatorINS_11__tree_nodeINS_12basic_stringIcNS_11char_traitsIcEENS1_IcEEEEPvEEEEE8max_sizeB8ue170006ISA_vEEmRKSA_, symObjAddr: 0x1358C, symBinAddr: 0x100016BEC, symSize: 0x24 }
  - { offsetInCU: 0x503D2, offset: 0x503D2, size: 0x8, addend: 0x0, symName: __ZNKSt3__19allocatorINS_11__tree_nodeINS_12basic_stringIcNS_11char_traitsIcEENS0_IcEEEEPvEEE8max_sizeB8ue170006Ev, symObjAddr: 0x135B0, symBinAddr: 0x100016C10, symSize: 0x20 }
  - { offsetInCU: 0x503F8, offset: 0x503F8, size: 0x8, addend: 0x0, symName: __ZNSt3__122__tree_node_destructorINS_9allocatorINS_11__tree_nodeINS_12basic_stringIcNS_11char_traitsIcEENS1_IcEEEEPvEEEEEC2B8ue170006ERSA_b, symObjAddr: 0x135D0, symBinAddr: 0x100016C30, symSize: 0x38 }
  - { offsetInCU: 0x50440, offset: 0x50440, size: 0x8, addend: 0x0, symName: __ZNSt3__110unique_ptrINS_11__tree_nodeINS_12basic_stringIcNS_11char_traitsIcEENS_9allocatorIcEEEEPvEENS_22__tree_node_destructorINS5_IS9_EEEEEC2B8ue170006ILb1EvEEPS9_NS_16__dependent_typeINS_27__unique_ptr_deleter_sfinaeISC_EEXT_EE20__good_rval_ref_typeE, symObjAddr: 0x13608, symBinAddr: 0x100016C68, symSize: 0x48 }
  - { offsetInCU: 0x50491, offset: 0x50491, size: 0x8, addend: 0x0, symName: __ZNSt3__117__compressed_pairIPNS_11__tree_nodeINS_12basic_stringIcNS_11char_traitsIcEENS_9allocatorIcEEEEPvEENS_22__tree_node_destructorINS5_IS9_EEEEEC1B8ue170006IRSA_SD_EEOT_OT0_, symObjAddr: 0x13650, symBinAddr: 0x100016CB0, symSize: 0x3C }
  - { offsetInCU: 0x504E9, offset: 0x504E9, size: 0x8, addend: 0x0, symName: __ZNSt3__117__compressed_pairIPNS_11__tree_nodeINS_12basic_stringIcNS_11char_traitsIcEENS_9allocatorIcEEEEPvEENS_22__tree_node_destructorINS5_IS9_EEEEEC2B8ue170006IRSA_SD_EEOT_OT0_, symObjAddr: 0x1368C, symBinAddr: 0x100016CEC, symSize: 0x48 }
  - { offsetInCU: 0x50541, offset: 0x50541, size: 0x8, addend: 0x0, symName: __ZNSt3__122__compressed_pair_elemIPNS_11__tree_nodeINS_12basic_stringIcNS_11char_traitsIcEENS_9allocatorIcEEEEPvEELi0ELb0EEC2B8ue170006IRSA_vEEOT_, symObjAddr: 0x136D4, symBinAddr: 0x100016D34, symSize: 0x24 }
  - { offsetInCU: 0x50583, offset: 0x50583, size: 0x8, addend: 0x0, symName: __ZNSt3__122__compressed_pair_elemINS_22__tree_node_destructorINS_9allocatorINS_11__tree_nodeINS_12basic_stringIcNS_11char_traitsIcEENS2_IcEEEEPvEEEEEELi1ELb0EEC2B8ue170006ISC_vEEOT_, symObjAddr: 0x136F8, symBinAddr: 0x100016D58, symSize: 0x24 }
  - { offsetInCU: 0x505C5, offset: 0x505C5, size: 0x8, addend: 0x0, symName: __ZNSt3__19allocatorINS_11__tree_nodeINS_12basic_stringIcNS_11char_traitsIcEENS0_IcEEEEPvEEE9constructB8ue170006IS6_JRKS6_EEEvPT_DpOT0_, symObjAddr: 0x1371C, symBinAddr: 0x100016D7C, symSize: 0x30 }
  - { offsetInCU: 0x5061B, offset: 0x5061B, size: 0x8, addend: 0x0, symName: __ZNKSt3__117__compressed_pairIPNS_11__tree_nodeINS_12basic_stringIcNS_11char_traitsIcEENS_9allocatorIcEEEEPvEENS_22__tree_node_destructorINS5_IS9_EEEEE5firstB8ue170006Ev, symObjAddr: 0x1374C, symBinAddr: 0x100016DAC, symSize: 0x24 }
  - { offsetInCU: 0x50641, offset: 0x50641, size: 0x8, addend: 0x0, symName: __ZNKSt3__122__compressed_pair_elemIPNS_11__tree_nodeINS_12basic_stringIcNS_11char_traitsIcEENS_9allocatorIcEEEEPvEELi0ELb0EE5__getB8ue170006Ev, symObjAddr: 0x13770, symBinAddr: 0x100016DD0, symSize: 0x14 }
  - { offsetInCU: 0x50667, offset: 0x50667, size: 0x8, addend: 0x0, symName: __ZNSt3__117__compressed_pairIPNS_11__tree_nodeINS_12basic_stringIcNS_11char_traitsIcEENS_9allocatorIcEEEEPvEENS_22__tree_node_destructorINS5_IS9_EEEEE6secondB8ue170006Ev, symObjAddr: 0x13784, symBinAddr: 0x100016DE4, symSize: 0x28 }
  - { offsetInCU: 0x5068D, offset: 0x5068D, size: 0x8, addend: 0x0, symName: __ZNSt3__122__compressed_pair_elemINS_22__tree_node_destructorINS_9allocatorINS_11__tree_nodeINS_12basic_stringIcNS_11char_traitsIcEENS2_IcEEEEPvEEEEEELi1ELb0EE5__getB8ue170006Ev, symObjAddr: 0x137AC, symBinAddr: 0x100016E0C, symSize: 0x14 }
  - { offsetInCU: 0x506B3, offset: 0x506B3, size: 0x8, addend: 0x0, symName: __ZNSt3__16__treeINS_12basic_stringIcNS_11char_traitsIcEENS_9allocatorIcEEEENS_4lessIS6_EENS4_IS6_EEE4sizeB8ue170006Ev, symObjAddr: 0x13AEC, symBinAddr: 0x10001714C, symSize: 0x28 }
  - { offsetInCU: 0x506D9, offset: 0x506D9, size: 0x8, addend: 0x0, symName: __ZNKSt3__116__tree_node_baseIPvE15__parent_unsafeB8ue170006Ev, symObjAddr: 0x13B14, symBinAddr: 0x100017174, symSize: 0x18 }
  - { offsetInCU: 0x506FF, offset: 0x506FF, size: 0x8, addend: 0x0, symName: __ZNSt3__116__tree_node_baseIPvE12__set_parentB8ue170006EPS2_, symObjAddr: 0x13CFC, symBinAddr: 0x10001735C, symSize: 0x20 }
  - { offsetInCU: 0x50734, offset: 0x50734, size: 0x8, addend: 0x0, symName: __ZNSt3__117__compressed_pairImNS_4lessINS_12basic_stringIcNS_11char_traitsIcEENS_9allocatorIcEEEEEEE5firstB8ue170006Ev, symObjAddr: 0x13D1C, symBinAddr: 0x10001737C, symSize: 0x24 }
  - { offsetInCU: 0x5075A, offset: 0x5075A, size: 0x8, addend: 0x0, symName: __ZNSt3__117__compressed_pairIPNS_11__tree_nodeINS_12basic_stringIcNS_11char_traitsIcEENS_9allocatorIcEEEEPvEENS_22__tree_node_destructorINS5_IS9_EEEEE5firstB8ue170006Ev, symObjAddr: 0x13D40, symBinAddr: 0x1000173A0, symSize: 0x24 }
  - { offsetInCU: 0x50780, offset: 0x50780, size: 0x8, addend: 0x0, symName: __ZNSt3__122__compressed_pair_elemIPNS_11__tree_nodeINS_12basic_stringIcNS_11char_traitsIcEENS_9allocatorIcEEEEPvEELi0ELb0EE5__getB8ue170006Ev, symObjAddr: 0x13D64, symBinAddr: 0x1000173C4, symSize: 0x14 }
  - { offsetInCU: 0x507A6, offset: 0x507A6, size: 0x8, addend: 0x0, symName: __ZNSt3__110unique_ptrINS_11__tree_nodeINS_12basic_stringIcNS_11char_traitsIcEENS_9allocatorIcEEEEPvEENS_22__tree_node_destructorINS5_IS9_EEEEED2B8ue170006Ev, symObjAddr: 0x13D78, symBinAddr: 0x1000173D8, symSize: 0x30 }
  - { offsetInCU: 0x507D0, offset: 0x507D0, size: 0x8, addend: 0x0, symName: __ZNSt3__110unique_ptrINS_11__tree_nodeINS_12basic_stringIcNS_11char_traitsIcEENS_9allocatorIcEEEEPvEENS_22__tree_node_destructorINS5_IS9_EEEEE5resetB8ue170006EPS9_, symObjAddr: 0x13DA8, symBinAddr: 0x100017408, symSize: 0x78 }
  - { offsetInCU: 0x50814, offset: 0x50814, size: 0x8, addend: 0x0, symName: __ZNSt3__122__tree_node_destructorINS_9allocatorINS_11__tree_nodeINS_12basic_stringIcNS_11char_traitsIcEENS1_IcEEEEPvEEEEEclB8ue170006EPS9_, symObjAddr: 0x13E20, symBinAddr: 0x100017480, symSize: 0x90 }
  - { offsetInCU: 0x50849, offset: 0x50849, size: 0x8, addend: 0x0, symName: __ZNSt3__116allocator_traitsINS_9allocatorINS_11__tree_nodeINS_12basic_stringIcNS_11char_traitsIcEENS1_IcEEEEPvEEEEE7destroyB8ue170006IS7_vvEEvRSA_PT_, symObjAddr: 0x13EB0, symBinAddr: 0x100017510, symSize: 0x28 }
  - { offsetInCU: 0x50884, offset: 0x50884, size: 0x8, addend: 0x0, symName: __ZNSt3__116allocator_traitsINS_9allocatorINS_11__tree_nodeINS_12basic_stringIcNS_11char_traitsIcEENS1_IcEEEEPvEEEEE10deallocateB8ue170006ERSA_PS9_m, symObjAddr: 0x13ED8, symBinAddr: 0x100017538, symSize: 0x34 }
  - { offsetInCU: 0x508C6, offset: 0x508C6, size: 0x8, addend: 0x0, symName: __ZNSt3__19allocatorINS_11__tree_nodeINS_12basic_stringIcNS_11char_traitsIcEENS0_IcEEEEPvEEE10deallocateB8ue170006EPS8_m, symObjAddr: 0x13F0C, symBinAddr: 0x10001756C, symSize: 0x44 }
  - { offsetInCU: 0x50908, offset: 0x50908, size: 0x8, addend: 0x0, symName: __ZNSt3__115__tree_iteratorINS_12basic_stringIcNS_11char_traitsIcEENS_9allocatorIcEEEEPNS_11__tree_nodeIS6_PvEElEC2B8ue170006ESA_, symObjAddr: 0x13F50, symBinAddr: 0x1000175B0, symSize: 0x20 }
  - { offsetInCU: 0x50941, offset: 0x50941, size: 0x8, addend: 0x0, symName: __ZNSt3__14pairINS_15__tree_iteratorINS_12basic_stringIcNS_11char_traitsIcEENS_9allocatorIcEEEEPNS_11__tree_nodeIS7_PvEElEEbEC2B8ue170006ISC_RbLS9_0EEEOT_OT0_, symObjAddr: 0x13F70, symBinAddr: 0x1000175D0, symSize: 0x38 }
  - { offsetInCU: 0x5099F, offset: 0x5099F, size: 0x8, addend: 0x0, symName: __ZNSt3__14pairINS_21__tree_const_iteratorINS_12basic_stringIcNS_11char_traitsIcEENS_9allocatorIcEEEEPNS_11__tree_nodeIS7_PvEElEEbEC2B8ue170006INS_15__tree_iteratorIS7_SB_lEEbLS9_0EEEONS0_IT_T0_EE, symObjAddr: 0x13FA8, symBinAddr: 0x100017608, symSize: 0x50 }
  - { offsetInCU: 0x509F0, offset: 0x509F0, size: 0x8, addend: 0x0, symName: __ZNSt3__121__tree_const_iteratorINS_12basic_stringIcNS_11char_traitsIcEENS_9allocatorIcEEEEPNS_11__tree_nodeIS6_PvEElEC1B8ue170006ENS_15__tree_iteratorIS6_SA_lEE, symObjAddr: 0x13FF8, symBinAddr: 0x100017658, symSize: 0x34 }
  - { offsetInCU: 0x50A29, offset: 0x50A29, size: 0x8, addend: 0x0, symName: __ZNSt3__121__tree_const_iteratorINS_12basic_stringIcNS_11char_traitsIcEENS_9allocatorIcEEEEPNS_11__tree_nodeIS6_PvEElEC2B8ue170006ENS_15__tree_iteratorIS6_SA_lEE, symObjAddr: 0x1402C, symBinAddr: 0x10001768C, symSize: 0x20 }
  - { offsetInCU: 0x50A62, offset: 0x50A62, size: 0x8, addend: 0x0, symName: __ZNSt3__16vectorI9ParameterNS_9allocatorIS1_EEED2B8ue170006Ev, symObjAddr: 0x1404C, symBinAddr: 0x1000176AC, symSize: 0x40 }
  - { offsetInCU: 0x50A8C, offset: 0x50A8C, size: 0x8, addend: 0x0, symName: __ZNK5Token8typeNameENS_9TokenTypeE, symObjAddr: 0x1408C, symBinAddr: 0x1000176EC, symSize: 0xA4 }
  - { offsetInCU: 0x50ACE, offset: 0x50ACE, size: 0x8, addend: 0x0, symName: __ZNKSt3__113unordered_mapIN5Token9TokenTypeENS_12basic_stringIcNS_11char_traitsIcEENS_9allocatorIcEEEENS_4hashIS2_EENS_8equal_toIS2_EENS6_INS_4pairIKS2_S8_EEEEE4findB8ue170006ERSE_, symObjAddr: 0x14130, symBinAddr: 0x100017790, symSize: 0x40 }
  - { offsetInCU: 0x50B03, offset: 0x50B03, size: 0x8, addend: 0x0, symName: __ZNKSt3__125__hash_map_const_iteratorINS_21__hash_const_iteratorIPNS_11__hash_nodeINS_17__hash_value_typeIN5Token9TokenTypeENS_12basic_stringIcNS_11char_traitsIcEENS_9allocatorIcEEEEEEPvEEEEEptB8ue170006Ev, symObjAddr: 0x14170, symBinAddr: 0x1000177D0, symSize: 0x2C }
  - { offsetInCU: 0x50B29, offset: 0x50B29, size: 0x8, addend: 0x0, symName: __ZNKSt3__112__hash_tableINS_17__hash_value_typeIN5Token9TokenTypeENS_12basic_stringIcNS_11char_traitsIcEENS_9allocatorIcEEEEEENS_22__unordered_map_hasherIS3_SA_NS_4hashIS3_EENS_8equal_toIS3_EELb1EEENS_21__unordered_map_equalIS3_SA_SF_SD_Lb1EEENS7_ISA_EEE4findIS3_EENS_21__hash_const_iteratorIPNS_11__hash_nodeISA_PvEEEERKT_, symObjAddr: 0x1419C, symBinAddr: 0x1000177FC, symSize: 0x1B8 }
  - { offsetInCU: 0x50BB3, offset: 0x50BB3, size: 0x8, addend: 0x0, symName: __ZNKSt3__112__hash_tableINS_17__hash_value_typeIN5Token9TokenTypeENS_12basic_stringIcNS_11char_traitsIcEENS_9allocatorIcEEEEEENS_22__unordered_map_hasherIS3_SA_NS_4hashIS3_EENS_8equal_toIS3_EELb1EEENS_21__unordered_map_equalIS3_SA_SF_SD_Lb1EEENS7_ISA_EEE6key_eqB8ue170006Ev, symObjAddr: 0x14354, symBinAddr: 0x1000179B4, symSize: 0x28 }
  - { offsetInCU: 0x50BD9, offset: 0x50BD9, size: 0x8, addend: 0x0, symName: __ZNKSt3__117__compressed_pairIfNS_21__unordered_map_equalIN5Token9TokenTypeENS_17__hash_value_typeIS3_NS_12basic_stringIcNS_11char_traitsIcEENS_9allocatorIcEEEEEENS_8equal_toIS3_EENS_4hashIS3_EELb1EEEE6secondB8ue170006Ev, symObjAddr: 0x1437C, symBinAddr: 0x1000179DC, symSize: 0x24 }
  - { offsetInCU: 0x50BFF, offset: 0x50BFF, size: 0x8, addend: 0x0, symName: __ZNKSt3__122__compressed_pair_elemINS_21__unordered_map_equalIN5Token9TokenTypeENS_17__hash_value_typeIS3_NS_12basic_stringIcNS_11char_traitsIcEENS_9allocatorIcEEEEEENS_8equal_toIS3_EENS_4hashIS3_EELb1EEELi1ELb1EE5__getB8ue170006Ev, symObjAddr: 0x143A0, symBinAddr: 0x100017A00, symSize: 0x14 }
  - { offsetInCU: 0x50C25, offset: 0x50C25, size: 0x8, addend: 0x0, symName: __ZNSt3__114pointer_traitsIPKNS_4pairIKN5Token9TokenTypeENS_12basic_stringIcNS_11char_traitsIcEENS_9allocatorIcEEEEEEE10pointer_toB8ue170006ERSC_, symObjAddr: 0x143B4, symBinAddr: 0x100017A14, symSize: 0x14 }
  - { offsetInCU: 0x50C48, offset: 0x50C48, size: 0x8, addend: 0x0, symName: __ZN8DatabaseC2Ev, symObjAddr: 0x143C8, symBinAddr: 0x100017A28, symSize: 0x2C }
  - { offsetInCU: 0x50C72, offset: 0x50C72, size: 0x8, addend: 0x0, symName: __ZNSt3__113unordered_mapINS_12basic_stringIcNS_11char_traitsIcEENS_9allocatorIcEEEE8RelationNS_4hashIS6_EENS_8equal_toIS6_EENS4_INS_4pairIKS6_S7_EEEEEC1B8ue170006Ev, symObjAddr: 0x143F4, symBinAddr: 0x100017A54, symSize: 0x2C }
  - { offsetInCU: 0x50C9C, offset: 0x50C9C, size: 0x8, addend: 0x0, symName: __ZNSt3__113unordered_mapINS_12basic_stringIcNS_11char_traitsIcEENS_9allocatorIcEEEE8RelationNS_4hashIS6_EENS_8equal_toIS6_EENS4_INS_4pairIKS6_S7_EEEEEC2B8ue170006Ev, symObjAddr: 0x14420, symBinAddr: 0x100017A80, symSize: 0x2C }
  - { offsetInCU: 0x50CC6, offset: 0x50CC6, size: 0x8, addend: 0x0, symName: __ZNSt3__112__hash_tableINS_17__hash_value_typeINS_12basic_stringIcNS_11char_traitsIcEENS_9allocatorIcEEEE8RelationEENS_22__unordered_map_hasherIS7_S9_NS_4hashIS7_EENS_8equal_toIS7_EELb1EEENS_21__unordered_map_equalIS7_S9_SE_SC_Lb1EEENS5_IS9_EEEC1Ev, symObjAddr: 0x1444C, symBinAddr: 0x100017AAC, symSize: 0x2C }
  - { offsetInCU: 0x50CF2, offset: 0x50CF2, size: 0x8, addend: 0x0, symName: __ZNSt3__112__hash_tableINS_17__hash_value_typeINS_12basic_stringIcNS_11char_traitsIcEENS_9allocatorIcEEEE8RelationEENS_22__unordered_map_hasherIS7_S9_NS_4hashIS7_EENS_8equal_toIS7_EELb1EEENS_21__unordered_map_equalIS7_S9_SE_SC_Lb1EEENS5_IS9_EEEC2Ev, symObjAddr: 0x14478, symBinAddr: 0x100017AD8, symSize: 0x7C }
  - { offsetInCU: 0x50D1E, offset: 0x50D1E, size: 0x8, addend: 0x0, symName: __ZNSt3__110unique_ptrIA_PNS_16__hash_node_baseIPNS_11__hash_nodeINS_17__hash_value_typeINS_12basic_stringIcNS_11char_traitsIcEENS_9allocatorIcEEEE8RelationEEPvEEEENS_25__bucket_list_deallocatorINS7_ISG_EEEEEC1B8ue170006ILb1EvEEv, symObjAddr: 0x144F4, symBinAddr: 0x100017B54, symSize: 0x2C }
  - { offsetInCU: 0x50D53, offset: 0x50D53, size: 0x8, addend: 0x0, symName: __ZNSt3__117__compressed_pairINS_16__hash_node_baseIPNS_11__hash_nodeINS_17__hash_value_typeINS_12basic_stringIcNS_11char_traitsIcEENS_9allocatorIcEEEE8RelationEEPvEEEENS7_ISD_EEEC1B8ue170006ILb1EvEEv, symObjAddr: 0x14520, symBinAddr: 0x100017B80, symSize: 0x2C }
  - { offsetInCU: 0x50D88, offset: 0x50D88, size: 0x8, addend: 0x0, symName: __ZNSt3__117__compressed_pairImNS_22__unordered_map_hasherINS_12basic_stringIcNS_11char_traitsIcEENS_9allocatorIcEEEENS_17__hash_value_typeIS7_8RelationEENS_4hashIS7_EENS_8equal_toIS7_EELb1EEEEC1B8ue170006IiNS_18__default_init_tagEEEOT_OT0_, symObjAddr: 0x1454C, symBinAddr: 0x100017BAC, symSize: 0x3C }
  - { offsetInCU: 0x50DE0, offset: 0x50DE0, size: 0x8, addend: 0x0, symName: __ZNSt3__117__compressed_pairIfNS_21__unordered_map_equalINS_12basic_stringIcNS_11char_traitsIcEENS_9allocatorIcEEEENS_17__hash_value_typeIS7_8RelationEENS_8equal_toIS7_EENS_4hashIS7_EELb1EEEEC1B8ue170006IfNS_18__default_init_tagEEEOT_OT0_, symObjAddr: 0x14588, symBinAddr: 0x100017BE8, symSize: 0x3C }
  - { offsetInCU: 0x50E38, offset: 0x50E38, size: 0x8, addend: 0x0, symName: __ZNSt3__110unique_ptrIA_PNS_16__hash_node_baseIPNS_11__hash_nodeINS_17__hash_value_typeINS_12basic_stringIcNS_11char_traitsIcEENS_9allocatorIcEEEE8RelationEEPvEEEENS_25__bucket_list_deallocatorINS7_ISG_EEEEEC2B8ue170006ILb1EvEEv, symObjAddr: 0x145C4, symBinAddr: 0x100017C24, symSize: 0x3C }
  - { offsetInCU: 0x50E6D, offset: 0x50E6D, size: 0x8, addend: 0x0, symName: __ZNSt3__117__compressed_pairIPPNS_16__hash_node_baseIPNS_11__hash_nodeINS_17__hash_value_typeINS_12basic_stringIcNS_11char_traitsIcEENS_9allocatorIcEEEE8RelationEEPvEEEENS_25__bucket_list_deallocatorINS7_ISG_EEEEEC1B8ue170006INS_16__value_init_tagESN_EEOT_OT0_, symObjAddr: 0x14600, symBinAddr: 0x100017C60, symSize: 0x3C }
  - { offsetInCU: 0x50EC5, offset: 0x50EC5, size: 0x8, addend: 0x0, symName: __ZNSt3__117__compressed_pairIPPNS_16__hash_node_baseIPNS_11__hash_nodeINS_17__hash_value_typeINS_12basic_stringIcNS_11char_traitsIcEENS_9allocatorIcEEEE8RelationEEPvEEEENS_25__bucket_list_deallocatorINS7_ISG_EEEEEC2B8ue170006INS_16__value_init_tagESN_EEOT_OT0_, symObjAddr: 0x1463C, symBinAddr: 0x100017C9C, symSize: 0x40 }
  - { offsetInCU: 0x50F1D, offset: 0x50F1D, size: 0x8, addend: 0x0, symName: __ZNSt3__122__compressed_pair_elemIPPNS_16__hash_node_baseIPNS_11__hash_nodeINS_17__hash_value_typeINS_12basic_stringIcNS_11char_traitsIcEENS_9allocatorIcEEEE8RelationEEPvEEEELi0ELb0EEC2B8ue170006ENS_16__value_init_tagE, symObjAddr: 0x1467C, symBinAddr: 0x100017CDC, symSize: 0x18 }
  - { offsetInCU: 0x50F51, offset: 0x50F51, size: 0x8, addend: 0x0, symName: __ZNSt3__122__compressed_pair_elemINS_25__bucket_list_deallocatorINS_9allocatorIPNS_16__hash_node_baseIPNS_11__hash_nodeINS_17__hash_value_typeINS_12basic_stringIcNS_11char_traitsIcEENS2_IcEEEE8RelationEEPvEEEEEEEELi1ELb0EEC2B8ue170006ENS_16__value_init_tagE, symObjAddr: 0x14694, symBinAddr: 0x100017CF4, symSize: 0x2C }
  - { offsetInCU: 0x50F85, offset: 0x50F85, size: 0x8, addend: 0x0, symName: __ZNSt3__125__bucket_list_deallocatorINS_9allocatorIPNS_16__hash_node_baseIPNS_11__hash_nodeINS_17__hash_value_typeINS_12basic_stringIcNS_11char_traitsIcEENS1_IcEEEE8RelationEEPvEEEEEEEC1B8ue170006Ev, symObjAddr: 0x146C0, symBinAddr: 0x100017D20, symSize: 0x2C }
  - { offsetInCU: 0x50FAF, offset: 0x50FAF, size: 0x8, addend: 0x0, symName: __ZNSt3__125__bucket_list_deallocatorINS_9allocatorIPNS_16__hash_node_baseIPNS_11__hash_nodeINS_17__hash_value_typeINS_12basic_stringIcNS_11char_traitsIcEENS1_IcEEEE8RelationEEPvEEEEEEEC2B8ue170006Ev, symObjAddr: 0x146EC, symBinAddr: 0x100017D4C, symSize: 0x40 }
  - { offsetInCU: 0x50FD9, offset: 0x50FD9, size: 0x8, addend: 0x0, symName: __ZNSt3__117__compressed_pairImNS_9allocatorIPNS_16__hash_node_baseIPNS_11__hash_nodeINS_17__hash_value_typeINS_12basic_stringIcNS_11char_traitsIcEENS1_IcEEEE8RelationEEPvEEEEEEEC1B8ue170006IiNS_18__default_init_tagEEEOT_OT0_, symObjAddr: 0x1472C, symBinAddr: 0x100017D8C, symSize: 0x3C }
  - { offsetInCU: 0x51031, offset: 0x51031, size: 0x8, addend: 0x0, symName: __ZNSt3__117__compressed_pairImNS_9allocatorIPNS_16__hash_node_baseIPNS_11__hash_nodeINS_17__hash_value_typeINS_12basic_stringIcNS_11char_traitsIcEENS1_IcEEEE8RelationEEPvEEEEEEEC2B8ue170006IiNS_18__default_init_tagEEEOT_OT0_, symObjAddr: 0x14768, symBinAddr: 0x100017DC8, symSize: 0x40 }
  - { offsetInCU: 0x51089, offset: 0x51089, size: 0x8, addend: 0x0, symName: __ZNSt3__122__compressed_pair_elemINS_9allocatorIPNS_16__hash_node_baseIPNS_11__hash_nodeINS_17__hash_value_typeINS_12basic_stringIcNS_11char_traitsIcEENS1_IcEEEE8RelationEEPvEEEEEELi1ELb1EEC2B8ue170006ENS_18__default_init_tagE, symObjAddr: 0x147A8, symBinAddr: 0x100017E08, symSize: 0x2C }
  - { offsetInCU: 0x510BD, offset: 0x510BD, size: 0x8, addend: 0x0, symName: __ZNSt3__19allocatorIPNS_16__hash_node_baseIPNS_11__hash_nodeINS_17__hash_value_typeINS_12basic_stringIcNS_11char_traitsIcEENS0_IcEEEE8RelationEEPvEEEEEC2B8ue170006Ev, symObjAddr: 0x147D4, symBinAddr: 0x100017E34, symSize: 0x2C }
  - { offsetInCU: 0x510E7, offset: 0x510E7, size: 0x8, addend: 0x0, symName: __ZNSt3__116__non_trivial_ifILb1ENS_9allocatorIPNS_16__hash_node_baseIPNS_11__hash_nodeINS_17__hash_value_typeINS_12basic_stringIcNS_11char_traitsIcEENS1_IcEEEE8RelationEEPvEEEEEEEC2B8ue170006Ev, symObjAddr: 0x14800, symBinAddr: 0x100017E60, symSize: 0x14 }
  - { offsetInCU: 0x51111, offset: 0x51111, size: 0x8, addend: 0x0, symName: __ZNSt3__117__compressed_pairINS_16__hash_node_baseIPNS_11__hash_nodeINS_17__hash_value_typeINS_12basic_stringIcNS_11char_traitsIcEENS_9allocatorIcEEEE8RelationEEPvEEEENS7_ISD_EEEC2B8ue170006ILb1EvEEv, symObjAddr: 0x14814, symBinAddr: 0x100017E74, symSize: 0x34 }
  - { offsetInCU: 0x51146, offset: 0x51146, size: 0x8, addend: 0x0, symName: __ZNSt3__122__compressed_pair_elemINS_16__hash_node_baseIPNS_11__hash_nodeINS_17__hash_value_typeINS_12basic_stringIcNS_11char_traitsIcEENS_9allocatorIcEEEE8RelationEEPvEEEELi0ELb0EEC2B8ue170006ENS_16__value_init_tagE, symObjAddr: 0x14848, symBinAddr: 0x100017EA8, symSize: 0x2C }
  - { offsetInCU: 0x5117A, offset: 0x5117A, size: 0x8, addend: 0x0, symName: __ZNSt3__122__compressed_pair_elemINS_9allocatorINS_11__hash_nodeINS_17__hash_value_typeINS_12basic_stringIcNS_11char_traitsIcEENS1_IcEEEE8RelationEEPvEEEELi1ELb1EEC2B8ue170006ENS_16__value_init_tagE, symObjAddr: 0x14874, symBinAddr: 0x100017ED4, symSize: 0x2C }
  - { offsetInCU: 0x511AE, offset: 0x511AE, size: 0x8, addend: 0x0, symName: __ZNSt3__116__hash_node_baseIPNS_11__hash_nodeINS_17__hash_value_typeINS_12basic_stringIcNS_11char_traitsIcEENS_9allocatorIcEEEE8RelationEEPvEEEC1B8ue170006Ev, symObjAddr: 0x148A0, symBinAddr: 0x100017F00, symSize: 0x2C }
  - { offsetInCU: 0x511D8, offset: 0x511D8, size: 0x8, addend: 0x0, symName: __ZNSt3__116__hash_node_baseIPNS_11__hash_nodeINS_17__hash_value_typeINS_12basic_stringIcNS_11char_traitsIcEENS_9allocatorIcEEEE8RelationEEPvEEEC2B8ue170006Ev, symObjAddr: 0x148CC, symBinAddr: 0x100017F2C, symSize: 0x18 }
  - { offsetInCU: 0x51202, offset: 0x51202, size: 0x8, addend: 0x0, symName: __ZNSt3__19allocatorINS_11__hash_nodeINS_17__hash_value_typeINS_12basic_stringIcNS_11char_traitsIcEENS0_IcEEEE8RelationEEPvEEEC2B8ue170006Ev, symObjAddr: 0x148E4, symBinAddr: 0x100017F44, symSize: 0x2C }
  - { offsetInCU: 0x5122C, offset: 0x5122C, size: 0x8, addend: 0x0, symName: __ZNSt3__116__non_trivial_ifILb1ENS_9allocatorINS_11__hash_nodeINS_17__hash_value_typeINS_12basic_stringIcNS_11char_traitsIcEENS1_IcEEEE8RelationEEPvEEEEEC2B8ue170006Ev, symObjAddr: 0x14910, symBinAddr: 0x100017F70, symSize: 0x14 }
  - { offsetInCU: 0x51256, offset: 0x51256, size: 0x8, addend: 0x0, symName: __ZNSt3__117__compressed_pairImNS_22__unordered_map_hasherINS_12basic_stringIcNS_11char_traitsIcEENS_9allocatorIcEEEENS_17__hash_value_typeIS7_8RelationEENS_4hashIS7_EENS_8equal_toIS7_EELb1EEEEC2B8ue170006IiNS_18__default_init_tagEEEOT_OT0_, symObjAddr: 0x14924, symBinAddr: 0x100017F84, symSize: 0x40 }
  - { offsetInCU: 0x512AE, offset: 0x512AE, size: 0x8, addend: 0x0, symName: __ZNSt3__122__compressed_pair_elemINS_22__unordered_map_hasherINS_12basic_stringIcNS_11char_traitsIcEENS_9allocatorIcEEEENS_17__hash_value_typeIS7_8RelationEENS_4hashIS7_EENS_8equal_toIS7_EELb1EEELi1ELb1EEC2B8ue170006ENS_18__default_init_tagE, symObjAddr: 0x14964, symBinAddr: 0x100017FC4, symSize: 0x2C }
  - { offsetInCU: 0x512E2, offset: 0x512E2, size: 0x8, addend: 0x0, symName: __ZNSt3__122__unordered_map_hasherINS_12basic_stringIcNS_11char_traitsIcEENS_9allocatorIcEEEENS_17__hash_value_typeIS6_8RelationEENS_4hashIS6_EENS_8equal_toIS6_EELb1EEC2B8ue170006Ev, symObjAddr: 0x14990, symBinAddr: 0x100017FF0, symSize: 0x14 }
  - { offsetInCU: 0x5130C, offset: 0x5130C, size: 0x8, addend: 0x0, symName: __ZNSt3__117__compressed_pairIfNS_21__unordered_map_equalINS_12basic_stringIcNS_11char_traitsIcEENS_9allocatorIcEEEENS_17__hash_value_typeIS7_8RelationEENS_8equal_toIS7_EENS_4hashIS7_EELb1EEEEC2B8ue170006IfNS_18__default_init_tagEEEOT_OT0_, symObjAddr: 0x149A4, symBinAddr: 0x100018004, symSize: 0x40 }
  - { offsetInCU: 0x51364, offset: 0x51364, size: 0x8, addend: 0x0, symName: __ZNSt3__122__compressed_pair_elemINS_21__unordered_map_equalINS_12basic_stringIcNS_11char_traitsIcEENS_9allocatorIcEEEENS_17__hash_value_typeIS7_8RelationEENS_8equal_toIS7_EENS_4hashIS7_EELb1EEELi1ELb1EEC2B8ue170006ENS_18__default_init_tagE, symObjAddr: 0x149E4, symBinAddr: 0x100018044, symSize: 0x2C }
  - { offsetInCU: 0x51398, offset: 0x51398, size: 0x8, addend: 0x0, symName: __ZNSt3__121__unordered_map_equalINS_12basic_stringIcNS_11char_traitsIcEENS_9allocatorIcEEEENS_17__hash_value_typeIS6_8RelationEENS_8equal_toIS6_EENS_4hashIS6_EELb1EEC2B8ue170006Ev, symObjAddr: 0x14A10, symBinAddr: 0x100018070, symSize: 0x14 }
  - { offsetInCU: 0x513C2, offset: 0x513C2, size: 0x8, addend: 0x0, symName: __ZN7DatalogC2ERKS_, symObjAddr: 0x14A24, symBinAddr: 0x100018084, symSize: 0x118 }
  - { offsetInCU: 0x513F7, offset: 0x513F7, size: 0x8, addend: 0x0, symName: __ZNSt3__16vectorI9PredicateNS_9allocatorIS1_EEEC1ERKS4_, symObjAddr: 0x14B3C, symBinAddr: 0x10001819C, symSize: 0x34 }
  - { offsetInCU: 0x51432, offset: 0x51432, size: 0x8, addend: 0x0, symName: __ZNSt3__16vectorI4RuleNS_9allocatorIS1_EEEC1ERKS4_, symObjAddr: 0x14B70, symBinAddr: 0x1000181D0, symSize: 0x34 }
  - { offsetInCU: 0x5146D, offset: 0x5146D, size: 0x8, addend: 0x0, symName: __ZNSt3__13setINS_12basic_stringIcNS_11char_traitsIcEENS_9allocatorIcEEEENS_4lessIS6_EENS4_IS6_EEEC1B8ue170006ERKSA_, symObjAddr: 0x14BA4, symBinAddr: 0x100018204, symSize: 0x34 }
  - { offsetInCU: 0x514A6, offset: 0x514A6, size: 0x8, addend: 0x0, symName: __ZNSt3__16vectorI9PredicateNS_9allocatorIS1_EEEC2ERKS4_, symObjAddr: 0x14BD8, symBinAddr: 0x100018238, symSize: 0x94 }
  - { offsetInCU: 0x514E1, offset: 0x514E1, size: 0x8, addend: 0x0, symName: __ZNSt3__116allocator_traitsINS_9allocatorI9PredicateEEE37select_on_container_copy_constructionB8ue170006IS3_vvEES3_RKS3_, symObjAddr: 0x14C6C, symBinAddr: 0x1000182CC, symSize: 0x10 }
  - { offsetInCU: 0x51516, offset: 0x51516, size: 0x8, addend: 0x0, symName: __ZNSt3__117__compressed_pairIP9PredicateNS_9allocatorIS1_EEEC1B8ue170006IDnS4_EEOT_OT0_, symObjAddr: 0x14C7C, symBinAddr: 0x1000182DC, symSize: 0x3C }
  - { offsetInCU: 0x5156E, offset: 0x5156E, size: 0x8, addend: 0x0, symName: __ZNSt3__16vectorI9PredicateNS_9allocatorIS1_EEE16__init_with_sizeB8ue170006IPS1_S6_EEvT_T0_m, symObjAddr: 0x14CB8, symBinAddr: 0x100018318, symSize: 0xB8 }
  - { offsetInCU: 0x515E2, offset: 0x515E2, size: 0x8, addend: 0x0, symName: __ZNSt3__117__compressed_pairIP9PredicateNS_9allocatorIS1_EEEC2B8ue170006IDnS4_EEOT_OT0_, symObjAddr: 0x14D70, symBinAddr: 0x1000183D0, symSize: 0x44 }
  - { offsetInCU: 0x5163A, offset: 0x5163A, size: 0x8, addend: 0x0, symName: __ZNSt3__122__compressed_pair_elemINS_9allocatorI9PredicateEELi1ELb1EEC2B8ue170006IS3_vEEOT_, symObjAddr: 0x14DB4, symBinAddr: 0x100018414, symSize: 0x18 }
  - { offsetInCU: 0x5167C, offset: 0x5167C, size: 0x8, addend: 0x0, symName: __ZNSt3__16vectorI9PredicateNS_9allocatorIS1_EEE11__vallocateB8ue170006Em, symObjAddr: 0x14E0C, symBinAddr: 0x10001846C, symSize: 0xB4 }
  - { offsetInCU: 0x516C0, offset: 0x516C0, size: 0x8, addend: 0x0, symName: __ZNSt3__16vectorI9PredicateNS_9allocatorIS1_EEE18__construct_at_endIPS1_S6_EEvT_T0_m, symObjAddr: 0x14EC0, symBinAddr: 0x100018520, symSize: 0x8C }
  - { offsetInCU: 0x51736, offset: 0x51736, size: 0x8, addend: 0x0, symName: __ZNSt3__128__exception_guard_exceptionsINS_6vectorI9PredicateNS_9allocatorIS2_EEE16__destroy_vectorEE10__completeB8ue170006Ev, symObjAddr: 0x14F4C, symBinAddr: 0x1000185AC, symSize: 0x1C }
  - { offsetInCU: 0x5175C, offset: 0x5175C, size: 0x8, addend: 0x0, symName: __ZNSt3__128__exception_guard_exceptionsINS_6vectorI9PredicateNS_9allocatorIS2_EEE16__destroy_vectorEED1B8ue170006Ev, symObjAddr: 0x14F68, symBinAddr: 0x1000185C8, symSize: 0x2C }
  - { offsetInCU: 0x51786, offset: 0x51786, size: 0x8, addend: 0x0, symName: __ZNSt3__128__exception_guard_exceptionsINS_6vectorI9PredicateNS_9allocatorIS2_EEE16__destroy_vectorEEC1B8ue170006ES6_, symObjAddr: 0x14F94, symBinAddr: 0x1000185F4, symSize: 0x34 }
  - { offsetInCU: 0x517BE, offset: 0x517BE, size: 0x8, addend: 0x0, symName: __ZNSt3__128__exception_guard_exceptionsINS_6vectorI9PredicateNS_9allocatorIS2_EEE16__destroy_vectorEEC2B8ue170006ES6_, symObjAddr: 0x14FC8, symBinAddr: 0x100018628, symSize: 0x24 }
  - { offsetInCU: 0x51819, offset: 0x51819, size: 0x8, addend: 0x0, symName: __ZNSt3__14pairIP9PredicateS2_EC1B8ue170006IS2_S2_LPv0EEEOT_OT0_, symObjAddr: 0x15258, symBinAddr: 0x1000188B8, symSize: 0x3C }
  - { offsetInCU: 0x51877, offset: 0x51877, size: 0x8, addend: 0x0, symName: __ZNSt3__14pairIP9PredicateS2_EC2B8ue170006IS2_S2_LPv0EEEOT_OT0_, symObjAddr: 0x15294, symBinAddr: 0x1000188F4, symSize: 0x34 }
  - { offsetInCU: 0x518D5, offset: 0x518D5, size: 0x8, addend: 0x0, symName: __ZNSt3__129_AllocatorDestroyRangeReverseINS_9allocatorI9PredicateEEPS2_EC1B8ue170006ERS3_RS4_S7_, symObjAddr: 0x15314, symBinAddr: 0x100018974, symSize: 0x44 }
  - { offsetInCU: 0x5192C, offset: 0x5192C, size: 0x8, addend: 0x0, symName: __ZNSt3__116allocator_traitsINS_9allocatorI9PredicateEEE9constructB8ue170006IS2_JRS2_EvEEvRS3_PT_DpOT0_, symObjAddr: 0x15358, symBinAddr: 0x1000189B8, symSize: 0x34 }
  - { offsetInCU: 0x51983, offset: 0x51983, size: 0x8, addend: 0x0, symName: __ZNSt3__128__exception_guard_exceptionsINS_29_AllocatorDestroyRangeReverseINS_9allocatorI9PredicateEEPS3_EEE10__completeB8ue170006Ev, symObjAddr: 0x1538C, symBinAddr: 0x1000189EC, symSize: 0x1C }
  - { offsetInCU: 0x519A9, offset: 0x519A9, size: 0x8, addend: 0x0, symName: __ZNSt3__128__exception_guard_exceptionsINS_29_AllocatorDestroyRangeReverseINS_9allocatorI9PredicateEEPS3_EEED1B8ue170006Ev, symObjAddr: 0x153A8, symBinAddr: 0x100018A08, symSize: 0x2C }
  - { offsetInCU: 0x519D3, offset: 0x519D3, size: 0x8, addend: 0x0, symName: __ZNSt3__128__exception_guard_exceptionsINS_29_AllocatorDestroyRangeReverseINS_9allocatorI9PredicateEEPS3_EEEC1B8ue170006ES6_, symObjAddr: 0x153D4, symBinAddr: 0x100018A34, symSize: 0x34 }
  - { offsetInCU: 0x51A0C, offset: 0x51A0C, size: 0x8, addend: 0x0, symName: __ZNSt3__128__exception_guard_exceptionsINS_29_AllocatorDestroyRangeReverseINS_9allocatorI9PredicateEEPS3_EEEC2B8ue170006ES6_, symObjAddr: 0x15408, symBinAddr: 0x100018A68, symSize: 0x30 }
  - { offsetInCU: 0x51A45, offset: 0x51A45, size: 0x8, addend: 0x0, symName: __ZNSt3__129_AllocatorDestroyRangeReverseINS_9allocatorI9PredicateEEPS2_EC2B8ue170006ERS3_RS4_S7_, symObjAddr: 0x15438, symBinAddr: 0x100018A98, symSize: 0x38 }
  - { offsetInCU: 0x51A9C, offset: 0x51A9C, size: 0x8, addend: 0x0, symName: __ZNSt3__19allocatorI9PredicateE9constructB8ue170006IS1_JRS1_EEEvPT_DpOT0_, symObjAddr: 0x15470, symBinAddr: 0x100018AD0, symSize: 0x30 }
  - { offsetInCU: 0x51AF2, offset: 0x51AF2, size: 0x8, addend: 0x0, symName: __ZNSt3__128__exception_guard_exceptionsINS_29_AllocatorDestroyRangeReverseINS_9allocatorI9PredicateEEPS3_EEED2B8ue170006Ev, symObjAddr: 0x154A0, symBinAddr: 0x100018B00, symSize: 0x50 }
  - { offsetInCU: 0x51B1C, offset: 0x51B1C, size: 0x8, addend: 0x0, symName: __ZNKSt3__129_AllocatorDestroyRangeReverseINS_9allocatorI9PredicateEEPS2_EclB8ue170006Ev, symObjAddr: 0x154F0, symBinAddr: 0x100018B50, symSize: 0x68 }
  - { offsetInCU: 0x51B42, offset: 0x51B42, size: 0x8, addend: 0x0, symName: __ZNSt3__118__unwrap_iter_implIP9PredicateLb1EE8__unwrapB8ue170006ES2_, symObjAddr: 0x155C8, symBinAddr: 0x100018C28, symSize: 0x24 }
  - { offsetInCU: 0x51B65, offset: 0x51B65, size: 0x8, addend: 0x0, symName: __ZNSt3__118__unwrap_iter_implIP9PredicateLb1EE8__rewrapB8ue170006ES2_S2_, symObjAddr: 0x155EC, symBinAddr: 0x100018C4C, symSize: 0x58 }
  - { offsetInCU: 0x51B96, offset: 0x51B96, size: 0x8, addend: 0x0, symName: __ZNSt3__128__exception_guard_exceptionsINS_6vectorI9PredicateNS_9allocatorIS2_EEE16__destroy_vectorEED2B8ue170006Ev, symObjAddr: 0x15644, symBinAddr: 0x100018CA4, symSize: 0x48 }
  - { offsetInCU: 0x51BC0, offset: 0x51BC0, size: 0x8, addend: 0x0, symName: __ZNSt3__16vectorI4RuleNS_9allocatorIS1_EEEC2ERKS4_, symObjAddr: 0x1568C, symBinAddr: 0x100018CEC, symSize: 0x94 }
  - { offsetInCU: 0x51C06, offset: 0x51C06, size: 0x8, addend: 0x0, symName: __ZNSt3__116allocator_traitsINS_9allocatorI4RuleEEE37select_on_container_copy_constructionB8ue170006IS3_vvEES3_RKS3_, symObjAddr: 0x15720, symBinAddr: 0x100018D80, symSize: 0x10 }
  - { offsetInCU: 0x51C35, offset: 0x51C35, size: 0x8, addend: 0x0, symName: __ZNKSt3__16vectorI4RuleNS_9allocatorIS1_EEE7__allocB8ue170006Ev, symObjAddr: 0x15730, symBinAddr: 0x100018D90, symSize: 0x28 }
  - { offsetInCU: 0x51C61, offset: 0x51C61, size: 0x8, addend: 0x0, symName: __ZNSt3__117__compressed_pairIP4RuleNS_9allocatorIS1_EEEC1B8ue170006IDnS4_EEOT_OT0_, symObjAddr: 0x15758, symBinAddr: 0x100018DB8, symSize: 0x3C }
  - { offsetInCU: 0x51CB9, offset: 0x51CB9, size: 0x8, addend: 0x0, symName: __ZNSt3__16vectorI4RuleNS_9allocatorIS1_EEE16__init_with_sizeB8ue170006IPS1_S6_EEvT_T0_m, symObjAddr: 0x15794, symBinAddr: 0x100018DF4, symSize: 0xB8 }
  - { offsetInCU: 0x51D2D, offset: 0x51D2D, size: 0x8, addend: 0x0, symName: __ZNKSt3__16vectorI4RuleNS_9allocatorIS1_EEE4sizeB8ue170006Ev, symObjAddr: 0x1584C, symBinAddr: 0x100018EAC, symSize: 0x28 }
  - { offsetInCU: 0x51D53, offset: 0x51D53, size: 0x8, addend: 0x0, symName: __ZNKSt3__117__compressed_pairIP4RuleNS_9allocatorIS1_EEE6secondB8ue170006Ev, symObjAddr: 0x15874, symBinAddr: 0x100018ED4, symSize: 0x24 }
  - { offsetInCU: 0x51D79, offset: 0x51D79, size: 0x8, addend: 0x0, symName: __ZNKSt3__122__compressed_pair_elemINS_9allocatorI4RuleEELi1ELb1EE5__getB8ue170006Ev, symObjAddr: 0x15898, symBinAddr: 0x100018EF8, symSize: 0x14 }
  - { offsetInCU: 0x51D9F, offset: 0x51D9F, size: 0x8, addend: 0x0, symName: __ZNSt3__117__compressed_pairIP4RuleNS_9allocatorIS1_EEEC2B8ue170006IDnS4_EEOT_OT0_, symObjAddr: 0x158AC, symBinAddr: 0x100018F0C, symSize: 0x44 }
  - { offsetInCU: 0x51DF7, offset: 0x51DF7, size: 0x8, addend: 0x0, symName: __ZNSt3__122__compressed_pair_elemIP4RuleLi0ELb0EEC2B8ue170006IDnvEEOT_, symObjAddr: 0x158F0, symBinAddr: 0x100018F50, symSize: 0x1C }
  - { offsetInCU: 0x51E39, offset: 0x51E39, size: 0x8, addend: 0x0, symName: __ZNSt3__122__compressed_pair_elemINS_9allocatorI4RuleEELi1ELb1EEC2B8ue170006IS3_vEEOT_, symObjAddr: 0x1590C, symBinAddr: 0x100018F6C, symSize: 0x18 }
  - { offsetInCU: 0x51E7B, offset: 0x51E7B, size: 0x8, addend: 0x0, symName: __ZNSt3__16vectorI4RuleNS_9allocatorIS1_EEE16__destroy_vectorC1B8ue170006ERS4_, symObjAddr: 0x15964, symBinAddr: 0x100018FC4, symSize: 0x34 }
  - { offsetInCU: 0x51EB4, offset: 0x51EB4, size: 0x8, addend: 0x0, symName: __ZNSt3__16vectorI4RuleNS_9allocatorIS1_EEE11__vallocateB8ue170006Em, symObjAddr: 0x15998, symBinAddr: 0x100018FF8, symSize: 0xB4 }
  - { offsetInCU: 0x51EF8, offset: 0x51EF8, size: 0x8, addend: 0x0, symName: __ZNSt3__16vectorI4RuleNS_9allocatorIS1_EEE18__construct_at_endIPS1_S6_EEvT_T0_m, symObjAddr: 0x15A4C, symBinAddr: 0x1000190AC, symSize: 0x8C }
  - { offsetInCU: 0x51F6E, offset: 0x51F6E, size: 0x8, addend: 0x0, symName: __ZNSt3__128__exception_guard_exceptionsINS_6vectorI4RuleNS_9allocatorIS2_EEE16__destroy_vectorEE10__completeB8ue170006Ev, symObjAddr: 0x15AD8, symBinAddr: 0x100019138, symSize: 0x1C }
  - { offsetInCU: 0x51F94, offset: 0x51F94, size: 0x8, addend: 0x0, symName: __ZNSt3__128__exception_guard_exceptionsINS_6vectorI4RuleNS_9allocatorIS2_EEE16__destroy_vectorEED1B8ue170006Ev, symObjAddr: 0x15AF4, symBinAddr: 0x100019154, symSize: 0x2C }
  - { offsetInCU: 0x51FBE, offset: 0x51FBE, size: 0x8, addend: 0x0, symName: __ZNSt3__128__exception_guard_exceptionsINS_6vectorI4RuleNS_9allocatorIS2_EEE16__destroy_vectorEEC1B8ue170006ES6_, symObjAddr: 0x15B20, symBinAddr: 0x100019180, symSize: 0x34 }
  - { offsetInCU: 0x51FF6, offset: 0x51FF6, size: 0x8, addend: 0x0, symName: __ZNSt3__128__exception_guard_exceptionsINS_6vectorI4RuleNS_9allocatorIS2_EEE16__destroy_vectorEEC2B8ue170006ES6_, symObjAddr: 0x15B54, symBinAddr: 0x1000191B4, symSize: 0x24 }
  - { offsetInCU: 0x5202E, offset: 0x5202E, size: 0x8, addend: 0x0, symName: __ZNSt3__16vectorI4RuleNS_9allocatorIS1_EEE16__destroy_vectorC2B8ue170006ERS4_, symObjAddr: 0x15B78, symBinAddr: 0x1000191D8, symSize: 0x20 }
  - { offsetInCU: 0x52067, offset: 0x52067, size: 0x8, addend: 0x0, symName: __ZNKSt3__16vectorI4RuleNS_9allocatorIS1_EEE8max_sizeEv, symObjAddr: 0x15B98, symBinAddr: 0x1000191F8, symSize: 0x60 }
  - { offsetInCU: 0x5208F, offset: 0x5208F, size: 0x8, addend: 0x0, symName: __ZNKSt3__16vectorI4RuleNS_9allocatorIS1_EEE20__throw_length_errorB8ue170006Ev, symObjAddr: 0x15BF8, symBinAddr: 0x100019258, symSize: 0x1C }
  - { offsetInCU: 0x520B5, offset: 0x520B5, size: 0x8, addend: 0x0, symName: __ZNSt3__16vectorI4RuleNS_9allocatorIS1_EEE7__allocB8ue170006Ev, symObjAddr: 0x15C54, symBinAddr: 0x1000192B4, symSize: 0x28 }
  - { offsetInCU: 0x520DB, offset: 0x520DB, size: 0x8, addend: 0x0, symName: __ZNSt3__16vectorI4RuleNS_9allocatorIS1_EEE9__end_capB8ue170006Ev, symObjAddr: 0x15C7C, symBinAddr: 0x1000192DC, symSize: 0x28 }
  - { offsetInCU: 0x52101, offset: 0x52101, size: 0x8, addend: 0x0, symName: __ZNKSt3__16vectorI4RuleNS_9allocatorIS1_EEE14__annotate_newB8ue170006Em, symObjAddr: 0x15CA4, symBinAddr: 0x100019304, symSize: 0xC8 }
  - { offsetInCU: 0x52136, offset: 0x52136, size: 0x8, addend: 0x0, symName: __ZNSt3__116allocator_traitsINS_9allocatorI4RuleEEE8max_sizeB8ue170006IS3_vEEmRKS3_, symObjAddr: 0x15D6C, symBinAddr: 0x1000193CC, symSize: 0x24 }
  - { offsetInCU: 0x52164, offset: 0x52164, size: 0x8, addend: 0x0, symName: __ZNKSt3__19allocatorI4RuleE8max_sizeB8ue170006Ev, symObjAddr: 0x15D90, symBinAddr: 0x1000193F0, symSize: 0x20 }
  - { offsetInCU: 0x5218A, offset: 0x5218A, size: 0x8, addend: 0x0, symName: __ZNSt3__19allocatorI4RuleE8allocateB8ue170006Em, symObjAddr: 0x15DB0, symBinAddr: 0x100019410, symSize: 0x5C }
  - { offsetInCU: 0x521BE, offset: 0x521BE, size: 0x8, addend: 0x0, symName: __ZNSt3__117__compressed_pairIP4RuleNS_9allocatorIS1_EEE6secondB8ue170006Ev, symObjAddr: 0x15E0C, symBinAddr: 0x10001946C, symSize: 0x24 }
  - { offsetInCU: 0x521E4, offset: 0x521E4, size: 0x8, addend: 0x0, symName: __ZNSt3__122__compressed_pair_elemINS_9allocatorI4RuleEELi1ELb1EE5__getB8ue170006Ev, symObjAddr: 0x15E30, symBinAddr: 0x100019490, symSize: 0x14 }
  - { offsetInCU: 0x5220A, offset: 0x5220A, size: 0x8, addend: 0x0, symName: __ZNSt3__117__compressed_pairIP4RuleNS_9allocatorIS1_EEE5firstB8ue170006Ev, symObjAddr: 0x15E44, symBinAddr: 0x1000194A4, symSize: 0x24 }
  - { offsetInCU: 0x52230, offset: 0x52230, size: 0x8, addend: 0x0, symName: __ZNSt3__122__compressed_pair_elemIP4RuleLi0ELb0EE5__getB8ue170006Ev, symObjAddr: 0x15E68, symBinAddr: 0x1000194C8, symSize: 0x14 }
  - { offsetInCU: 0x52256, offset: 0x52256, size: 0x8, addend: 0x0, symName: __ZNKSt3__16vectorI4RuleNS_9allocatorIS1_EEE31__annotate_contiguous_containerB8ue170006EPKvS6_S6_S6_, symObjAddr: 0x15E7C, symBinAddr: 0x1000194DC, symSize: 0x20 }
  - { offsetInCU: 0x522AC, offset: 0x522AC, size: 0x8, addend: 0x0, symName: __ZNKSt3__16vectorI4RuleNS_9allocatorIS1_EEE4dataB8ue170006Ev, symObjAddr: 0x15E9C, symBinAddr: 0x1000194FC, symSize: 0x28 }
  - { offsetInCU: 0x522D2, offset: 0x522D2, size: 0x8, addend: 0x0, symName: __ZNKSt3__16vectorI4RuleNS_9allocatorIS1_EEE8capacityB8ue170006Ev, symObjAddr: 0x15EC4, symBinAddr: 0x100019524, symSize: 0x40 }
  - { offsetInCU: 0x522F8, offset: 0x522F8, size: 0x8, addend: 0x0, symName: __ZNKSt3__16vectorI4RuleNS_9allocatorIS1_EEE9__end_capB8ue170006Ev, symObjAddr: 0x15F18, symBinAddr: 0x100019578, symSize: 0x28 }
  - { offsetInCU: 0x5231E, offset: 0x5231E, size: 0x8, addend: 0x0, symName: __ZNKSt3__117__compressed_pairIP4RuleNS_9allocatorIS1_EEE5firstB8ue170006Ev, symObjAddr: 0x15F40, symBinAddr: 0x1000195A0, symSize: 0x24 }
  - { offsetInCU: 0x52344, offset: 0x52344, size: 0x8, addend: 0x0, symName: __ZNKSt3__122__compressed_pair_elemIP4RuleLi0ELb0EE5__getB8ue170006Ev, symObjAddr: 0x15F64, symBinAddr: 0x1000195C4, symSize: 0x14 }
  - { offsetInCU: 0x52386, offset: 0x52386, size: 0x8, addend: 0x0, symName: __ZNSt3__16vectorI4RuleNS_9allocatorIS1_EEE21_ConstructTransactionC1B8ue170006ERS4_m, symObjAddr: 0x15F78, symBinAddr: 0x1000195D8, symSize: 0x3C }
  - { offsetInCU: 0x523CE, offset: 0x523CE, size: 0x8, addend: 0x0, symName: __ZNSt3__16vectorI4RuleNS_9allocatorIS1_EEE21_ConstructTransactionD1B8ue170006Ev, symObjAddr: 0x16034, symBinAddr: 0x100019694, symSize: 0x2C }
  - { offsetInCU: 0x523F8, offset: 0x523F8, size: 0x8, addend: 0x0, symName: __ZNSt3__16vectorI4RuleNS_9allocatorIS1_EEE21_ConstructTransactionC2B8ue170006ERS4_m, symObjAddr: 0x16060, symBinAddr: 0x1000196C0, symSize: 0x4C }
  - { offsetInCU: 0x52463, offset: 0x52463, size: 0x8, addend: 0x0, symName: __ZNSt3__14pairIP4RuleS2_EC1B8ue170006IS2_S2_LPv0EEEOT_OT0_, symObjAddr: 0x16298, symBinAddr: 0x1000198F8, symSize: 0x3C }
  - { offsetInCU: 0x524C1, offset: 0x524C1, size: 0x8, addend: 0x0, symName: __ZNSt3__14pairIP4RuleS2_EC2B8ue170006IS2_S2_LPv0EEEOT_OT0_, symObjAddr: 0x162D4, symBinAddr: 0x100019934, symSize: 0x34 }
  - { offsetInCU: 0x5251F, offset: 0x5251F, size: 0x8, addend: 0x0, symName: __ZNSt3__129_AllocatorDestroyRangeReverseINS_9allocatorI4RuleEEPS2_EC1B8ue170006ERS3_RS4_S7_, symObjAddr: 0x16354, symBinAddr: 0x1000199B4, symSize: 0x44 }
  - { offsetInCU: 0x52576, offset: 0x52576, size: 0x8, addend: 0x0, symName: __ZNSt3__116allocator_traitsINS_9allocatorI4RuleEEE9constructB8ue170006IS2_JRS2_EvEEvRS3_PT_DpOT0_, symObjAddr: 0x16398, symBinAddr: 0x1000199F8, symSize: 0x34 }
  - { offsetInCU: 0x525CD, offset: 0x525CD, size: 0x8, addend: 0x0, symName: __ZNSt3__128__exception_guard_exceptionsINS_29_AllocatorDestroyRangeReverseINS_9allocatorI4RuleEEPS3_EEE10__completeB8ue170006Ev, symObjAddr: 0x163CC, symBinAddr: 0x100019A2C, symSize: 0x1C }
  - { offsetInCU: 0x525F3, offset: 0x525F3, size: 0x8, addend: 0x0, symName: __ZNSt3__128__exception_guard_exceptionsINS_29_AllocatorDestroyRangeReverseINS_9allocatorI4RuleEEPS3_EEED1B8ue170006Ev, symObjAddr: 0x163E8, symBinAddr: 0x100019A48, symSize: 0x2C }
  - { offsetInCU: 0x5261D, offset: 0x5261D, size: 0x8, addend: 0x0, symName: __ZNSt3__128__exception_guard_exceptionsINS_29_AllocatorDestroyRangeReverseINS_9allocatorI4RuleEEPS3_EEEC1B8ue170006ES6_, symObjAddr: 0x16414, symBinAddr: 0x100019A74, symSize: 0x34 }
  - { offsetInCU: 0x52656, offset: 0x52656, size: 0x8, addend: 0x0, symName: __ZNSt3__128__exception_guard_exceptionsINS_29_AllocatorDestroyRangeReverseINS_9allocatorI4RuleEEPS3_EEEC2B8ue170006ES6_, symObjAddr: 0x16448, symBinAddr: 0x100019AA8, symSize: 0x30 }
  - { offsetInCU: 0x5268F, offset: 0x5268F, size: 0x8, addend: 0x0, symName: __ZNSt3__129_AllocatorDestroyRangeReverseINS_9allocatorI4RuleEEPS2_EC2B8ue170006ERS3_RS4_S7_, symObjAddr: 0x16478, symBinAddr: 0x100019AD8, symSize: 0x38 }
  - { offsetInCU: 0x526E6, offset: 0x526E6, size: 0x8, addend: 0x0, symName: __ZNSt3__19allocatorI4RuleE9constructB8ue170006IS1_JRS1_EEEvPT_DpOT0_, symObjAddr: 0x164B0, symBinAddr: 0x100019B10, symSize: 0x30 }
  - { offsetInCU: 0x5273C, offset: 0x5273C, size: 0x8, addend: 0x0, symName: __ZN4RuleC1ERKS_, symObjAddr: 0x164E0, symBinAddr: 0x100019B40, symSize: 0x34 }
  - { offsetInCU: 0x52771, offset: 0x52771, size: 0x8, addend: 0x0, symName: __ZN4RuleC2ERKS_, symObjAddr: 0x16514, symBinAddr: 0x100019B74, symSize: 0x70 }
  - { offsetInCU: 0x527A6, offset: 0x527A6, size: 0x8, addend: 0x0, symName: __ZNSt3__128__exception_guard_exceptionsINS_29_AllocatorDestroyRangeReverseINS_9allocatorI4RuleEEPS3_EEED2B8ue170006Ev, symObjAddr: 0x16584, symBinAddr: 0x100019BE4, symSize: 0x50 }
  - { offsetInCU: 0x527D0, offset: 0x527D0, size: 0x8, addend: 0x0, symName: __ZNKSt3__129_AllocatorDestroyRangeReverseINS_9allocatorI4RuleEEPS2_EclB8ue170006Ev, symObjAddr: 0x165D4, symBinAddr: 0x100019C34, symSize: 0x68 }
  - { offsetInCU: 0x527F6, offset: 0x527F6, size: 0x8, addend: 0x0, symName: __ZNSt3__116reverse_iteratorIP4RuleEC1B8ue170006ES2_, symObjAddr: 0x166AC, symBinAddr: 0x100019D0C, symSize: 0x34 }
  - { offsetInCU: 0x5282E, offset: 0x5282E, size: 0x8, addend: 0x0, symName: __ZNSt3__116allocator_traitsINS_9allocatorI4RuleEEE7destroyB8ue170006IS2_vEEvRS3_PT_, symObjAddr: 0x16728, symBinAddr: 0x100019D88, symSize: 0x2C }
  - { offsetInCU: 0x5286B, offset: 0x5286B, size: 0x8, addend: 0x0, symName: __ZNSt3__116reverse_iteratorIP4RuleEppB8ue170006Ev, symObjAddr: 0x16778, symBinAddr: 0x100019DD8, symSize: 0x20 }
  - { offsetInCU: 0x52891, offset: 0x52891, size: 0x8, addend: 0x0, symName: __ZNKSt3__116reverse_iteratorIP4RuleE4baseB8ue170006Ev, symObjAddr: 0x16798, symBinAddr: 0x100019DF8, symSize: 0x18 }
  - { offsetInCU: 0x528B7, offset: 0x528B7, size: 0x8, addend: 0x0, symName: __ZNSt3__19allocatorI4RuleE7destroyB8ue170006EPS1_, symObjAddr: 0x167B0, symBinAddr: 0x100019E10, symSize: 0x28 }
  - { offsetInCU: 0x528F1, offset: 0x528F1, size: 0x8, addend: 0x0, symName: __ZNSt3__119__to_address_helperINS_16reverse_iteratorIP4RuleEEvE6__callB8ue170006ERKS4_, symObjAddr: 0x167D8, symBinAddr: 0x100019E38, symSize: 0x38 }
  - { offsetInCU: 0x52914, offset: 0x52914, size: 0x8, addend: 0x0, symName: __ZNKSt3__116reverse_iteratorIP4RuleEptB8ue170006Ev, symObjAddr: 0x16810, symBinAddr: 0x100019E70, symSize: 0x24 }
  - { offsetInCU: 0x5293A, offset: 0x5293A, size: 0x8, addend: 0x0, symName: __ZNKSt3__116reverse_iteratorIP4RuleEdeB8ue170006Ev, symObjAddr: 0x16834, symBinAddr: 0x100019E94, symSize: 0x28 }
  - { offsetInCU: 0x5296E, offset: 0x5296E, size: 0x8, addend: 0x0, symName: __ZNSt3__116reverse_iteratorIP4RuleEC2B8ue170006ES2_, symObjAddr: 0x1685C, symBinAddr: 0x100019EBC, symSize: 0x28 }
  - { offsetInCU: 0x529A6, offset: 0x529A6, size: 0x8, addend: 0x0, symName: __ZNSt3__118__unwrap_iter_implIP4RuleLb1EE8__unwrapB8ue170006ES2_, symObjAddr: 0x16884, symBinAddr: 0x100019EE4, symSize: 0x24 }
  - { offsetInCU: 0x529C9, offset: 0x529C9, size: 0x8, addend: 0x0, symName: __ZNSt3__118__unwrap_iter_implIP4RuleLb1EE8__rewrapB8ue170006ES2_S2_, symObjAddr: 0x168A8, symBinAddr: 0x100019F08, symSize: 0x58 }
  - { offsetInCU: 0x529FA, offset: 0x529FA, size: 0x8, addend: 0x0, symName: __ZNSt3__16vectorI4RuleNS_9allocatorIS1_EEE21_ConstructTransactionD2B8ue170006Ev, symObjAddr: 0x16900, symBinAddr: 0x100019F60, symSize: 0x20 }
  - { offsetInCU: 0x52A24, offset: 0x52A24, size: 0x8, addend: 0x0, symName: __ZNSt3__128__exception_guard_exceptionsINS_6vectorI4RuleNS_9allocatorIS2_EEE16__destroy_vectorEED2B8ue170006Ev, symObjAddr: 0x16920, symBinAddr: 0x100019F80, symSize: 0x50 }
  - { offsetInCU: 0x52A4E, offset: 0x52A4E, size: 0x8, addend: 0x0, symName: __ZNSt3__16vectorI4RuleNS_9allocatorIS1_EEE16__destroy_vectorclB8ue170006Ev, symObjAddr: 0x16970, symBinAddr: 0x100019FD0, symSize: 0x90 }
  - { offsetInCU: 0x52A74, offset: 0x52A74, size: 0x8, addend: 0x0, symName: __ZNSt3__16vectorI4RuleNS_9allocatorIS1_EEE7__clearB8ue170006Ev, symObjAddr: 0x16A00, symBinAddr: 0x10001A060, symSize: 0x28 }
  - { offsetInCU: 0x52A9A, offset: 0x52A9A, size: 0x8, addend: 0x0, symName: __ZNKSt3__16vectorI4RuleNS_9allocatorIS1_EEE17__annotate_deleteB8ue170006Ev, symObjAddr: 0x16A28, symBinAddr: 0x10001A088, symSize: 0xD4 }
  - { offsetInCU: 0x52AC0, offset: 0x52AC0, size: 0x8, addend: 0x0, symName: __ZNSt3__116allocator_traitsINS_9allocatorI4RuleEEE10deallocateB8ue170006ERS3_PS2_m, symObjAddr: 0x16AFC, symBinAddr: 0x10001A15C, symSize: 0x34 }
  - { offsetInCU: 0x52B02, offset: 0x52B02, size: 0x8, addend: 0x0, symName: __ZNSt3__16vectorI4RuleNS_9allocatorIS1_EEE22__base_destruct_at_endB8ue170006EPS1_, symObjAddr: 0x16B30, symBinAddr: 0x10001A190, symSize: 0x8C }
  - { offsetInCU: 0x52B46, offset: 0x52B46, size: 0x8, addend: 0x0, symName: __ZNSt3__19allocatorI4RuleE10deallocateB8ue170006EPS1_m, symObjAddr: 0x16BBC, symBinAddr: 0x10001A21C, symSize: 0x44 }
  - { offsetInCU: 0x52B88, offset: 0x52B88, size: 0x8, addend: 0x0, symName: __ZNSt3__13setINS_12basic_stringIcNS_11char_traitsIcEENS_9allocatorIcEEEENS_4lessIS6_EENS4_IS6_EEEC2B8ue170006ERKSA_, symObjAddr: 0x16C00, symBinAddr: 0x10001A260, symSize: 0x88 }
  - { offsetInCU: 0x52BC1, offset: 0x52BC1, size: 0x8, addend: 0x0, symName: __ZNSt3__16__treeINS_12basic_stringIcNS_11char_traitsIcEENS_9allocatorIcEEEENS_4lessIS6_EENS4_IS6_EEEC1ERKSA_, symObjAddr: 0x16C88, symBinAddr: 0x10001A2E8, symSize: 0x34 }
  - { offsetInCU: 0x52BFC, offset: 0x52BFC, size: 0x8, addend: 0x0, symName: __ZNSt3__13setINS_12basic_stringIcNS_11char_traitsIcEENS_9allocatorIcEEEENS_4lessIS6_EENS4_IS6_EEE6insertB8ue170006INS_21__tree_const_iteratorIS6_PNS_11__tree_nodeIS6_PvEElEEEEvT_SI_, symObjAddr: 0x16CBC, symBinAddr: 0x10001A31C, symSize: 0x80 }
  - { offsetInCU: 0x52C66, offset: 0x52C66, size: 0x8, addend: 0x0, symName: __ZNKSt3__13setINS_12basic_stringIcNS_11char_traitsIcEENS_9allocatorIcEEEENS_4lessIS6_EENS4_IS6_EEE5beginB8ue170006Ev, symObjAddr: 0x16D3C, symBinAddr: 0x10001A39C, symSize: 0x2C }
  - { offsetInCU: 0x52C8C, offset: 0x52C8C, size: 0x8, addend: 0x0, symName: __ZNKSt3__13setINS_12basic_stringIcNS_11char_traitsIcEENS_9allocatorIcEEEENS_4lessIS6_EENS4_IS6_EEE3endB8ue170006Ev, symObjAddr: 0x16D68, symBinAddr: 0x10001A3C8, symSize: 0x2C }
  - { offsetInCU: 0x52CB2, offset: 0x52CB2, size: 0x8, addend: 0x0, symName: __ZNSt3__16__treeINS_12basic_stringIcNS_11char_traitsIcEENS_9allocatorIcEEEENS_4lessIS6_EENS4_IS6_EEED1Ev, symObjAddr: 0x16D94, symBinAddr: 0x10001A3F4, symSize: 0x2C }
  - { offsetInCU: 0x52CDE, offset: 0x52CDE, size: 0x8, addend: 0x0, symName: __ZNSt3__16__treeINS_12basic_stringIcNS_11char_traitsIcEENS_9allocatorIcEEEENS_4lessIS6_EENS4_IS6_EEEC2ERKSA_, symObjAddr: 0x16DC0, symBinAddr: 0x10001A420, symSize: 0x9C }
  - { offsetInCU: 0x52D19, offset: 0x52D19, size: 0x8, addend: 0x0, symName: __ZNSt3__116allocator_traitsINS_9allocatorINS_11__tree_nodeINS_12basic_stringIcNS_11char_traitsIcEENS1_IcEEEEPvEEEEE37select_on_container_copy_constructionB8ue170006ISA_vvEESA_RKSA_, symObjAddr: 0x16E5C, symBinAddr: 0x10001A4BC, symSize: 0x10 }
  - { offsetInCU: 0x52D48, offset: 0x52D48, size: 0x8, addend: 0x0, symName: __ZNKSt3__16__treeINS_12basic_stringIcNS_11char_traitsIcEENS_9allocatorIcEEEENS_4lessIS6_EENS4_IS6_EEE12__node_allocB8ue170006Ev, symObjAddr: 0x16E6C, symBinAddr: 0x10001A4CC, symSize: 0x28 }
  - { offsetInCU: 0x52D74, offset: 0x52D74, size: 0x8, addend: 0x0, symName: __ZNSt3__117__compressed_pairINS_15__tree_end_nodeIPNS_16__tree_node_baseIPvEEEENS_9allocatorINS_11__tree_nodeINS_12basic_stringIcNS_11char_traitsIcEENS7_IcEEEES3_EEEEEC1B8ue170006INS_18__default_init_tagESF_EEOT_OT0_, symObjAddr: 0x16E94, symBinAddr: 0x10001A4F4, symSize: 0x3C }
  - { offsetInCU: 0x52DCC, offset: 0x52DCC, size: 0x8, addend: 0x0, symName: __ZNKSt3__16__treeINS_12basic_stringIcNS_11char_traitsIcEENS_9allocatorIcEEEENS_4lessIS6_EENS4_IS6_EEE10value_compB8ue170006Ev, symObjAddr: 0x16ED0, symBinAddr: 0x10001A530, symSize: 0x28 }
  - { offsetInCU: 0x52DF2, offset: 0x52DF2, size: 0x8, addend: 0x0, symName: __ZNKSt3__117__compressed_pairINS_15__tree_end_nodeIPNS_16__tree_node_baseIPvEEEENS_9allocatorINS_11__tree_nodeINS_12basic_stringIcNS_11char_traitsIcEENS7_IcEEEES3_EEEEE6secondB8ue170006Ev, symObjAddr: 0x16EF8, symBinAddr: 0x10001A558, symSize: 0x24 }
  - { offsetInCU: 0x52E18, offset: 0x52E18, size: 0x8, addend: 0x0, symName: __ZNKSt3__122__compressed_pair_elemINS_9allocatorINS_11__tree_nodeINS_12basic_stringIcNS_11char_traitsIcEENS1_IcEEEEPvEEEELi1ELb1EE5__getB8ue170006Ev, symObjAddr: 0x16F1C, symBinAddr: 0x10001A57C, symSize: 0x14 }
  - { offsetInCU: 0x52E3E, offset: 0x52E3E, size: 0x8, addend: 0x0, symName: __ZNSt3__117__compressed_pairINS_15__tree_end_nodeIPNS_16__tree_node_baseIPvEEEENS_9allocatorINS_11__tree_nodeINS_12basic_stringIcNS_11char_traitsIcEENS7_IcEEEES3_EEEEEC2B8ue170006INS_18__default_init_tagESF_EEOT_OT0_, symObjAddr: 0x16F30, symBinAddr: 0x10001A590, symSize: 0x40 }
  - { offsetInCU: 0x52E96, offset: 0x52E96, size: 0x8, addend: 0x0, symName: __ZNSt3__122__compressed_pair_elemINS_15__tree_end_nodeIPNS_16__tree_node_baseIPvEEEELi0ELb0EEC2B8ue170006ENS_18__default_init_tagE, symObjAddr: 0x16F70, symBinAddr: 0x10001A5D0, symSize: 0x2C }
  - { offsetInCU: 0x52ECA, offset: 0x52ECA, size: 0x8, addend: 0x0, symName: __ZNSt3__122__compressed_pair_elemINS_9allocatorINS_11__tree_nodeINS_12basic_stringIcNS_11char_traitsIcEENS1_IcEEEEPvEEEELi1ELb1EEC2B8ue170006ISA_vEEOT_, symObjAddr: 0x16F9C, symBinAddr: 0x10001A5FC, symSize: 0x18 }
  - { offsetInCU: 0x52F0C, offset: 0x52F0C, size: 0x8, addend: 0x0, symName: __ZNKSt3__117__compressed_pairImNS_4lessINS_12basic_stringIcNS_11char_traitsIcEENS_9allocatorIcEEEEEEE6secondB8ue170006Ev, symObjAddr: 0x16FB4, symBinAddr: 0x10001A614, symSize: 0x24 }
  - { offsetInCU: 0x52F32, offset: 0x52F32, size: 0x8, addend: 0x0, symName: __ZNKSt3__122__compressed_pair_elemINS_4lessINS_12basic_stringIcNS_11char_traitsIcEENS_9allocatorIcEEEEEELi1ELb1EE5__getB8ue170006Ev, symObjAddr: 0x16FD8, symBinAddr: 0x10001A638, symSize: 0x14 }
  - { offsetInCU: 0x52F58, offset: 0x52F58, size: 0x8, addend: 0x0, symName: __ZNKSt3__13setINS_12basic_stringIcNS_11char_traitsIcEENS_9allocatorIcEEEENS_4lessIS6_EENS4_IS6_EEE4cendB8ue170006Ev, symObjAddr: 0x16FEC, symBinAddr: 0x10001A64C, symSize: 0x2C }
  - { offsetInCU: 0x52F7E, offset: 0x52F7E, size: 0x8, addend: 0x0, symName: __ZNSt3__16__treeINS_12basic_stringIcNS_11char_traitsIcEENS_9allocatorIcEEEENS_4lessIS6_EENS4_IS6_EEE15__insert_uniqueB8ue170006ENS_21__tree_const_iteratorIS6_PNS_11__tree_nodeIS6_PvEElEERKS6_, symObjAddr: 0x1704C, symBinAddr: 0x10001A6AC, symSize: 0x64 }
  - { offsetInCU: 0x52FC2, offset: 0x52FC2, size: 0x8, addend: 0x0, symName: __ZNKSt3__121__tree_const_iteratorINS_12basic_stringIcNS_11char_traitsIcEENS_9allocatorIcEEEEPNS_11__tree_nodeIS6_PvEElEdeB8ue170006Ev, symObjAddr: 0x170B0, symBinAddr: 0x10001A710, symSize: 0x28 }
  - { offsetInCU: 0x52FE8, offset: 0x52FE8, size: 0x8, addend: 0x0, symName: __ZNSt3__121__tree_const_iteratorINS_12basic_stringIcNS_11char_traitsIcEENS_9allocatorIcEEEEPNS_11__tree_nodeIS6_PvEElEppB8ue170006Ev, symObjAddr: 0x170D8, symBinAddr: 0x10001A738, symSize: 0x38 }
  - { offsetInCU: 0x5300E, offset: 0x5300E, size: 0x8, addend: 0x0, symName: __ZNSt3__16__treeINS_12basic_stringIcNS_11char_traitsIcEENS_9allocatorIcEEEENS_4lessIS6_EENS4_IS6_EEE30__emplace_hint_unique_key_argsIS6_JRKS6_EEENS_4pairINS_15__tree_iteratorIS6_PNS_11__tree_nodeIS6_PvEElEEbEENS_21__tree_const_iteratorIS6_SJ_lEERKT_DpOT0_, symObjAddr: 0x17140, symBinAddr: 0x10001A7A0, symSize: 0x104 }
  - { offsetInCU: 0x530DA, offset: 0x530DA, size: 0x8, addend: 0x0, symName: __ZNSt3__16__treeINS_12basic_stringIcNS_11char_traitsIcEENS_9allocatorIcEEEENS_4lessIS6_EENS4_IS6_EEE12__find_equalIS6_EERPNS_16__tree_node_baseIPvEENS_21__tree_const_iteratorIS6_PNS_11__tree_nodeIS6_SD_EElEERPNS_15__tree_end_nodeISF_EESG_RKT_, symObjAddr: 0x17244, symBinAddr: 0x10001A8A4, symSize: 0x304 }
  - { offsetInCU: 0x53183, offset: 0x53183, size: 0x8, addend: 0x0, symName: __ZNSt3__16__treeINS_12basic_stringIcNS_11char_traitsIcEENS_9allocatorIcEEEENS_4lessIS6_EENS4_IS6_EEE3endB8ue170006Ev, symObjAddr: 0x17548, symBinAddr: 0x10001ABA8, symSize: 0x34 }
  - { offsetInCU: 0x531A9, offset: 0x531A9, size: 0x8, addend: 0x0, symName: __ZNSt3__16__treeINS_12basic_stringIcNS_11char_traitsIcEENS_9allocatorIcEEEENS_4lessIS6_EENS4_IS6_EEE5beginB8ue170006Ev, symObjAddr: 0x1757C, symBinAddr: 0x10001ABDC, symSize: 0x34 }
  - { offsetInCU: 0x531CF, offset: 0x531CF, size: 0x8, addend: 0x0, symName: __ZNSt3__121__tree_const_iteratorINS_12basic_stringIcNS_11char_traitsIcEENS_9allocatorIcEEEEPNS_11__tree_nodeIS6_PvEElEmmB8ue170006Ev, symObjAddr: 0x175B0, symBinAddr: 0x10001AC10, symSize: 0x38 }
  - { offsetInCU: 0x531F5, offset: 0x531F5, size: 0x8, addend: 0x0, symName: __ZNKSt3__121__tree_const_iteratorINS_12basic_stringIcNS_11char_traitsIcEENS_9allocatorIcEEEEPNS_11__tree_nodeIS6_PvEElE8__get_npB8ue170006Ev, symObjAddr: 0x17624, symBinAddr: 0x10001AC84, symSize: 0x18 }
  - { offsetInCU: 0x5321B, offset: 0x5321B, size: 0x8, addend: 0x0, symName: __ZNSt3__115__tree_iteratorINS_12basic_stringIcNS_11char_traitsIcEENS_9allocatorIcEEEEPNS_11__tree_nodeIS6_PvEElEC1B8ue170006EPNS_15__tree_end_nodeIPNS_16__tree_node_baseIS8_EEEE, symObjAddr: 0x1763C, symBinAddr: 0x10001AC9C, symSize: 0x34 }
  - { offsetInCU: 0x53254, offset: 0x53254, size: 0x8, addend: 0x0, symName: __ZNSt3__115__tree_iteratorINS_12basic_stringIcNS_11char_traitsIcEENS_9allocatorIcEEEEPNS_11__tree_nodeIS6_PvEElEC2B8ue170006EPNS_15__tree_end_nodeIPNS_16__tree_node_baseIS8_EEEE, symObjAddr: 0x17670, symBinAddr: 0x10001ACD0, symSize: 0x20 }
  - { offsetInCU: 0x5328D, offset: 0x5328D, size: 0x8, addend: 0x0, symName: __ZNKSt3__16__treeINS_12basic_stringIcNS_11char_traitsIcEENS_9allocatorIcEEEENS_4lessIS6_EENS4_IS6_EEE5beginB8ue170006Ev, symObjAddr: 0x17908, symBinAddr: 0x10001AF68, symSize: 0x34 }
  - { offsetInCU: 0x532B3, offset: 0x532B3, size: 0x8, addend: 0x0, symName: __ZNKSt3__16__treeINS_12basic_stringIcNS_11char_traitsIcEENS_9allocatorIcEEEENS_4lessIS6_EENS4_IS6_EEE12__begin_nodeB8ue170006Ev, symObjAddr: 0x1793C, symBinAddr: 0x10001AF9C, symSize: 0x14 }
  - { offsetInCU: 0x532D9, offset: 0x532D9, size: 0x8, addend: 0x0, symName: __ZNSt3__121__tree_const_iteratorINS_12basic_stringIcNS_11char_traitsIcEENS_9allocatorIcEEEEPNS_11__tree_nodeIS6_PvEElEC1B8ue170006EPNS_15__tree_end_nodeIPNS_16__tree_node_baseIS8_EEEE, symObjAddr: 0x17950, symBinAddr: 0x10001AFB0, symSize: 0x34 }
  - { offsetInCU: 0x53312, offset: 0x53312, size: 0x8, addend: 0x0, symName: __ZNSt3__121__tree_const_iteratorINS_12basic_stringIcNS_11char_traitsIcEENS_9allocatorIcEEEEPNS_11__tree_nodeIS6_PvEElEC2B8ue170006EPNS_15__tree_end_nodeIPNS_16__tree_node_baseIS8_EEEE, symObjAddr: 0x17984, symBinAddr: 0x10001AFE4, symSize: 0x20 }
  - { offsetInCU: 0x5334B, offset: 0x5334B, size: 0x8, addend: 0x0, symName: __ZNKSt3__16__treeINS_12basic_stringIcNS_11char_traitsIcEENS_9allocatorIcEEEENS_4lessIS6_EENS4_IS6_EEE3endB8ue170006Ev, symObjAddr: 0x179A4, symBinAddr: 0x10001B004, symSize: 0x34 }
  - { offsetInCU: 0x53371, offset: 0x53371, size: 0x8, addend: 0x0, symName: __ZNSt3__16__treeINS_12basic_stringIcNS_11char_traitsIcEENS_9allocatorIcEEEENS_4lessIS6_EENS4_IS6_EEED2Ev, symObjAddr: 0x179D8, symBinAddr: 0x10001B038, symSize: 0x38 }
  - { offsetInCU: 0x5339D, offset: 0x5339D, size: 0x8, addend: 0x0, symName: __ZNSt3__16__treeINS_12basic_stringIcNS_11char_traitsIcEENS_9allocatorIcEEEENS_4lessIS6_EENS4_IS6_EEE7destroyEPNS_11__tree_nodeIS6_PvEE, symObjAddr: 0x17A10, symBinAddr: 0x10001B070, symSize: 0x9C }
  - { offsetInCU: 0x533F1, offset: 0x533F1, size: 0x8, addend: 0x0, symName: __ZN8DatabaseC2ERKS_, symObjAddr: 0x17AAC, symBinAddr: 0x10001B10C, symSize: 0x34 }
  - { offsetInCU: 0x53426, offset: 0x53426, size: 0x8, addend: 0x0, symName: __ZNSt3__113unordered_mapINS_12basic_stringIcNS_11char_traitsIcEENS_9allocatorIcEEEE8RelationNS_4hashIS6_EENS_8equal_toIS6_EENS4_INS_4pairIKS6_S7_EEEEEC1ERKSG_, symObjAddr: 0x17AE0, symBinAddr: 0x10001B140, symSize: 0x34 }
  - { offsetInCU: 0x53461, offset: 0x53461, size: 0x8, addend: 0x0, symName: __ZNSt3__113unordered_mapINS_12basic_stringIcNS_11char_traitsIcEENS_9allocatorIcEEEE8RelationNS_4hashIS6_EENS_8equal_toIS6_EENS4_INS_4pairIKS6_S7_EEEEEC2ERKSG_, symObjAddr: 0x17B14, symBinAddr: 0x10001B174, symSize: 0xA0 }
  - { offsetInCU: 0x5349C, offset: 0x5349C, size: 0x8, addend: 0x0, symName: __ZNSt3__112__hash_tableINS_17__hash_value_typeINS_12basic_stringIcNS_11char_traitsIcEENS_9allocatorIcEEEE8RelationEENS_22__unordered_map_hasherIS7_S9_NS_4hashIS7_EENS_8equal_toIS7_EELb1EEENS_21__unordered_map_equalIS7_S9_SE_SC_Lb1EEENS5_IS9_EEEC1ERKSJ_, symObjAddr: 0x17BB4, symBinAddr: 0x10001B214, symSize: 0x34 }
  - { offsetInCU: 0x534D7, offset: 0x534D7, size: 0x8, addend: 0x0, symName: __ZNSt3__112__hash_tableINS_17__hash_value_typeINS_12basic_stringIcNS_11char_traitsIcEENS_9allocatorIcEEEE8RelationEENS_22__unordered_map_hasherIS7_S9_NS_4hashIS7_EENS_8equal_toIS7_EELb1EEENS_21__unordered_map_equalIS7_S9_SE_SC_Lb1EEENS5_IS9_EEE15__rehash_uniqueB8ue170006Em, symObjAddr: 0x17BE8, symBinAddr: 0x10001B248, symSize: 0x2C }
  - { offsetInCU: 0x5350C, offset: 0x5350C, size: 0x8, addend: 0x0, symName: __ZNKSt3__113unordered_mapINS_12basic_stringIcNS_11char_traitsIcEENS_9allocatorIcEEEE8RelationNS_4hashIS6_EENS_8equal_toIS6_EENS4_INS_4pairIKS6_S7_EEEEE12bucket_countB8ue170006Ev, symObjAddr: 0x17C14, symBinAddr: 0x10001B274, symSize: 0x24 }
  - { offsetInCU: 0x53532, offset: 0x53532, size: 0x8, addend: 0x0, symName: __ZNSt3__113unordered_mapINS_12basic_stringIcNS_11char_traitsIcEENS_9allocatorIcEEEE8RelationNS_4hashIS6_EENS_8equal_toIS6_EENS4_INS_4pairIKS6_S7_EEEEE6insertINS_25__hash_map_const_iteratorINS_21__hash_const_iteratorIPNS_11__hash_nodeINS_17__hash_value_typeIS6_S7_EEPvEEEEEEEEvT_SS_, symObjAddr: 0x17C38, symBinAddr: 0x10001B298, symSize: 0x70 }
  - { offsetInCU: 0x53581, offset: 0x53581, size: 0x8, addend: 0x0, symName: __ZNKSt3__113unordered_mapINS_12basic_stringIcNS_11char_traitsIcEENS_9allocatorIcEEEE8RelationNS_4hashIS6_EENS_8equal_toIS6_EENS4_INS_4pairIKS6_S7_EEEEE5beginB8ue170006Ev, symObjAddr: 0x17CA8, symBinAddr: 0x10001B308, symSize: 0x38 }
  - { offsetInCU: 0x535A7, offset: 0x535A7, size: 0x8, addend: 0x0, symName: __ZNKSt3__113unordered_mapINS_12basic_stringIcNS_11char_traitsIcEENS_9allocatorIcEEEE8RelationNS_4hashIS6_EENS_8equal_toIS6_EENS4_INS_4pairIKS6_S7_EEEEE3endB8ue170006Ev, symObjAddr: 0x17CE0, symBinAddr: 0x10001B340, symSize: 0x38 }
  - { offsetInCU: 0x535CD, offset: 0x535CD, size: 0x8, addend: 0x0, symName: __ZNSt3__112__hash_tableINS_17__hash_value_typeINS_12basic_stringIcNS_11char_traitsIcEENS_9allocatorIcEEEE8RelationEENS_22__unordered_map_hasherIS7_S9_NS_4hashIS7_EENS_8equal_toIS7_EELb1EEENS_21__unordered_map_equalIS7_S9_SE_SC_Lb1EEENS5_IS9_EEED1Ev, symObjAddr: 0x17D18, symBinAddr: 0x10001B378, symSize: 0x2C }
  - { offsetInCU: 0x535F9, offset: 0x535F9, size: 0x8, addend: 0x0, symName: __ZNSt3__112__hash_tableINS_17__hash_value_typeINS_12basic_stringIcNS_11char_traitsIcEENS_9allocatorIcEEEE8RelationEENS_22__unordered_map_hasherIS7_S9_NS_4hashIS7_EENS_8equal_toIS7_EELb1EEENS_21__unordered_map_equalIS7_S9_SE_SC_Lb1EEENS5_IS9_EEEC2ERKSJ_, symObjAddr: 0x17D44, symBinAddr: 0x10001B3A4, symSize: 0xEC }
  - { offsetInCU: 0x5363F, offset: 0x5363F, size: 0x8, addend: 0x0, symName: __ZNSt3__116allocator_traitsINS_9allocatorIPNS_16__hash_node_baseIPNS_11__hash_nodeINS_17__hash_value_typeINS_12basic_stringIcNS_11char_traitsIcEENS1_IcEEEE8RelationEEPvEEEEEEE37select_on_container_copy_constructionB8ue170006ISH_vvEESH_RKSH_, symObjAddr: 0x17E30, symBinAddr: 0x10001B490, symSize: 0x10 }
  - { offsetInCU: 0x5366E, offset: 0x5366E, size: 0x8, addend: 0x0, symName: __ZNKSt3__110unique_ptrIA_PNS_16__hash_node_baseIPNS_11__hash_nodeINS_17__hash_value_typeINS_12basic_stringIcNS_11char_traitsIcEENS_9allocatorIcEEEE8RelationEEPvEEEENS_25__bucket_list_deallocatorINS7_ISG_EEEEE11get_deleterB8ue170006Ev, symObjAddr: 0x17E40, symBinAddr: 0x10001B4A0, symSize: 0x24 }
  - { offsetInCU: 0x53694, offset: 0x53694, size: 0x8, addend: 0x0, symName: __ZNKSt3__125__bucket_list_deallocatorINS_9allocatorIPNS_16__hash_node_baseIPNS_11__hash_nodeINS_17__hash_value_typeINS_12basic_stringIcNS_11char_traitsIcEENS1_IcEEEE8RelationEEPvEEEEEEE7__allocB8ue170006Ev, symObjAddr: 0x17E64, symBinAddr: 0x10001B4C4, symSize: 0x24 }
  - { offsetInCU: 0x536BA, offset: 0x536BA, size: 0x8, addend: 0x0, symName: __ZNSt3__125__bucket_list_deallocatorINS_9allocatorIPNS_16__hash_node_baseIPNS_11__hash_nodeINS_17__hash_value_typeINS_12basic_stringIcNS_11char_traitsIcEENS1_IcEEEE8RelationEEPvEEEEEEEC1B8ue170006ERKSH_m, symObjAddr: 0x17E88, symBinAddr: 0x10001B4E8, symSize: 0x3C }
  - { offsetInCU: 0x53702, offset: 0x53702, size: 0x8, addend: 0x0, symName: __ZNSt3__110unique_ptrIA_PNS_16__hash_node_baseIPNS_11__hash_nodeINS_17__hash_value_typeINS_12basic_stringIcNS_11char_traitsIcEENS_9allocatorIcEEEE8RelationEEPvEEEENS_25__bucket_list_deallocatorINS7_ISG_EEEEEC1B8ue170006ILb1EvEEDnNS_16__dependent_typeINS_27__unique_ptr_deleter_sfinaeISK_EEXT_EE20__good_rval_ref_typeE, symObjAddr: 0x17EC4, symBinAddr: 0x10001B524, symSize: 0x3C }
  - { offsetInCU: 0x5375D, offset: 0x5375D, size: 0x8, addend: 0x0, symName: __ZNSt3__116allocator_traitsINS_9allocatorINS_11__hash_nodeINS_17__hash_value_typeINS_12basic_stringIcNS_11char_traitsIcEENS1_IcEEEE8RelationEEPvEEEEE37select_on_container_copy_constructionB8ue170006ISD_vvEESD_RKSD_, symObjAddr: 0x17F00, symBinAddr: 0x10001B560, symSize: 0x10 }
  - { offsetInCU: 0x5378C, offset: 0x5378C, size: 0x8, addend: 0x0, symName: __ZNKSt3__112__hash_tableINS_17__hash_value_typeINS_12basic_stringIcNS_11char_traitsIcEENS_9allocatorIcEEEE8RelationEENS_22__unordered_map_hasherIS7_S9_NS_4hashIS7_EENS_8equal_toIS7_EELb1EEENS_21__unordered_map_equalIS7_S9_SE_SC_Lb1EEENS5_IS9_EEE12__node_allocB8ue170006Ev, symObjAddr: 0x17F10, symBinAddr: 0x10001B570, symSize: 0x28 }
  - { offsetInCU: 0x537B8, offset: 0x537B8, size: 0x8, addend: 0x0, symName: __ZNSt3__117__compressed_pairINS_16__hash_node_baseIPNS_11__hash_nodeINS_17__hash_value_typeINS_12basic_stringIcNS_11char_traitsIcEENS_9allocatorIcEEEE8RelationEEPvEEEENS7_ISD_EEEC1B8ue170006INS_18__default_init_tagESG_EEOT_OT0_, symObjAddr: 0x17F38, symBinAddr: 0x10001B598, symSize: 0x3C }
  - { offsetInCU: 0x53810, offset: 0x53810, size: 0x8, addend: 0x0, symName: __ZNKSt3__112__hash_tableINS_17__hash_value_typeINS_12basic_stringIcNS_11char_traitsIcEENS_9allocatorIcEEEE8RelationEENS_22__unordered_map_hasherIS7_S9_NS_4hashIS7_EENS_8equal_toIS7_EELb1EEENS_21__unordered_map_equalIS7_S9_SE_SC_Lb1EEENS5_IS9_EEE13hash_functionB8ue170006Ev, symObjAddr: 0x17F74, symBinAddr: 0x10001B5D4, symSize: 0x28 }
  - { offsetInCU: 0x53836, offset: 0x53836, size: 0x8, addend: 0x0, symName: __ZNSt3__117__compressed_pairImNS_22__unordered_map_hasherINS_12basic_stringIcNS_11char_traitsIcEENS_9allocatorIcEEEENS_17__hash_value_typeIS7_8RelationEENS_4hashIS7_EENS_8equal_toIS7_EELb1EEEEC1B8ue170006IiRKSF_EEOT_OT0_, symObjAddr: 0x17F9C, symBinAddr: 0x10001B5FC, symSize: 0x3C }
  - { offsetInCU: 0x5388E, offset: 0x5388E, size: 0x8, addend: 0x0, symName: __ZNSt3__110unique_ptrIA_PNS_16__hash_node_baseIPNS_11__hash_nodeINS_17__hash_value_typeINS_12basic_stringIcNS_11char_traitsIcEENS_9allocatorIcEEEE8RelationEEPvEEEENS_25__bucket_list_deallocatorINS7_ISG_EEEEED1B8ue170006Ev, symObjAddr: 0x17FD8, symBinAddr: 0x10001B638, symSize: 0x2C }
  - { offsetInCU: 0x538B8, offset: 0x538B8, size: 0x8, addend: 0x0, symName: __ZNKSt3__117__compressed_pairIPPNS_16__hash_node_baseIPNS_11__hash_nodeINS_17__hash_value_typeINS_12basic_stringIcNS_11char_traitsIcEENS_9allocatorIcEEEE8RelationEEPvEEEENS_25__bucket_list_deallocatorINS7_ISG_EEEEE6secondB8ue170006Ev, symObjAddr: 0x18004, symBinAddr: 0x10001B664, symSize: 0x28 }
  - { offsetInCU: 0x538DE, offset: 0x538DE, size: 0x8, addend: 0x0, symName: __ZNKSt3__122__compressed_pair_elemINS_25__bucket_list_deallocatorINS_9allocatorIPNS_16__hash_node_baseIPNS_11__hash_nodeINS_17__hash_value_typeINS_12basic_stringIcNS_11char_traitsIcEENS2_IcEEEE8RelationEEPvEEEEEEEELi1ELb0EE5__getB8ue170006Ev, symObjAddr: 0x1802C, symBinAddr: 0x10001B68C, symSize: 0x14 }
  - { offsetInCU: 0x53904, offset: 0x53904, size: 0x8, addend: 0x0, symName: __ZNKSt3__117__compressed_pairImNS_9allocatorIPNS_16__hash_node_baseIPNS_11__hash_nodeINS_17__hash_value_typeINS_12basic_stringIcNS_11char_traitsIcEENS1_IcEEEE8RelationEEPvEEEEEEE6secondB8ue170006Ev, symObjAddr: 0x18040, symBinAddr: 0x10001B6A0, symSize: 0x24 }
  - { offsetInCU: 0x5392A, offset: 0x5392A, size: 0x8, addend: 0x0, symName: __ZNKSt3__122__compressed_pair_elemINS_9allocatorIPNS_16__hash_node_baseIPNS_11__hash_nodeINS_17__hash_value_typeINS_12basic_stringIcNS_11char_traitsIcEENS1_IcEEEE8RelationEEPvEEEEEELi1ELb1EE5__getB8ue170006Ev, symObjAddr: 0x18064, symBinAddr: 0x10001B6C4, symSize: 0x14 }
  - { offsetInCU: 0x53950, offset: 0x53950, size: 0x8, addend: 0x0, symName: __ZNSt3__125__bucket_list_deallocatorINS_9allocatorIPNS_16__hash_node_baseIPNS_11__hash_nodeINS_17__hash_value_typeINS_12basic_stringIcNS_11char_traitsIcEENS1_IcEEEE8RelationEEPvEEEEEEEC2B8ue170006ERKSH_m, symObjAddr: 0x18078, symBinAddr: 0x10001B6D8, symSize: 0x44 }
  - { offsetInCU: 0x53998, offset: 0x53998, size: 0x8, addend: 0x0, symName: __ZNSt3__117__compressed_pairImNS_9allocatorIPNS_16__hash_node_baseIPNS_11__hash_nodeINS_17__hash_value_typeINS_12basic_stringIcNS_11char_traitsIcEENS1_IcEEEE8RelationEEPvEEEEEEEC1B8ue170006IRmRKSH_EEOT_OT0_, symObjAddr: 0x180BC, symBinAddr: 0x10001B71C, symSize: 0x3C }
  - { offsetInCU: 0x539F0, offset: 0x539F0, size: 0x8, addend: 0x0, symName: __ZNSt3__117__compressed_pairImNS_9allocatorIPNS_16__hash_node_baseIPNS_11__hash_nodeINS_17__hash_value_typeINS_12basic_stringIcNS_11char_traitsIcEENS1_IcEEEE8RelationEEPvEEEEEEEC2B8ue170006IRmRKSH_EEOT_OT0_, symObjAddr: 0x180F8, symBinAddr: 0x10001B758, symSize: 0x44 }
  - { offsetInCU: 0x53A48, offset: 0x53A48, size: 0x8, addend: 0x0, symName: __ZNSt3__122__compressed_pair_elemINS_9allocatorIPNS_16__hash_node_baseIPNS_11__hash_nodeINS_17__hash_value_typeINS_12basic_stringIcNS_11char_traitsIcEENS1_IcEEEE8RelationEEPvEEEEEELi1ELb1EEC2B8ue170006IRKSH_vEEOT_, symObjAddr: 0x1813C, symBinAddr: 0x10001B79C, symSize: 0x18 }
  - { offsetInCU: 0x53A8A, offset: 0x53A8A, size: 0x8, addend: 0x0, symName: __ZNSt3__110unique_ptrIA_PNS_16__hash_node_baseIPNS_11__hash_nodeINS_17__hash_value_typeINS_12basic_stringIcNS_11char_traitsIcEENS_9allocatorIcEEEE8RelationEEPvEEEENS_25__bucket_list_deallocatorINS7_ISG_EEEEEC2B8ue170006ILb1EvEEDnNS_16__dependent_typeINS_27__unique_ptr_deleter_sfinaeISK_EEXT_EE20__good_rval_ref_typeE, symObjAddr: 0x18154, symBinAddr: 0x10001B7B4, symSize: 0x48 }
  - { offsetInCU: 0x53ADA, offset: 0x53ADA, size: 0x8, addend: 0x0, symName: __ZNSt3__117__compressed_pairIPPNS_16__hash_node_baseIPNS_11__hash_nodeINS_17__hash_value_typeINS_12basic_stringIcNS_11char_traitsIcEENS_9allocatorIcEEEE8RelationEEPvEEEENS_25__bucket_list_deallocatorINS7_ISG_EEEEEC1B8ue170006IDnSK_EEOT_OT0_, symObjAddr: 0x1819C, symBinAddr: 0x10001B7FC, symSize: 0x3C }
  - { offsetInCU: 0x53B32, offset: 0x53B32, size: 0x8, addend: 0x0, symName: __ZNSt3__117__compressed_pairIPPNS_16__hash_node_baseIPNS_11__hash_nodeINS_17__hash_value_typeINS_12basic_stringIcNS_11char_traitsIcEENS_9allocatorIcEEEE8RelationEEPvEEEENS_25__bucket_list_deallocatorINS7_ISG_EEEEEC2B8ue170006IDnSK_EEOT_OT0_, symObjAddr: 0x181D8, symBinAddr: 0x10001B838, symSize: 0x48 }
  - { offsetInCU: 0x53B8A, offset: 0x53B8A, size: 0x8, addend: 0x0, symName: __ZNSt3__122__compressed_pair_elemIPPNS_16__hash_node_baseIPNS_11__hash_nodeINS_17__hash_value_typeINS_12basic_stringIcNS_11char_traitsIcEENS_9allocatorIcEEEE8RelationEEPvEEEELi0ELb0EEC2B8ue170006IDnvEEOT_, symObjAddr: 0x18220, symBinAddr: 0x10001B880, symSize: 0x1C }
  - { offsetInCU: 0x53BCC, offset: 0x53BCC, size: 0x8, addend: 0x0, symName: __ZNSt3__122__compressed_pair_elemINS_25__bucket_list_deallocatorINS_9allocatorIPNS_16__hash_node_baseIPNS_11__hash_nodeINS_17__hash_value_typeINS_12basic_stringIcNS_11char_traitsIcEENS2_IcEEEE8RelationEEPvEEEEEEEELi1ELb0EEC2B8ue170006ISJ_vEEOT_, symObjAddr: 0x1823C, symBinAddr: 0x10001B89C, symSize: 0x34 }
  - { offsetInCU: 0x53C0E, offset: 0x53C0E, size: 0x8, addend: 0x0, symName: __ZNSt3__125__bucket_list_deallocatorINS_9allocatorIPNS_16__hash_node_baseIPNS_11__hash_nodeINS_17__hash_value_typeINS_12basic_stringIcNS_11char_traitsIcEENS1_IcEEEE8RelationEEPvEEEEEEEC1B8ue170006EOSI_, symObjAddr: 0x18270, symBinAddr: 0x10001B8D0, symSize: 0x34 }
  - { offsetInCU: 0x53C47, offset: 0x53C47, size: 0x8, addend: 0x0, symName: __ZNSt3__125__bucket_list_deallocatorINS_9allocatorIPNS_16__hash_node_baseIPNS_11__hash_nodeINS_17__hash_value_typeINS_12basic_stringIcNS_11char_traitsIcEENS1_IcEEEE8RelationEEPvEEEEEEEC2B8ue170006EOSI_, symObjAddr: 0x182A4, symBinAddr: 0x10001B904, symSize: 0x48 }
  - { offsetInCU: 0x53C80, offset: 0x53C80, size: 0x8, addend: 0x0, symName: __ZNSt3__125__bucket_list_deallocatorINS_9allocatorIPNS_16__hash_node_baseIPNS_11__hash_nodeINS_17__hash_value_typeINS_12basic_stringIcNS_11char_traitsIcEENS1_IcEEEE8RelationEEPvEEEEEEE4sizeB8ue170006Ev, symObjAddr: 0x182EC, symBinAddr: 0x10001B94C, symSize: 0x24 }
  - { offsetInCU: 0x53CA6, offset: 0x53CA6, size: 0x8, addend: 0x0, symName: __ZNSt3__117__compressed_pairImNS_9allocatorIPNS_16__hash_node_baseIPNS_11__hash_nodeINS_17__hash_value_typeINS_12basic_stringIcNS_11char_traitsIcEENS1_IcEEEE8RelationEEPvEEEEEEE5firstB8ue170006Ev, symObjAddr: 0x18310, symBinAddr: 0x10001B970, symSize: 0x24 }
  - { offsetInCU: 0x53CCC, offset: 0x53CCC, size: 0x8, addend: 0x0, symName: __ZNKSt3__117__compressed_pairINS_16__hash_node_baseIPNS_11__hash_nodeINS_17__hash_value_typeINS_12basic_stringIcNS_11char_traitsIcEENS_9allocatorIcEEEE8RelationEEPvEEEENS7_ISD_EEE6secondB8ue170006Ev, symObjAddr: 0x18334, symBinAddr: 0x10001B994, symSize: 0x24 }
  - { offsetInCU: 0x53CF2, offset: 0x53CF2, size: 0x8, addend: 0x0, symName: __ZNKSt3__122__compressed_pair_elemINS_9allocatorINS_11__hash_nodeINS_17__hash_value_typeINS_12basic_stringIcNS_11char_traitsIcEENS1_IcEEEE8RelationEEPvEEEELi1ELb1EE5__getB8ue170006Ev, symObjAddr: 0x18358, symBinAddr: 0x10001B9B8, symSize: 0x14 }
  - { offsetInCU: 0x53D18, offset: 0x53D18, size: 0x8, addend: 0x0, symName: __ZNSt3__117__compressed_pairINS_16__hash_node_baseIPNS_11__hash_nodeINS_17__hash_value_typeINS_12basic_stringIcNS_11char_traitsIcEENS_9allocatorIcEEEE8RelationEEPvEEEENS7_ISD_EEEC2B8ue170006INS_18__default_init_tagESG_EEOT_OT0_, symObjAddr: 0x1836C, symBinAddr: 0x10001B9CC, symSize: 0x40 }
  - { offsetInCU: 0x53D70, offset: 0x53D70, size: 0x8, addend: 0x0, symName: __ZNSt3__122__compressed_pair_elemINS_16__hash_node_baseIPNS_11__hash_nodeINS_17__hash_value_typeINS_12basic_stringIcNS_11char_traitsIcEENS_9allocatorIcEEEE8RelationEEPvEEEELi0ELb0EEC2B8ue170006ENS_18__default_init_tagE, symObjAddr: 0x183AC, symBinAddr: 0x10001BA0C, symSize: 0x2C }
  - { offsetInCU: 0x53DA4, offset: 0x53DA4, size: 0x8, addend: 0x0, symName: __ZNSt3__122__compressed_pair_elemINS_9allocatorINS_11__hash_nodeINS_17__hash_value_typeINS_12basic_stringIcNS_11char_traitsIcEENS1_IcEEEE8RelationEEPvEEEELi1ELb1EEC2B8ue170006ISD_vEEOT_, symObjAddr: 0x183D8, symBinAddr: 0x10001BA38, symSize: 0x18 }
  - { offsetInCU: 0x53DE6, offset: 0x53DE6, size: 0x8, addend: 0x0, symName: __ZNKSt3__117__compressed_pairImNS_22__unordered_map_hasherINS_12basic_stringIcNS_11char_traitsIcEENS_9allocatorIcEEEENS_17__hash_value_typeIS7_8RelationEENS_4hashIS7_EENS_8equal_toIS7_EELb1EEEE6secondB8ue170006Ev, symObjAddr: 0x183F0, symBinAddr: 0x10001BA50, symSize: 0x24 }
  - { offsetInCU: 0x53E0C, offset: 0x53E0C, size: 0x8, addend: 0x0, symName: __ZNKSt3__122__compressed_pair_elemINS_22__unordered_map_hasherINS_12basic_stringIcNS_11char_traitsIcEENS_9allocatorIcEEEENS_17__hash_value_typeIS7_8RelationEENS_4hashIS7_EENS_8equal_toIS7_EELb1EEELi1ELb1EE5__getB8ue170006Ev, symObjAddr: 0x18414, symBinAddr: 0x10001BA74, symSize: 0x14 }
  - { offsetInCU: 0x53E32, offset: 0x53E32, size: 0x8, addend: 0x0, symName: __ZNSt3__117__compressed_pairImNS_22__unordered_map_hasherINS_12basic_stringIcNS_11char_traitsIcEENS_9allocatorIcEEEENS_17__hash_value_typeIS7_8RelationEENS_4hashIS7_EENS_8equal_toIS7_EELb1EEEEC2B8ue170006IiRKSF_EEOT_OT0_, symObjAddr: 0x18428, symBinAddr: 0x10001BA88, symSize: 0x44 }
  - { offsetInCU: 0x53E8A, offset: 0x53E8A, size: 0x8, addend: 0x0, symName: __ZNSt3__122__compressed_pair_elemINS_22__unordered_map_hasherINS_12basic_stringIcNS_11char_traitsIcEENS_9allocatorIcEEEENS_17__hash_value_typeIS7_8RelationEENS_4hashIS7_EENS_8equal_toIS7_EELb1EEELi1ELb1EEC2B8ue170006IRKSF_vEEOT_, symObjAddr: 0x1846C, symBinAddr: 0x10001BACC, symSize: 0x18 }
  - { offsetInCU: 0x53ECC, offset: 0x53ECC, size: 0x8, addend: 0x0, symName: __ZNSt3__110unique_ptrIA_PNS_16__hash_node_baseIPNS_11__hash_nodeINS_17__hash_value_typeINS_12basic_stringIcNS_11char_traitsIcEENS_9allocatorIcEEEE8RelationEEPvEEEENS_25__bucket_list_deallocatorINS7_ISG_EEEEED2B8ue170006Ev, symObjAddr: 0x18484, symBinAddr: 0x10001BAE4, symSize: 0x30 }
  - { offsetInCU: 0x53EF6, offset: 0x53EF6, size: 0x8, addend: 0x0, symName: __ZNSt3__110unique_ptrIA_PNS_16__hash_node_baseIPNS_11__hash_nodeINS_17__hash_value_typeINS_12basic_stringIcNS_11char_traitsIcEENS_9allocatorIcEEEE8RelationEEPvEEEENS_25__bucket_list_deallocatorINS7_ISG_EEEEE5resetB8ue170006EDn, symObjAddr: 0x184B4, symBinAddr: 0x10001BB14, symSize: 0x6C }
  - { offsetInCU: 0x53F37, offset: 0x53F37, size: 0x8, addend: 0x0, symName: __ZNSt3__117__compressed_pairIPPNS_16__hash_node_baseIPNS_11__hash_nodeINS_17__hash_value_typeINS_12basic_stringIcNS_11char_traitsIcEENS_9allocatorIcEEEE8RelationEEPvEEEENS_25__bucket_list_deallocatorINS7_ISG_EEEEE5firstB8ue170006Ev, symObjAddr: 0x18520, symBinAddr: 0x10001BB80, symSize: 0x24 }
  - { offsetInCU: 0x53F5D, offset: 0x53F5D, size: 0x8, addend: 0x0, symName: __ZNSt3__117__compressed_pairIPPNS_16__hash_node_baseIPNS_11__hash_nodeINS_17__hash_value_typeINS_12basic_stringIcNS_11char_traitsIcEENS_9allocatorIcEEEE8RelationEEPvEEEENS_25__bucket_list_deallocatorINS7_ISG_EEEEE6secondB8ue170006Ev, symObjAddr: 0x18544, symBinAddr: 0x10001BBA4, symSize: 0x28 }
  - { offsetInCU: 0x53F83, offset: 0x53F83, size: 0x8, addend: 0x0, symName: __ZNSt3__125__bucket_list_deallocatorINS_9allocatorIPNS_16__hash_node_baseIPNS_11__hash_nodeINS_17__hash_value_typeINS_12basic_stringIcNS_11char_traitsIcEENS1_IcEEEE8RelationEEPvEEEEEEEclB8ue170006EPSG_, symObjAddr: 0x1856C, symBinAddr: 0x10001BBCC, symSize: 0x58 }
  - { offsetInCU: 0x53FB8, offset: 0x53FB8, size: 0x8, addend: 0x0, symName: __ZNSt3__122__compressed_pair_elemIPPNS_16__hash_node_baseIPNS_11__hash_nodeINS_17__hash_value_typeINS_12basic_stringIcNS_11char_traitsIcEENS_9allocatorIcEEEE8RelationEEPvEEEELi0ELb0EE5__getB8ue170006Ev, symObjAddr: 0x185C4, symBinAddr: 0x10001BC24, symSize: 0x14 }
  - { offsetInCU: 0x53FDE, offset: 0x53FDE, size: 0x8, addend: 0x0, symName: __ZNSt3__122__compressed_pair_elemINS_25__bucket_list_deallocatorINS_9allocatorIPNS_16__hash_node_baseIPNS_11__hash_nodeINS_17__hash_value_typeINS_12basic_stringIcNS_11char_traitsIcEENS2_IcEEEE8RelationEEPvEEEEEEEELi1ELb0EE5__getB8ue170006Ev, symObjAddr: 0x185D8, symBinAddr: 0x10001BC38, symSize: 0x14 }
  - { offsetInCU: 0x54004, offset: 0x54004, size: 0x8, addend: 0x0, symName: __ZNSt3__116allocator_traitsINS_9allocatorIPNS_16__hash_node_baseIPNS_11__hash_nodeINS_17__hash_value_typeINS_12basic_stringIcNS_11char_traitsIcEENS1_IcEEEE8RelationEEPvEEEEEEE10deallocateB8ue170006ERSH_PSG_m, symObjAddr: 0x185EC, symBinAddr: 0x10001BC4C, symSize: 0x34 }
  - { offsetInCU: 0x54046, offset: 0x54046, size: 0x8, addend: 0x0, symName: __ZNSt3__125__bucket_list_deallocatorINS_9allocatorIPNS_16__hash_node_baseIPNS_11__hash_nodeINS_17__hash_value_typeINS_12basic_stringIcNS_11char_traitsIcEENS1_IcEEEE8RelationEEPvEEEEEEE7__allocB8ue170006Ev, symObjAddr: 0x18620, symBinAddr: 0x10001BC80, symSize: 0x24 }
  - { offsetInCU: 0x5406C, offset: 0x5406C, size: 0x8, addend: 0x0, symName: __ZNSt3__19allocatorIPNS_16__hash_node_baseIPNS_11__hash_nodeINS_17__hash_value_typeINS_12basic_stringIcNS_11char_traitsIcEENS0_IcEEEE8RelationEEPvEEEEE10deallocateB8ue170006EPSF_m, symObjAddr: 0x18644, symBinAddr: 0x10001BCA4, symSize: 0x40 }
  - { offsetInCU: 0x540AE, offset: 0x540AE, size: 0x8, addend: 0x0, symName: __ZNSt3__117__compressed_pairImNS_9allocatorIPNS_16__hash_node_baseIPNS_11__hash_nodeINS_17__hash_value_typeINS_12basic_stringIcNS_11char_traitsIcEENS1_IcEEEE8RelationEEPvEEEEEEE6secondB8ue170006Ev, symObjAddr: 0x18684, symBinAddr: 0x10001BCE4, symSize: 0x24 }
  - { offsetInCU: 0x540D4, offset: 0x540D4, size: 0x8, addend: 0x0, symName: __ZNSt3__122__compressed_pair_elemINS_9allocatorIPNS_16__hash_node_baseIPNS_11__hash_nodeINS_17__hash_value_typeINS_12basic_stringIcNS_11char_traitsIcEENS1_IcEEEE8RelationEEPvEEEEEELi1ELb1EE5__getB8ue170006Ev, symObjAddr: 0x186A8, symBinAddr: 0x10001BD08, symSize: 0x14 }
  - { offsetInCU: 0x540FA, offset: 0x540FA, size: 0x8, addend: 0x0, symName: __ZNSt3__112__hash_tableINS_17__hash_value_typeINS_12basic_stringIcNS_11char_traitsIcEENS_9allocatorIcEEEE8RelationEENS_22__unordered_map_hasherIS7_S9_NS_4hashIS7_EENS_8equal_toIS7_EELb1EEENS_21__unordered_map_equalIS7_S9_SE_SC_Lb1EEENS5_IS9_EEE8__rehashILb1EEEvm, symObjAddr: 0x186BC, symBinAddr: 0x10001BD1C, symSize: 0x1A8 }
  - { offsetInCU: 0x5414A, offset: 0x5414A, size: 0x8, addend: 0x0, symName: __ZNKSt3__112__hash_tableINS_17__hash_value_typeINS_12basic_stringIcNS_11char_traitsIcEENS_9allocatorIcEEEE8RelationEENS_22__unordered_map_hasherIS7_S9_NS_4hashIS7_EENS_8equal_toIS7_EELb1EEENS_21__unordered_map_equalIS7_S9_SE_SC_Lb1EEENS5_IS9_EEE12bucket_countB8ue170006Ev, symObjAddr: 0x18864, symBinAddr: 0x10001BEC4, symSize: 0x28 }
  - { offsetInCU: 0x54170, offset: 0x54170, size: 0x8, addend: 0x0, symName: __ZNSt3__112__hash_tableINS_17__hash_value_typeINS_12basic_stringIcNS_11char_traitsIcEENS_9allocatorIcEEEE8RelationEENS_22__unordered_map_hasherIS7_S9_NS_4hashIS7_EENS_8equal_toIS7_EELb1EEENS_21__unordered_map_equalIS7_S9_SE_SC_Lb1EEENS5_IS9_EEE11__do_rehashILb1EEEvm, symObjAddr: 0x1888C, symBinAddr: 0x10001BEEC, symSize: 0x288 }
  - { offsetInCU: 0x54253, offset: 0x54253, size: 0x8, addend: 0x0, symName: __ZNSt3__112__hash_tableINS_17__hash_value_typeINS_12basic_stringIcNS_11char_traitsIcEENS_9allocatorIcEEEE8RelationEENS_22__unordered_map_hasherIS7_S9_NS_4hashIS7_EENS_8equal_toIS7_EELb1EEENS_21__unordered_map_equalIS7_S9_SE_SC_Lb1EEENS5_IS9_EEE4sizeB8ue170006Ev, symObjAddr: 0x18B14, symBinAddr: 0x10001C174, symSize: 0x28 }
  - { offsetInCU: 0x54279, offset: 0x54279, size: 0x8, addend: 0x0, symName: __ZNSt3__112__hash_tableINS_17__hash_value_typeINS_12basic_stringIcNS_11char_traitsIcEENS_9allocatorIcEEEE8RelationEENS_22__unordered_map_hasherIS7_S9_NS_4hashIS7_EENS_8equal_toIS7_EELb1EEENS_21__unordered_map_equalIS7_S9_SE_SC_Lb1EEENS5_IS9_EEE15max_load_factorB8ue170006Ev, symObjAddr: 0x18B3C, symBinAddr: 0x10001C19C, symSize: 0x28 }
  - { offsetInCU: 0x5429F, offset: 0x5429F, size: 0x8, addend: 0x0, symName: __ZNKSt3__125__bucket_list_deallocatorINS_9allocatorIPNS_16__hash_node_baseIPNS_11__hash_nodeINS_17__hash_value_typeINS_12basic_stringIcNS_11char_traitsIcEENS1_IcEEEE8RelationEEPvEEEEEEE4sizeB8ue170006Ev, symObjAddr: 0x18B64, symBinAddr: 0x10001C1C4, symSize: 0x28 }
  - { offsetInCU: 0x542C5, offset: 0x542C5, size: 0x8, addend: 0x0, symName: __ZNKSt3__117__compressed_pairImNS_9allocatorIPNS_16__hash_node_baseIPNS_11__hash_nodeINS_17__hash_value_typeINS_12basic_stringIcNS_11char_traitsIcEENS1_IcEEEE8RelationEEPvEEEEEEE5firstB8ue170006Ev, symObjAddr: 0x18B8C, symBinAddr: 0x10001C1EC, symSize: 0x24 }
  - { offsetInCU: 0x542EB, offset: 0x542EB, size: 0x8, addend: 0x0, symName: __ZNSt3__110unique_ptrIA_PNS_16__hash_node_baseIPNS_11__hash_nodeINS_17__hash_value_typeINS_12basic_stringIcNS_11char_traitsIcEENS_9allocatorIcEEEE8RelationEEPvEEEENS_25__bucket_list_deallocatorINS7_ISG_EEEEE11get_deleterB8ue170006Ev, symObjAddr: 0x18BB0, symBinAddr: 0x10001C210, symSize: 0x24 }
  - { offsetInCU: 0x54311, offset: 0x54311, size: 0x8, addend: 0x0, symName: __ZNSt3__110unique_ptrIA_PNS_16__hash_node_baseIPNS_11__hash_nodeINS_17__hash_value_typeINS_12basic_stringIcNS_11char_traitsIcEENS_9allocatorIcEEEE8RelationEEPvEEEENS_25__bucket_list_deallocatorINS7_ISG_EEEEE5resetB8ue170006IPSG_EENS_9enable_ifIXsr28_CheckArrayPointerConversionIT_EE5valueEvE4typeESP_, symObjAddr: 0x18BD4, symBinAddr: 0x10001C234, symSize: 0x78 }
  - { offsetInCU: 0x5435E, offset: 0x5435E, size: 0x8, addend: 0x0, symName: __ZNSt3__116allocator_traitsINS_9allocatorIPNS_16__hash_node_baseIPNS_11__hash_nodeINS_17__hash_value_typeINS_12basic_stringIcNS_11char_traitsIcEENS1_IcEEEE8RelationEEPvEEEEEEE8allocateB8ue170006ERSH_m, symObjAddr: 0x18C4C, symBinAddr: 0x10001C2AC, symSize: 0x2C }
  - { offsetInCU: 0x54391, offset: 0x54391, size: 0x8, addend: 0x0, symName: __ZNKSt3__110unique_ptrIA_PNS_16__hash_node_baseIPNS_11__hash_nodeINS_17__hash_value_typeINS_12basic_stringIcNS_11char_traitsIcEENS_9allocatorIcEEEE8RelationEEPvEEEENS_25__bucket_list_deallocatorINS7_ISG_EEEEEixB8ue170006Em, symObjAddr: 0x18C78, symBinAddr: 0x10001C2D8, symSize: 0x34 }
  - { offsetInCU: 0x543C6, offset: 0x543C6, size: 0x8, addend: 0x0, symName: __ZNSt3__117__compressed_pairINS_16__hash_node_baseIPNS_11__hash_nodeINS_17__hash_value_typeINS_12basic_stringIcNS_11char_traitsIcEENS_9allocatorIcEEEE8RelationEEPvEEEENS7_ISD_EEE5firstB8ue170006Ev, symObjAddr: 0x18CAC, symBinAddr: 0x10001C30C, symSize: 0x24 }
  - { offsetInCU: 0x543EC, offset: 0x543EC, size: 0x8, addend: 0x0, symName: __ZNSt3__116__hash_node_baseIPNS_11__hash_nodeINS_17__hash_value_typeINS_12basic_stringIcNS_11char_traitsIcEENS_9allocatorIcEEEE8RelationEEPvEEE5__ptrB8ue170006Ev, symObjAddr: 0x18CD0, symBinAddr: 0x10001C330, symSize: 0x24 }
  - { offsetInCU: 0x54412, offset: 0x54412, size: 0x8, addend: 0x0, symName: __ZNKSt3__116__hash_node_baseIPNS_11__hash_nodeINS_17__hash_value_typeINS_12basic_stringIcNS_11char_traitsIcEENS_9allocatorIcEEEE8RelationEEPvEEE6__hashB8ue170006Ev, symObjAddr: 0x18CF4, symBinAddr: 0x10001C354, symSize: 0x18 }
  - { offsetInCU: 0x54438, offset: 0x54438, size: 0x8, addend: 0x0, symName: __ZNSt3__19allocatorIPNS_16__hash_node_baseIPNS_11__hash_nodeINS_17__hash_value_typeINS_12basic_stringIcNS_11char_traitsIcEENS0_IcEEEE8RelationEEPvEEEEE8allocateB8ue170006Em, symObjAddr: 0x18D0C, symBinAddr: 0x10001C36C, symSize: 0x58 }
  - { offsetInCU: 0x5446C, offset: 0x5446C, size: 0x8, addend: 0x0, symName: __ZNSt3__116allocator_traitsINS_9allocatorIPNS_16__hash_node_baseIPNS_11__hash_nodeINS_17__hash_value_typeINS_12basic_stringIcNS_11char_traitsIcEENS1_IcEEEE8RelationEEPvEEEEEEE8max_sizeB8ue170006ISH_vEEmRKSH_, symObjAddr: 0x18D64, symBinAddr: 0x10001C3C4, symSize: 0x24 }
  - { offsetInCU: 0x5449A, offset: 0x5449A, size: 0x8, addend: 0x0, symName: __ZNKSt3__19allocatorIPNS_16__hash_node_baseIPNS_11__hash_nodeINS_17__hash_value_typeINS_12basic_stringIcNS_11char_traitsIcEENS0_IcEEEE8RelationEEPvEEEEE8max_sizeB8ue170006Ev, symObjAddr: 0x18D88, symBinAddr: 0x10001C3E8, symSize: 0x14 }
  - { offsetInCU: 0x544C0, offset: 0x544C0, size: 0x8, addend: 0x0, symName: __ZNKSt3__117__compressed_pairIPPNS_16__hash_node_baseIPNS_11__hash_nodeINS_17__hash_value_typeINS_12basic_stringIcNS_11char_traitsIcEENS_9allocatorIcEEEE8RelationEEPvEEEENS_25__bucket_list_deallocatorINS7_ISG_EEEEE5firstB8ue170006Ev, symObjAddr: 0x18D9C, symBinAddr: 0x10001C3FC, symSize: 0x24 }
  - { offsetInCU: 0x544E6, offset: 0x544E6, size: 0x8, addend: 0x0, symName: __ZNKSt3__122__compressed_pair_elemIPPNS_16__hash_node_baseIPNS_11__hash_nodeINS_17__hash_value_typeINS_12basic_stringIcNS_11char_traitsIcEENS_9allocatorIcEEEE8RelationEEPvEEEELi0ELb0EE5__getB8ue170006Ev, symObjAddr: 0x18DC0, symBinAddr: 0x10001C420, symSize: 0x14 }
  - { offsetInCU: 0x5450C, offset: 0x5450C, size: 0x8, addend: 0x0, symName: __ZNSt3__122__compressed_pair_elemINS_16__hash_node_baseIPNS_11__hash_nodeINS_17__hash_value_typeINS_12basic_stringIcNS_11char_traitsIcEENS_9allocatorIcEEEE8RelationEEPvEEEELi0ELb0EE5__getB8ue170006Ev, symObjAddr: 0x18DD4, symBinAddr: 0x10001C434, symSize: 0x14 }
  - { offsetInCU: 0x54532, offset: 0x54532, size: 0x8, addend: 0x0, symName: __ZNSt3__114pointer_traitsIPNS_16__hash_node_baseIPNS_11__hash_nodeINS_17__hash_value_typeINS_12basic_stringIcNS_11char_traitsIcEENS_9allocatorIcEEEE8RelationEEPvEEEEE10pointer_toB8ue170006ERSF_, symObjAddr: 0x18DE8, symBinAddr: 0x10001C448, symSize: 0x14 }
  - { offsetInCU: 0x54555, offset: 0x54555, size: 0x8, addend: 0x0, symName: __ZNSt3__117__compressed_pairImNS_22__unordered_map_hasherINS_12basic_stringIcNS_11char_traitsIcEENS_9allocatorIcEEEENS_17__hash_value_typeIS7_8RelationEENS_4hashIS7_EENS_8equal_toIS7_EELb1EEEE5firstB8ue170006Ev, symObjAddr: 0x18DFC, symBinAddr: 0x10001C45C, symSize: 0x24 }
  - { offsetInCU: 0x5457B, offset: 0x5457B, size: 0x8, addend: 0x0, symName: __ZNSt3__117__compressed_pairIfNS_21__unordered_map_equalINS_12basic_stringIcNS_11char_traitsIcEENS_9allocatorIcEEEENS_17__hash_value_typeIS7_8RelationEENS_8equal_toIS7_EENS_4hashIS7_EELb1EEEE5firstB8ue170006Ev, symObjAddr: 0x18E20, symBinAddr: 0x10001C480, symSize: 0x24 }
  - { offsetInCU: 0x545A1, offset: 0x545A1, size: 0x8, addend: 0x0, symName: __ZNSt3__112__hash_tableINS_17__hash_value_typeINS_12basic_stringIcNS_11char_traitsIcEENS_9allocatorIcEEEE8RelationEENS_22__unordered_map_hasherIS7_S9_NS_4hashIS7_EENS_8equal_toIS7_EELb1EEENS_21__unordered_map_equalIS7_S9_SE_SC_Lb1EEENS5_IS9_EEE15__insert_uniqueB8ue170006ERKNS_4pairIKS7_S8_EE, symObjAddr: 0x18E74, symBinAddr: 0x10001C4D4, symSize: 0x50 }
  - { offsetInCU: 0x545D6, offset: 0x545D6, size: 0x8, addend: 0x0, symName: __ZNKSt3__125__hash_map_const_iteratorINS_21__hash_const_iteratorIPNS_11__hash_nodeINS_17__hash_value_typeINS_12basic_stringIcNS_11char_traitsIcEENS_9allocatorIcEEEE8RelationEEPvEEEEEdeB8ue170006Ev, symObjAddr: 0x18EC4, symBinAddr: 0x10001C524, symSize: 0x28 }
  - { offsetInCU: 0x545FC, offset: 0x545FC, size: 0x8, addend: 0x0, symName: __ZNSt3__125__hash_map_const_iteratorINS_21__hash_const_iteratorIPNS_11__hash_nodeINS_17__hash_value_typeINS_12basic_stringIcNS_11char_traitsIcEENS_9allocatorIcEEEE8RelationEEPvEEEEEppB8ue170006Ev, symObjAddr: 0x18EEC, symBinAddr: 0x10001C54C, symSize: 0x2C }
  - { offsetInCU: 0x54622, offset: 0x54622, size: 0x8, addend: 0x0, symName: __ZNSt3__112__hash_tableINS_17__hash_value_typeINS_12basic_stringIcNS_11char_traitsIcEENS_9allocatorIcEEEE8RelationEENS_22__unordered_map_hasherIS7_S9_NS_4hashIS7_EENS_8equal_toIS7_EELb1EEENS_21__unordered_map_equalIS7_S9_SE_SC_Lb1EEENS5_IS9_EEE25__emplace_unique_key_argsIS7_JRKNS_4pairIKS7_S8_EEEEENSL_INS_15__hash_iteratorIPNS_11__hash_nodeIS9_PvEEEEbEERKT_DpOT0_, symObjAddr: 0x18F7C, symBinAddr: 0x10001C5DC, symSize: 0x4A0 }
  - { offsetInCU: 0x54702, offset: 0x54702, size: 0x8, addend: 0x0, symName: __ZNSt3__122__hash_key_value_typesINS_17__hash_value_typeINS_12basic_stringIcNS_11char_traitsIcEENS_9allocatorIcEEEE8RelationEEE9__get_keyB8ue170006ERKNS_4pairIKS7_S8_EE, symObjAddr: 0x1941C, symBinAddr: 0x10001CA7C, symSize: 0x14 }
  - { offsetInCU: 0x54725, offset: 0x54725, size: 0x8, addend: 0x0, symName: __ZNSt3__112__hash_tableINS_17__hash_value_typeINS_12basic_stringIcNS_11char_traitsIcEENS_9allocatorIcEEEE8RelationEENS_22__unordered_map_hasherIS7_S9_NS_4hashIS7_EENS_8equal_toIS7_EELb1EEENS_21__unordered_map_equalIS7_S9_SE_SC_Lb1EEENS5_IS9_EEE13hash_functionB8ue170006Ev, symObjAddr: 0x19430, symBinAddr: 0x10001CA90, symSize: 0x28 }
  - { offsetInCU: 0x5474B, offset: 0x5474B, size: 0x8, addend: 0x0, symName: __ZNKSt3__122__unordered_map_hasherINS_12basic_stringIcNS_11char_traitsIcEENS_9allocatorIcEEEENS_17__hash_value_typeIS6_8RelationEENS_4hashIS6_EENS_8equal_toIS6_EELb1EEclB8ue170006ERKS6_, symObjAddr: 0x19458, symBinAddr: 0x10001CAB8, symSize: 0x2C }
  - { offsetInCU: 0x54780, offset: 0x54780, size: 0x8, addend: 0x0, symName: __ZNSt3__112__hash_tableINS_17__hash_value_typeINS_12basic_stringIcNS_11char_traitsIcEENS_9allocatorIcEEEE8RelationEENS_22__unordered_map_hasherIS7_S9_NS_4hashIS7_EENS_8equal_toIS7_EELb1EEENS_21__unordered_map_equalIS7_S9_SE_SC_Lb1EEENS5_IS9_EEE6key_eqB8ue170006Ev, symObjAddr: 0x19484, symBinAddr: 0x10001CAE4, symSize: 0x28 }
  - { offsetInCU: 0x547A6, offset: 0x547A6, size: 0x8, addend: 0x0, symName: __ZNKSt3__121__unordered_map_equalINS_12basic_stringIcNS_11char_traitsIcEENS_9allocatorIcEEEENS_17__hash_value_typeIS6_8RelationEENS_8equal_toIS6_EENS_4hashIS6_EELb1EEclB8ue170006ERKS9_RKS6_, symObjAddr: 0x194AC, symBinAddr: 0x10001CB0C, symSize: 0x48 }
  - { offsetInCU: 0x547EA, offset: 0x547EA, size: 0x8, addend: 0x0, symName: __ZNSt3__116__hash_node_baseIPNS_11__hash_nodeINS_17__hash_value_typeINS_12basic_stringIcNS_11char_traitsIcEENS_9allocatorIcEEEE8RelationEEPvEEE8__upcastB8ue170006Ev, symObjAddr: 0x194F4, symBinAddr: 0x10001CB54, symSize: 0x24 }
  - { offsetInCU: 0x54810, offset: 0x54810, size: 0x8, addend: 0x0, symName: __ZNSt3__112__hash_tableINS_17__hash_value_typeINS_12basic_stringIcNS_11char_traitsIcEENS_9allocatorIcEEEE8RelationEENS_22__unordered_map_hasherIS7_S9_NS_4hashIS7_EENS_8equal_toIS7_EELb1EEENS_21__unordered_map_equalIS7_S9_SE_SC_Lb1EEENS5_IS9_EEE21__construct_node_hashIRKNS_4pairIKS7_S8_EEJEEENS_10unique_ptrINS_11__hash_nodeIS9_PvEENS_22__hash_node_destructorINS5_IST_EEEEEEmOT_DpOT0_, symObjAddr: 0x19518, symBinAddr: 0x10001CB78, symSize: 0x140 }
  - { offsetInCU: 0x54883, offset: 0x54883, size: 0x8, addend: 0x0, symName: __ZNKSt3__110unique_ptrINS_11__hash_nodeINS_17__hash_value_typeINS_12basic_stringIcNS_11char_traitsIcEENS_9allocatorIcEEEE8RelationEEPvEENS_22__hash_node_destructorINS6_ISC_EEEEEptB8ue170006Ev, symObjAddr: 0x19658, symBinAddr: 0x10001CCB8, symSize: 0x28 }
  - { offsetInCU: 0x548A9, offset: 0x548A9, size: 0x8, addend: 0x0, symName: __ZNKSt3__110unique_ptrINS_11__hash_nodeINS_17__hash_value_typeINS_12basic_stringIcNS_11char_traitsIcEENS_9allocatorIcEEEE8RelationEEPvEENS_22__hash_node_destructorINS6_ISC_EEEEE3getB8ue170006Ev, symObjAddr: 0x19680, symBinAddr: 0x10001CCE0, symSize: 0x28 }
  - { offsetInCU: 0x548CF, offset: 0x548CF, size: 0x8, addend: 0x0, symName: __ZNSt3__110unique_ptrINS_11__hash_nodeINS_17__hash_value_typeINS_12basic_stringIcNS_11char_traitsIcEENS_9allocatorIcEEEE8RelationEEPvEENS_22__hash_node_destructorINS6_ISC_EEEEE7releaseB8ue170006Ev, symObjAddr: 0x196A8, symBinAddr: 0x10001CD08, symSize: 0x44 }
  - { offsetInCU: 0x54904, offset: 0x54904, size: 0x8, addend: 0x0, symName: __ZNSt3__110unique_ptrINS_11__hash_nodeINS_17__hash_value_typeINS_12basic_stringIcNS_11char_traitsIcEENS_9allocatorIcEEEE8RelationEEPvEENS_22__hash_node_destructorINS6_ISC_EEEEED1B8ue170006Ev, symObjAddr: 0x196EC, symBinAddr: 0x10001CD4C, symSize: 0x2C }
  - { offsetInCU: 0x5492E, offset: 0x5492E, size: 0x8, addend: 0x0, symName: __ZNSt3__115__hash_iteratorIPNS_11__hash_nodeINS_17__hash_value_typeINS_12basic_stringIcNS_11char_traitsIcEENS_9allocatorIcEEEE8RelationEEPvEEEC1B8ue170006EPNS_16__hash_node_baseISD_EE, symObjAddr: 0x19718, symBinAddr: 0x10001CD78, symSize: 0x34 }
  - { offsetInCU: 0x5496D, offset: 0x5496D, size: 0x8, addend: 0x0, symName: __ZNSt3__14pairINS_15__hash_iteratorIPNS_11__hash_nodeINS_17__hash_value_typeINS_12basic_stringIcNS_11char_traitsIcEENS_9allocatorIcEEEE8RelationEEPvEEEEbEC1B8ue170006ISF_RbLSC_0EEEOT_OT0_, symObjAddr: 0x1974C, symBinAddr: 0x10001CDAC, symSize: 0x3C }
  - { offsetInCU: 0x549CB, offset: 0x549CB, size: 0x8, addend: 0x0, symName: __ZNSt3__117__compressed_pairImNS_22__unordered_map_hasherINS_12basic_stringIcNS_11char_traitsIcEENS_9allocatorIcEEEENS_17__hash_value_typeIS7_8RelationEENS_4hashIS7_EENS_8equal_toIS7_EELb1EEEE6secondB8ue170006Ev, symObjAddr: 0x19788, symBinAddr: 0x10001CDE8, symSize: 0x24 }
  - { offsetInCU: 0x549F1, offset: 0x549F1, size: 0x8, addend: 0x0, symName: __ZNSt3__122__compressed_pair_elemINS_22__unordered_map_hasherINS_12basic_stringIcNS_11char_traitsIcEENS_9allocatorIcEEEENS_17__hash_value_typeIS7_8RelationEENS_4hashIS7_EENS_8equal_toIS7_EELb1EEELi1ELb1EE5__getB8ue170006Ev, symObjAddr: 0x197AC, symBinAddr: 0x10001CE0C, symSize: 0x14 }
  - { offsetInCU: 0x54A17, offset: 0x54A17, size: 0x8, addend: 0x0, symName: __ZNKSt3__113__string_hashIcNS_9allocatorIcEEEclB8ue170006ERKNS_12basic_stringIcNS_11char_traitsIcEES2_EE, symObjAddr: 0x197C0, symBinAddr: 0x10001CE20, symSize: 0x64 }
  - { offsetInCU: 0x54A4C, offset: 0x54A4C, size: 0x8, addend: 0x0, symName: __ZNKSt3__121__murmur2_or_cityhashImLm64EEclB8ue170006EPKvm, symObjAddr: 0x19860, symBinAddr: 0x10001CEC0, symSize: 0x410 }
  - { offsetInCU: 0x54AE6, offset: 0x54AE6, size: 0x8, addend: 0x0, symName: __ZNSt3__121__murmur2_or_cityhashImLm64EE18__hash_len_0_to_16B8ue170006EPKcm, symObjAddr: 0x19C70, symBinAddr: 0x10001D2D0, symSize: 0x1C0 }
  - { offsetInCU: 0x54BBF, offset: 0x54BBF, size: 0x8, addend: 0x0, symName: __ZNSt3__121__murmur2_or_cityhashImLm64EE19__hash_len_17_to_32B8ue170006EPKcm, symObjAddr: 0x19E30, symBinAddr: 0x10001D490, symSize: 0x130 }
  - { offsetInCU: 0x54C28, offset: 0x54C28, size: 0x8, addend: 0x0, symName: __ZNSt3__121__murmur2_or_cityhashImLm64EE19__hash_len_33_to_64B8ue170006EPKcm, symObjAddr: 0x19F60, symBinAddr: 0x10001D5C0, symSize: 0x2B8 }
  - { offsetInCU: 0x54CDD, offset: 0x54CDD, size: 0x8, addend: 0x0, symName: __ZNSt3__121__murmur2_or_cityhashImLm64EE13__hash_len_16B8ue170006Emm, symObjAddr: 0x1A238, symBinAddr: 0x10001D898, symSize: 0x80 }
  - { offsetInCU: 0x54D38, offset: 0x54D38, size: 0x8, addend: 0x0, symName: __ZNSt3__121__murmur2_or_cityhashImLm64EE29__weak_hash_len_32_with_seedsB8ue170006EPKcmm, symObjAddr: 0x1A2B8, symBinAddr: 0x10001D918, symSize: 0x88 }
  - { offsetInCU: 0x54D77, offset: 0x54D77, size: 0x8, addend: 0x0, symName: __ZNSt3__121__murmur2_or_cityhashImLm64EE8__rotateB8ue170006Emi, symObjAddr: 0x1A340, symBinAddr: 0x10001D9A0, symSize: 0x64 }
  - { offsetInCU: 0x54DA8, offset: 0x54DA8, size: 0x8, addend: 0x0, symName: __ZNSt3__14pairImmEaSB8ue170006EOS1_, symObjAddr: 0x1A3A4, symBinAddr: 0x10001DA04, symSize: 0x30 }
  - { offsetInCU: 0x54DDD, offset: 0x54DDD, size: 0x8, addend: 0x0, symName: __ZNSt3__121__murmur2_or_cityhashImLm64EE11__shift_mixB8ue170006Em, symObjAddr: 0x1A410, symBinAddr: 0x10001DA70, symSize: 0x1C }
  - { offsetInCU: 0x54E00, offset: 0x54E00, size: 0x8, addend: 0x0, symName: __ZNSt3__121__murmur2_or_cityhashImLm64EE22__rotate_by_at_least_1B8ue170006Emi, symObjAddr: 0x1A42C, symBinAddr: 0x10001DA8C, symSize: 0x38 }
  - { offsetInCU: 0x54E31, offset: 0x54E31, size: 0x8, addend: 0x0, symName: __ZNSt3__121__murmur2_or_cityhashImLm64EE29__weak_hash_len_32_with_seedsB8ue170006Emmmmmm, symObjAddr: 0x1A484, symBinAddr: 0x10001DAE4, symSize: 0xD8 }
  - { offsetInCU: 0x54EAE, offset: 0x54EAE, size: 0x8, addend: 0x0, symName: __ZNSt3__14pairImmEC1B8ue170006ImmLPv0EEEOT_OT0_, symObjAddr: 0x1A55C, symBinAddr: 0x10001DBBC, symSize: 0x3C }
  - { offsetInCU: 0x54F0C, offset: 0x54F0C, size: 0x8, addend: 0x0, symName: __ZNSt3__14pairImmEC2B8ue170006ImmLPv0EEEOT_OT0_, symObjAddr: 0x1A598, symBinAddr: 0x10001DBF8, symSize: 0x34 }
  - { offsetInCU: 0x54F6A, offset: 0x54F6A, size: 0x8, addend: 0x0, symName: __ZNSt3__117__compressed_pairIfNS_21__unordered_map_equalINS_12basic_stringIcNS_11char_traitsIcEENS_9allocatorIcEEEENS_17__hash_value_typeIS7_8RelationEENS_8equal_toIS7_EENS_4hashIS7_EELb1EEEE6secondB8ue170006Ev, symObjAddr: 0x1A5CC, symBinAddr: 0x10001DC2C, symSize: 0x24 }
  - { offsetInCU: 0x54F90, offset: 0x54F90, size: 0x8, addend: 0x0, symName: __ZNSt3__122__compressed_pair_elemINS_21__unordered_map_equalINS_12basic_stringIcNS_11char_traitsIcEENS_9allocatorIcEEEENS_17__hash_value_typeIS7_8RelationEENS_8equal_toIS7_EENS_4hashIS7_EELb1EEELi1ELb1EE5__getB8ue170006Ev, symObjAddr: 0x1A5F0, symBinAddr: 0x10001DC50, symSize: 0x14 }
  - { offsetInCU: 0x54FB6, offset: 0x54FB6, size: 0x8, addend: 0x0, symName: __ZNKSt3__18equal_toINS_12basic_stringIcNS_11char_traitsIcEENS_9allocatorIcEEEEEclB8ue170006ERKS6_S9_, symObjAddr: 0x1A604, symBinAddr: 0x10001DC64, symSize: 0x34 }
  - { offsetInCU: 0x54FFA, offset: 0x54FFA, size: 0x8, addend: 0x0, symName: __ZNKSt3__117__hash_value_typeINS_12basic_stringIcNS_11char_traitsIcEENS_9allocatorIcEEEE8RelationE11__get_valueB8ue170006Ev, symObjAddr: 0x1A638, symBinAddr: 0x10001DC98, symSize: 0x24 }
  - { offsetInCU: 0x55020, offset: 0x55020, size: 0x8, addend: 0x0, symName: __ZNSt3__112__hash_tableINS_17__hash_value_typeINS_12basic_stringIcNS_11char_traitsIcEENS_9allocatorIcEEEE8RelationEENS_22__unordered_map_hasherIS7_S9_NS_4hashIS7_EENS_8equal_toIS7_EELb1EEENS_21__unordered_map_equalIS7_S9_SE_SC_Lb1EEENS5_IS9_EEE12__node_allocB8ue170006Ev, symObjAddr: 0x1A7DC, symBinAddr: 0x10001DE3C, symSize: 0x28 }
  - { offsetInCU: 0x55046, offset: 0x55046, size: 0x8, addend: 0x0, symName: __ZNSt3__116allocator_traitsINS_9allocatorINS_11__hash_nodeINS_17__hash_value_typeINS_12basic_stringIcNS_11char_traitsIcEENS1_IcEEEE8RelationEEPvEEEEE8allocateB8ue170006ERSD_m, symObjAddr: 0x1A804, symBinAddr: 0x10001DE64, symSize: 0x2C }
  - { offsetInCU: 0x55079, offset: 0x55079, size: 0x8, addend: 0x0, symName: __ZNSt3__122__hash_node_destructorINS_9allocatorINS_11__hash_nodeINS_17__hash_value_typeINS_12basic_stringIcNS_11char_traitsIcEENS1_IcEEEE8RelationEEPvEEEEEC1B8ue170006ERSD_b, symObjAddr: 0x1A830, symBinAddr: 0x10001DE90, symSize: 0x48 }
  - { offsetInCU: 0x550C7, offset: 0x550C7, size: 0x8, addend: 0x0, symName: __ZNSt3__110unique_ptrINS_11__hash_nodeINS_17__hash_value_typeINS_12basic_stringIcNS_11char_traitsIcEENS_9allocatorIcEEEE8RelationEEPvEENS_22__hash_node_destructorINS6_ISC_EEEEEC1B8ue170006ILb1EvEEPSC_NS_16__dependent_typeINS_27__unique_ptr_deleter_sfinaeISF_EEXT_EE20__good_rval_ref_typeE, symObjAddr: 0x1A878, symBinAddr: 0x10001DED8, symSize: 0x3C }
  - { offsetInCU: 0x55118, offset: 0x55118, size: 0x8, addend: 0x0, symName: __ZNSt3__116allocator_traitsINS_9allocatorINS_11__hash_nodeINS_17__hash_value_typeINS_12basic_stringIcNS_11char_traitsIcEENS1_IcEEEE8RelationEEPvEEEEE9constructB8ue170006INS_4pairIKS8_S9_EEJRKSI_EvEEvRSD_PT_DpOT0_, symObjAddr: 0x1A8B4, symBinAddr: 0x10001DF14, symSize: 0x34 }
  - { offsetInCU: 0x5516F, offset: 0x5516F, size: 0x8, addend: 0x0, symName: __ZNSt3__122__hash_key_value_typesINS_17__hash_value_typeINS_12basic_stringIcNS_11char_traitsIcEENS_9allocatorIcEEEE8RelationEEE9__get_ptrB8ue170006ERS9_, symObjAddr: 0x1A8E8, symBinAddr: 0x10001DF48, symSize: 0x24 }
  - { offsetInCU: 0x55192, offset: 0x55192, size: 0x8, addend: 0x0, symName: __ZNSt3__110unique_ptrINS_11__hash_nodeINS_17__hash_value_typeINS_12basic_stringIcNS_11char_traitsIcEENS_9allocatorIcEEEE8RelationEEPvEENS_22__hash_node_destructorINS6_ISC_EEEEE11get_deleterB8ue170006Ev, symObjAddr: 0x1A90C, symBinAddr: 0x10001DF6C, symSize: 0x24 }
  - { offsetInCU: 0x551B8, offset: 0x551B8, size: 0x8, addend: 0x0, symName: __ZNSt3__117__compressed_pairINS_16__hash_node_baseIPNS_11__hash_nodeINS_17__hash_value_typeINS_12basic_stringIcNS_11char_traitsIcEENS_9allocatorIcEEEE8RelationEEPvEEEENS7_ISD_EEE6secondB8ue170006Ev, symObjAddr: 0x1A930, symBinAddr: 0x10001DF90, symSize: 0x24 }
  - { offsetInCU: 0x551DE, offset: 0x551DE, size: 0x8, addend: 0x0, symName: __ZNSt3__122__compressed_pair_elemINS_9allocatorINS_11__hash_nodeINS_17__hash_value_typeINS_12basic_stringIcNS_11char_traitsIcEENS1_IcEEEE8RelationEEPvEEEELi1ELb1EE5__getB8ue170006Ev, symObjAddr: 0x1A954, symBinAddr: 0x10001DFB4, symSize: 0x14 }
  - { offsetInCU: 0x55204, offset: 0x55204, size: 0x8, addend: 0x0, symName: __ZNSt3__19allocatorINS_11__hash_nodeINS_17__hash_value_typeINS_12basic_stringIcNS_11char_traitsIcEENS0_IcEEEE8RelationEEPvEEE8allocateB8ue170006Em, symObjAddr: 0x1A968, symBinAddr: 0x10001DFC8, symSize: 0x5C }
  - { offsetInCU: 0x55238, offset: 0x55238, size: 0x8, addend: 0x0, symName: __ZNSt3__116allocator_traitsINS_9allocatorINS_11__hash_nodeINS_17__hash_value_typeINS_12basic_stringIcNS_11char_traitsIcEENS1_IcEEEE8RelationEEPvEEEEE8max_sizeB8ue170006ISD_vEEmRKSD_, symObjAddr: 0x1A9C4, symBinAddr: 0x10001E024, symSize: 0x24 }
  - { offsetInCU: 0x55266, offset: 0x55266, size: 0x8, addend: 0x0, symName: __ZNKSt3__19allocatorINS_11__hash_nodeINS_17__hash_value_typeINS_12basic_stringIcNS_11char_traitsIcEENS0_IcEEEE8RelationEEPvEEE8max_sizeB8ue170006Ev, symObjAddr: 0x1A9E8, symBinAddr: 0x10001E048, symSize: 0x20 }
  - { offsetInCU: 0x5528C, offset: 0x5528C, size: 0x8, addend: 0x0, symName: __ZNSt3__122__hash_node_destructorINS_9allocatorINS_11__hash_nodeINS_17__hash_value_typeINS_12basic_stringIcNS_11char_traitsIcEENS1_IcEEEE8RelationEEPvEEEEEC2B8ue170006ERSD_b, symObjAddr: 0x1AA08, symBinAddr: 0x10001E068, symSize: 0x38 }
  - { offsetInCU: 0x552D4, offset: 0x552D4, size: 0x8, addend: 0x0, symName: __ZNSt3__110unique_ptrINS_11__hash_nodeINS_17__hash_value_typeINS_12basic_stringIcNS_11char_traitsIcEENS_9allocatorIcEEEE8RelationEEPvEENS_22__hash_node_destructorINS6_ISC_EEEEEC2B8ue170006ILb1EvEEPSC_NS_16__dependent_typeINS_27__unique_ptr_deleter_sfinaeISF_EEXT_EE20__good_rval_ref_typeE, symObjAddr: 0x1AA40, symBinAddr: 0x10001E0A0, symSize: 0x48 }
  - { offsetInCU: 0x55325, offset: 0x55325, size: 0x8, addend: 0x0, symName: __ZNSt3__117__compressed_pairIPNS_11__hash_nodeINS_17__hash_value_typeINS_12basic_stringIcNS_11char_traitsIcEENS_9allocatorIcEEEE8RelationEEPvEENS_22__hash_node_destructorINS6_ISC_EEEEEC1B8ue170006IRSD_SG_EEOT_OT0_, symObjAddr: 0x1AA88, symBinAddr: 0x10001E0E8, symSize: 0x3C }
  - { offsetInCU: 0x5537D, offset: 0x5537D, size: 0x8, addend: 0x0, symName: __ZNSt3__117__compressed_pairIPNS_11__hash_nodeINS_17__hash_value_typeINS_12basic_stringIcNS_11char_traitsIcEENS_9allocatorIcEEEE8RelationEEPvEENS_22__hash_node_destructorINS6_ISC_EEEEEC2B8ue170006IRSD_SG_EEOT_OT0_, symObjAddr: 0x1AAC4, symBinAddr: 0x10001E124, symSize: 0x48 }
  - { offsetInCU: 0x553D5, offset: 0x553D5, size: 0x8, addend: 0x0, symName: __ZNSt3__122__compressed_pair_elemIPNS_11__hash_nodeINS_17__hash_value_typeINS_12basic_stringIcNS_11char_traitsIcEENS_9allocatorIcEEEE8RelationEEPvEELi0ELb0EEC2B8ue170006IRSD_vEEOT_, symObjAddr: 0x1AB0C, symBinAddr: 0x10001E16C, symSize: 0x24 }
  - { offsetInCU: 0x55417, offset: 0x55417, size: 0x8, addend: 0x0, symName: __ZNSt3__122__compressed_pair_elemINS_22__hash_node_destructorINS_9allocatorINS_11__hash_nodeINS_17__hash_value_typeINS_12basic_stringIcNS_11char_traitsIcEENS2_IcEEEE8RelationEEPvEEEEEELi1ELb0EEC2B8ue170006ISF_vEEOT_, symObjAddr: 0x1AB30, symBinAddr: 0x10001E190, symSize: 0x24 }
  - { offsetInCU: 0x55459, offset: 0x55459, size: 0x8, addend: 0x0, symName: __ZNSt3__19allocatorINS_11__hash_nodeINS_17__hash_value_typeINS_12basic_stringIcNS_11char_traitsIcEENS0_IcEEEE8RelationEEPvEEE9constructB8ue170006INS_4pairIKS7_S8_EEJRKSG_EEEvPT_DpOT0_, symObjAddr: 0x1AB54, symBinAddr: 0x10001E1B4, symSize: 0x30 }
  - { offsetInCU: 0x554AF, offset: 0x554AF, size: 0x8, addend: 0x0, symName: __ZNSt3__14pairIKNS_12basic_stringIcNS_11char_traitsIcEENS_9allocatorIcEEEE8RelationEC1B8ue170006ERKS9_, symObjAddr: 0x1AB84, symBinAddr: 0x10001E1E4, symSize: 0x34 }
  - { offsetInCU: 0x554E3, offset: 0x554E3, size: 0x8, addend: 0x0, symName: __ZNSt3__14pairIKNS_12basic_stringIcNS_11char_traitsIcEENS_9allocatorIcEEEE8RelationEC2B8ue170006ERKS9_, symObjAddr: 0x1ABB8, symBinAddr: 0x10001E218, symSize: 0x70 }
  - { offsetInCU: 0x55517, offset: 0x55517, size: 0x8, addend: 0x0, symName: __ZN8RelationC1ERKS_, symObjAddr: 0x1AC28, symBinAddr: 0x10001E288, symSize: 0x34 }
  - { offsetInCU: 0x5554C, offset: 0x5554C, size: 0x8, addend: 0x0, symName: __ZN8RelationC2ERKS_, symObjAddr: 0x1AC5C, symBinAddr: 0x10001E2BC, symSize: 0xA8 }
  - { offsetInCU: 0x55581, offset: 0x55581, size: 0x8, addend: 0x0, symName: __ZNSt3__13setI5TupleNS_4lessIS1_EENS_9allocatorIS1_EEEC1B8ue170006ERKS6_, symObjAddr: 0x1AD04, symBinAddr: 0x10001E364, symSize: 0x34 }
  - { offsetInCU: 0x555BA, offset: 0x555BA, size: 0x8, addend: 0x0, symName: __ZN6SchemeC1ERKS_, symObjAddr: 0x1AD38, symBinAddr: 0x10001E398, symSize: 0x34 }
  - { offsetInCU: 0x555EF, offset: 0x555EF, size: 0x8, addend: 0x0, symName: __ZNSt3__13setI5TupleNS_4lessIS1_EENS_9allocatorIS1_EEED1B8ue170006Ev, symObjAddr: 0x1AD6C, symBinAddr: 0x10001E3CC, symSize: 0x2C }
  - { offsetInCU: 0x55619, offset: 0x55619, size: 0x8, addend: 0x0, symName: __ZNSt3__13setI5TupleNS_4lessIS1_EENS_9allocatorIS1_EEEC2B8ue170006ERKS6_, symObjAddr: 0x1AD98, symBinAddr: 0x10001E3F8, symSize: 0x88 }
  - { offsetInCU: 0x55652, offset: 0x55652, size: 0x8, addend: 0x0, symName: __ZNSt3__16__treeI5TupleNS_4lessIS1_EENS_9allocatorIS1_EEEC1ERKS6_, symObjAddr: 0x1AE20, symBinAddr: 0x10001E480, symSize: 0x34 }
  - { offsetInCU: 0x5568D, offset: 0x5568D, size: 0x8, addend: 0x0, symName: __ZNSt3__13setI5TupleNS_4lessIS1_EENS_9allocatorIS1_EEE6insertB8ue170006INS_21__tree_const_iteratorIS1_PNS_11__tree_nodeIS1_PvEElEEEEvT_SE_, symObjAddr: 0x1AE54, symBinAddr: 0x10001E4B4, symSize: 0x80 }
  - { offsetInCU: 0x556F7, offset: 0x556F7, size: 0x8, addend: 0x0, symName: __ZNKSt3__13setI5TupleNS_4lessIS1_EENS_9allocatorIS1_EEE5beginB8ue170006Ev, symObjAddr: 0x1AED4, symBinAddr: 0x10001E534, symSize: 0x2C }
  - { offsetInCU: 0x5571D, offset: 0x5571D, size: 0x8, addend: 0x0, symName: __ZNKSt3__13setI5TupleNS_4lessIS1_EENS_9allocatorIS1_EEE3endB8ue170006Ev, symObjAddr: 0x1AF00, symBinAddr: 0x10001E560, symSize: 0x2C }
  - { offsetInCU: 0x55743, offset: 0x55743, size: 0x8, addend: 0x0, symName: __ZNSt3__16__treeI5TupleNS_4lessIS1_EENS_9allocatorIS1_EEED1Ev, symObjAddr: 0x1AF2C, symBinAddr: 0x10001E58C, symSize: 0x2C }
  - { offsetInCU: 0x5576F, offset: 0x5576F, size: 0x8, addend: 0x0, symName: __ZNSt3__16__treeI5TupleNS_4lessIS1_EENS_9allocatorIS1_EEEC2ERKS6_, symObjAddr: 0x1AF58, symBinAddr: 0x10001E5B8, symSize: 0x9C }
  - { offsetInCU: 0x557B5, offset: 0x557B5, size: 0x8, addend: 0x0, symName: __ZNSt3__116allocator_traitsINS_9allocatorINS_11__tree_nodeI5TuplePvEEEEE37select_on_container_copy_constructionB8ue170006IS6_vvEES6_RKS6_, symObjAddr: 0x1AFF4, symBinAddr: 0x10001E654, symSize: 0x10 }
  - { offsetInCU: 0x557E4, offset: 0x557E4, size: 0x8, addend: 0x0, symName: __ZNKSt3__16__treeI5TupleNS_4lessIS1_EENS_9allocatorIS1_EEE12__node_allocB8ue170006Ev, symObjAddr: 0x1B004, symBinAddr: 0x10001E664, symSize: 0x28 }
  - { offsetInCU: 0x55810, offset: 0x55810, size: 0x8, addend: 0x0, symName: __ZNSt3__117__compressed_pairINS_15__tree_end_nodeIPNS_16__tree_node_baseIPvEEEENS_9allocatorINS_11__tree_nodeI5TupleS3_EEEEEC1B8ue170006INS_18__default_init_tagESB_EEOT_OT0_, symObjAddr: 0x1B02C, symBinAddr: 0x10001E68C, symSize: 0x3C }
  - { offsetInCU: 0x55868, offset: 0x55868, size: 0x8, addend: 0x0, symName: __ZNKSt3__16__treeI5TupleNS_4lessIS1_EENS_9allocatorIS1_EEE10value_compB8ue170006Ev, symObjAddr: 0x1B068, symBinAddr: 0x10001E6C8, symSize: 0x28 }
  - { offsetInCU: 0x5588E, offset: 0x5588E, size: 0x8, addend: 0x0, symName: __ZNSt3__117__compressed_pairImNS_4lessI5TupleEEEC1B8ue170006IiRKS3_EEOT_OT0_, symObjAddr: 0x1B090, symBinAddr: 0x10001E6F0, symSize: 0x3C }
  - { offsetInCU: 0x558E6, offset: 0x558E6, size: 0x8, addend: 0x0, symName: __ZNSt3__16__treeI5TupleNS_4lessIS1_EENS_9allocatorIS1_EEE10__end_nodeB8ue170006Ev, symObjAddr: 0x1B0CC, symBinAddr: 0x10001E72C, symSize: 0x2C }
  - { offsetInCU: 0x5590C, offset: 0x5590C, size: 0x8, addend: 0x0, symName: __ZNSt3__16__treeI5TupleNS_4lessIS1_EENS_9allocatorIS1_EEE12__begin_nodeB8ue170006Ev, symObjAddr: 0x1B0F8, symBinAddr: 0x10001E758, symSize: 0x14 }
  - { offsetInCU: 0x55932, offset: 0x55932, size: 0x8, addend: 0x0, symName: __ZNKSt3__117__compressed_pairINS_15__tree_end_nodeIPNS_16__tree_node_baseIPvEEEENS_9allocatorINS_11__tree_nodeI5TupleS3_EEEEE6secondB8ue170006Ev, symObjAddr: 0x1B10C, symBinAddr: 0x10001E76C, symSize: 0x24 }
  - { offsetInCU: 0x55958, offset: 0x55958, size: 0x8, addend: 0x0, symName: __ZNKSt3__122__compressed_pair_elemINS_9allocatorINS_11__tree_nodeI5TuplePvEEEELi1ELb1EE5__getB8ue170006Ev, symObjAddr: 0x1B130, symBinAddr: 0x10001E790, symSize: 0x14 }
  - { offsetInCU: 0x5597E, offset: 0x5597E, size: 0x8, addend: 0x0, symName: __ZNSt3__117__compressed_pairINS_15__tree_end_nodeIPNS_16__tree_node_baseIPvEEEENS_9allocatorINS_11__tree_nodeI5TupleS3_EEEEEC2B8ue170006INS_18__default_init_tagESB_EEOT_OT0_, symObjAddr: 0x1B144, symBinAddr: 0x10001E7A4, symSize: 0x40 }
  - { offsetInCU: 0x559D6, offset: 0x559D6, size: 0x8, addend: 0x0, symName: __ZNSt3__122__compressed_pair_elemINS_9allocatorINS_11__tree_nodeI5TuplePvEEEELi1ELb1EEC2B8ue170006IS6_vEEOT_, symObjAddr: 0x1B184, symBinAddr: 0x10001E7E4, symSize: 0x18 }
  - { offsetInCU: 0x55A18, offset: 0x55A18, size: 0x8, addend: 0x0, symName: __ZNKSt3__117__compressed_pairImNS_4lessI5TupleEEE6secondB8ue170006Ev, symObjAddr: 0x1B19C, symBinAddr: 0x10001E7FC, symSize: 0x24 }
  - { offsetInCU: 0x55A3E, offset: 0x55A3E, size: 0x8, addend: 0x0, symName: __ZNKSt3__122__compressed_pair_elemINS_4lessI5TupleEELi1ELb1EE5__getB8ue170006Ev, symObjAddr: 0x1B1C0, symBinAddr: 0x10001E820, symSize: 0x14 }
  - { offsetInCU: 0x55A64, offset: 0x55A64, size: 0x8, addend: 0x0, symName: __ZNSt3__117__compressed_pairImNS_4lessI5TupleEEEC2B8ue170006IiRKS3_EEOT_OT0_, symObjAddr: 0x1B1D4, symBinAddr: 0x10001E834, symSize: 0x44 }
  - { offsetInCU: 0x55ABC, offset: 0x55ABC, size: 0x8, addend: 0x0, symName: __ZNSt3__122__compressed_pair_elemINS_4lessI5TupleEELi1ELb1EEC2B8ue170006IRKS3_vEEOT_, symObjAddr: 0x1B218, symBinAddr: 0x10001E878, symSize: 0x18 }
  - { offsetInCU: 0x55AFE, offset: 0x55AFE, size: 0x8, addend: 0x0, symName: __ZNSt3__117__compressed_pairINS_15__tree_end_nodeIPNS_16__tree_node_baseIPvEEEENS_9allocatorINS_11__tree_nodeI5TupleS3_EEEEE5firstB8ue170006Ev, symObjAddr: 0x1B230, symBinAddr: 0x10001E890, symSize: 0x24 }
  - { offsetInCU: 0x55B24, offset: 0x55B24, size: 0x8, addend: 0x0, symName: __ZNKSt3__13setI5TupleNS_4lessIS1_EENS_9allocatorIS1_EEE4cendB8ue170006Ev, symObjAddr: 0x1B254, symBinAddr: 0x10001E8B4, symSize: 0x2C }
  - { offsetInCU: 0x55B4A, offset: 0x55B4A, size: 0x8, addend: 0x0, symName: __ZNSt3__16__treeI5TupleNS_4lessIS1_EENS_9allocatorIS1_EEE15__insert_uniqueB8ue170006ENS_21__tree_const_iteratorIS1_PNS_11__tree_nodeIS1_PvEElEERKS1_, symObjAddr: 0x1B2B4, symBinAddr: 0x10001E914, symSize: 0x64 }
  - { offsetInCU: 0x55B8E, offset: 0x55B8E, size: 0x8, addend: 0x0, symName: __ZNKSt3__121__tree_const_iteratorI5TuplePNS_11__tree_nodeIS1_PvEElEdeB8ue170006Ev, symObjAddr: 0x1B318, symBinAddr: 0x10001E978, symSize: 0x28 }
  - { offsetInCU: 0x55BB4, offset: 0x55BB4, size: 0x8, addend: 0x0, symName: __ZNSt3__121__tree_const_iteratorI5TuplePNS_11__tree_nodeIS1_PvEElEppB8ue170006Ev, symObjAddr: 0x1B340, symBinAddr: 0x10001E9A0, symSize: 0x38 }
  - { offsetInCU: 0x55BDA, offset: 0x55BDA, size: 0x8, addend: 0x0, symName: __ZNSt3__16__treeI5TupleNS_4lessIS1_EENS_9allocatorIS1_EEE30__emplace_hint_unique_key_argsIS1_JRKS1_EEENS_4pairINS_15__tree_iteratorIS1_PNS_11__tree_nodeIS1_PvEElEEbEENS_21__tree_const_iteratorIS1_SF_lEERKT_DpOT0_, symObjAddr: 0x1B3A8, symBinAddr: 0x10001EA08, symSize: 0x104 }
  - { offsetInCU: 0x55CA6, offset: 0x55CA6, size: 0x8, addend: 0x0, symName: __ZNSt3__122__tree_key_value_typesI5TupleE9__get_keyB8ue170006ERKS1_, symObjAddr: 0x1B4AC, symBinAddr: 0x10001EB0C, symSize: 0x14 }
  - { offsetInCU: 0x55CCA, offset: 0x55CCA, size: 0x8, addend: 0x0, symName: __ZNSt3__16__treeI5TupleNS_4lessIS1_EENS_9allocatorIS1_EEE12__find_equalIS1_EERPNS_16__tree_node_baseIPvEENS_21__tree_const_iteratorIS1_PNS_11__tree_nodeIS1_S9_EElEERPNS_15__tree_end_nodeISB_EESC_RKT_, symObjAddr: 0x1B4C0, symBinAddr: 0x10001EB20, symSize: 0x304 }
  - { offsetInCU: 0x55D73, offset: 0x55D73, size: 0x8, addend: 0x0, symName: __ZNSt3__16__treeI5TupleNS_4lessIS1_EENS_9allocatorIS1_EEE16__construct_nodeIJRKS1_EEENS_10unique_ptrINS_11__tree_nodeIS1_PvEENS_22__tree_node_destructorINS4_ISD_EEEEEEDpOT_, symObjAddr: 0x1B7C4, symBinAddr: 0x10001EE24, symSize: 0x110 }
  - { offsetInCU: 0x55DD4, offset: 0x55DD4, size: 0x8, addend: 0x0, symName: __ZNSt3__16__treeI5TupleNS_4lessIS1_EENS_9allocatorIS1_EEE16__insert_node_atEPNS_15__tree_end_nodeIPNS_16__tree_node_baseIPvEEEERSB_SB_, symObjAddr: 0x1B8D4, symBinAddr: 0x10001EF34, symSize: 0xCC }
  - { offsetInCU: 0x55E29, offset: 0x55E29, size: 0x8, addend: 0x0, symName: __ZNKSt3__110unique_ptrINS_11__tree_nodeI5TuplePvEENS_22__tree_node_destructorINS_9allocatorIS4_EEEEE3getB8ue170006Ev, symObjAddr: 0x1B9A0, symBinAddr: 0x10001F000, symSize: 0x28 }
  - { offsetInCU: 0x55E4F, offset: 0x55E4F, size: 0x8, addend: 0x0, symName: __ZNSt3__110unique_ptrINS_11__tree_nodeI5TuplePvEENS_22__tree_node_destructorINS_9allocatorIS4_EEEEE7releaseB8ue170006Ev, symObjAddr: 0x1B9C8, symBinAddr: 0x10001F028, symSize: 0x44 }
  - { offsetInCU: 0x55E84, offset: 0x55E84, size: 0x8, addend: 0x0, symName: __ZNSt3__110unique_ptrINS_11__tree_nodeI5TuplePvEENS_22__tree_node_destructorINS_9allocatorIS4_EEEEED1B8ue170006Ev, symObjAddr: 0x1BA0C, symBinAddr: 0x10001F06C, symSize: 0x2C }
  - { offsetInCU: 0x55EAE, offset: 0x55EAE, size: 0x8, addend: 0x0, symName: __ZNSt3__115__tree_iteratorI5TuplePNS_11__tree_nodeIS1_PvEElEC1B8ue170006ES5_, symObjAddr: 0x1BA38, symBinAddr: 0x10001F098, symSize: 0x34 }
  - { offsetInCU: 0x55EED, offset: 0x55EED, size: 0x8, addend: 0x0, symName: __ZNSt3__14pairINS_15__tree_iteratorI5TuplePNS_11__tree_nodeIS2_PvEElEEbEC1B8ue170006IS7_RbLS4_0EEEOT_OT0_, symObjAddr: 0x1BA6C, symBinAddr: 0x10001F0CC, symSize: 0x3C }
  - { offsetInCU: 0x55F4B, offset: 0x55F4B, size: 0x8, addend: 0x0, symName: __ZNSt3__16__treeI5TupleNS_4lessIS1_EENS_9allocatorIS1_EEE3endB8ue170006Ev, symObjAddr: 0x1BAA8, symBinAddr: 0x10001F108, symSize: 0x34 }
  - { offsetInCU: 0x55F71, offset: 0x55F71, size: 0x8, addend: 0x0, symName: __ZNSt3__121__tree_const_iteratorI5TuplePNS_11__tree_nodeIS1_PvEElEC1B8ue170006ENS_15__tree_iteratorIS1_S5_lEE, symObjAddr: 0x1BADC, symBinAddr: 0x10001F13C, symSize: 0x34 }
  - { offsetInCU: 0x55FAA, offset: 0x55FAA, size: 0x8, addend: 0x0, symName: __ZNSt3__16__treeI5TupleNS_4lessIS1_EENS_9allocatorIS1_EEE10value_compB8ue170006Ev, symObjAddr: 0x1BB10, symBinAddr: 0x10001F170, symSize: 0x28 }
  - { offsetInCU: 0x55FD0, offset: 0x55FD0, size: 0x8, addend: 0x0, symName: __ZNKSt3__14lessI5TupleEclB8ue170006ERKS1_S4_, symObjAddr: 0x1BB38, symBinAddr: 0x10001F198, symSize: 0x34 }
  - { offsetInCU: 0x56014, offset: 0x56014, size: 0x8, addend: 0x0, symName: __ZNSt3__16__treeI5TupleNS_4lessIS1_EENS_9allocatorIS1_EEE5beginB8ue170006Ev, symObjAddr: 0x1BB6C, symBinAddr: 0x10001F1CC, symSize: 0x34 }
  - { offsetInCU: 0x5603A, offset: 0x5603A, size: 0x8, addend: 0x0, symName: __ZNSt3__121__tree_const_iteratorI5TuplePNS_11__tree_nodeIS1_PvEElEmmB8ue170006Ev, symObjAddr: 0x1BBA0, symBinAddr: 0x10001F200, symSize: 0x38 }
  - { offsetInCU: 0x56060, offset: 0x56060, size: 0x8, addend: 0x0, symName: __ZNSt3__16__treeI5TupleNS_4lessIS1_EENS_9allocatorIS1_EEE12__find_equalIS1_EERPNS_16__tree_node_baseIPvEERPNS_15__tree_end_nodeISB_EERKT_, symObjAddr: 0x1BBD8, symBinAddr: 0x10001F238, symSize: 0x184 }
  - { offsetInCU: 0x560CD, offset: 0x560CD, size: 0x8, addend: 0x0, symName: __ZNKSt3__121__tree_const_iteratorI5TuplePNS_11__tree_nodeIS1_PvEElE8__get_npB8ue170006Ev, symObjAddr: 0x1BD98, symBinAddr: 0x10001F3F8, symSize: 0x18 }
  - { offsetInCU: 0x560F3, offset: 0x560F3, size: 0x8, addend: 0x0, symName: __ZNSt3__115__tree_iteratorI5TuplePNS_11__tree_nodeIS1_PvEElEC1B8ue170006EPNS_15__tree_end_nodeIPNS_16__tree_node_baseIS3_EEEE, symObjAddr: 0x1BDB0, symBinAddr: 0x10001F410, symSize: 0x34 }
  - { offsetInCU: 0x5612C, offset: 0x5612C, size: 0x8, addend: 0x0, symName: __ZNSt3__115__tree_iteratorI5TuplePNS_11__tree_nodeIS1_PvEElEC2B8ue170006EPNS_15__tree_end_nodeIPNS_16__tree_node_baseIS3_EEEE, symObjAddr: 0x1BDE4, symBinAddr: 0x10001F444, symSize: 0x20 }
  - { offsetInCU: 0x56165, offset: 0x56165, size: 0x8, addend: 0x0, symName: __ZNSt3__121__tree_const_iteratorI5TuplePNS_11__tree_nodeIS1_PvEElEC2B8ue170006ENS_15__tree_iteratorIS1_S5_lEE, symObjAddr: 0x1BE04, symBinAddr: 0x10001F464, symSize: 0x20 }
  - { offsetInCU: 0x5619E, offset: 0x5619E, size: 0x8, addend: 0x0, symName: __ZNSt3__117__compressed_pairImNS_4lessI5TupleEEE6secondB8ue170006Ev, symObjAddr: 0x1BE24, symBinAddr: 0x10001F484, symSize: 0x24 }
  - { offsetInCU: 0x561C4, offset: 0x561C4, size: 0x8, addend: 0x0, symName: __ZNSt3__122__compressed_pair_elemINS_4lessI5TupleEELi1ELb1EE5__getB8ue170006Ev, symObjAddr: 0x1BE48, symBinAddr: 0x10001F4A8, symSize: 0x14 }
  - { offsetInCU: 0x561EA, offset: 0x561EA, size: 0x8, addend: 0x0, symName: __ZNK5TupleltERKS_, symObjAddr: 0x1BE5C, symBinAddr: 0x10001F4BC, symSize: 0x30 }
  - { offsetInCU: 0x5621E, offset: 0x5621E, size: 0x8, addend: 0x0, symName: __ZNKSt3__16vectorINS_12basic_stringIcNS_11char_traitsIcEENS_9allocatorIcEEEENS4_IS6_EEE5beginB8ue170006Ev, symObjAddr: 0x1BF54, symBinAddr: 0x10001F5B4, symSize: 0x30 }
  - { offsetInCU: 0x56246, offset: 0x56246, size: 0x8, addend: 0x0, symName: __ZNKSt3__16vectorINS_12basic_stringIcNS_11char_traitsIcEENS_9allocatorIcEEEENS4_IS6_EEE3endB8ue170006Ev, symObjAddr: 0x1BF84, symBinAddr: 0x10001F5E4, symSize: 0x30 }
  - { offsetInCU: 0x5626E, offset: 0x5626E, size: 0x8, addend: 0x0, symName: __ZNKSt3__16__lessIvvEclB8ue170006INS_12basic_stringIcNS_11char_traitsIcEENS_9allocatorIcEEEES8_EEbRKT_RKT0_, symObjAddr: 0x1C1B0, symBinAddr: 0x10001F810, symSize: 0x34 }
  - { offsetInCU: 0x562C2, offset: 0x562C2, size: 0x8, addend: 0x0, symName: __ZNKSt3__111__wrap_iterIPKNS_12basic_stringIcNS_11char_traitsIcEENS_9allocatorIcEEEEEdeB8ue170006Ev, symObjAddr: 0x1C1E4, symBinAddr: 0x10001F844, symSize: 0x18 }
  - { offsetInCU: 0x562E8, offset: 0x562E8, size: 0x8, addend: 0x0, symName: __ZNSt3__111__wrap_iterIPKNS_12basic_stringIcNS_11char_traitsIcEENS_9allocatorIcEEEEEppB8ue170006Ev, symObjAddr: 0x1C1FC, symBinAddr: 0x10001F85C, symSize: 0x20 }
  - { offsetInCU: 0x5630E, offset: 0x5630E, size: 0x8, addend: 0x0, symName: __ZNKSt3__111__wrap_iterIPKNS_12basic_stringIcNS_11char_traitsIcEENS_9allocatorIcEEEEE4baseB8ue170006Ev, symObjAddr: 0x1C21C, symBinAddr: 0x10001F87C, symSize: 0x18 }
  - { offsetInCU: 0x56334, offset: 0x56334, size: 0x8, addend: 0x0, symName: __ZNKSt3__16vectorINS_12basic_stringIcNS_11char_traitsIcEENS_9allocatorIcEEEENS4_IS6_EEE11__make_iterB8ue170006EPKS6_, symObjAddr: 0x1C234, symBinAddr: 0x10001F894, symSize: 0x30 }
  - { offsetInCU: 0x56369, offset: 0x56369, size: 0x8, addend: 0x0, symName: __ZNSt3__111__wrap_iterIPKNS_12basic_stringIcNS_11char_traitsIcEENS_9allocatorIcEEEEEC1B8ue170006ES8_, symObjAddr: 0x1C264, symBinAddr: 0x10001F8C4, symSize: 0x34 }
  - { offsetInCU: 0x563A1, offset: 0x563A1, size: 0x8, addend: 0x0, symName: __ZNSt3__111__wrap_iterIPKNS_12basic_stringIcNS_11char_traitsIcEENS_9allocatorIcEEEEEC2B8ue170006ES8_, symObjAddr: 0x1C298, symBinAddr: 0x10001F8F8, symSize: 0x20 }
  - { offsetInCU: 0x563D9, offset: 0x563D9, size: 0x8, addend: 0x0, symName: __ZNKSt3__16__treeI5TupleNS_4lessIS1_EENS_9allocatorIS1_EEE6__rootB8ue170006Ev, symObjAddr: 0x1C2B8, symBinAddr: 0x10001F918, symSize: 0x28 }
  - { offsetInCU: 0x563FF, offset: 0x563FF, size: 0x8, addend: 0x0, symName: __ZNKSt3__16__treeI5TupleNS_4lessIS1_EENS_9allocatorIS1_EEE10__root_ptrB8ue170006Ev, symObjAddr: 0x1C2E0, symBinAddr: 0x10001F940, symSize: 0x24 }
  - { offsetInCU: 0x56425, offset: 0x56425, size: 0x8, addend: 0x0, symName: __ZNKSt3__16__treeI5TupleNS_4lessIS1_EENS_9allocatorIS1_EEE10__end_nodeB8ue170006Ev, symObjAddr: 0x1C304, symBinAddr: 0x10001F964, symSize: 0x2C }
  - { offsetInCU: 0x5644B, offset: 0x5644B, size: 0x8, addend: 0x0, symName: __ZNKSt3__117__compressed_pairINS_15__tree_end_nodeIPNS_16__tree_node_baseIPvEEEENS_9allocatorINS_11__tree_nodeI5TupleS3_EEEEE5firstB8ue170006Ev, symObjAddr: 0x1C330, symBinAddr: 0x10001F990, symSize: 0x24 }
  - { offsetInCU: 0x56471, offset: 0x56471, size: 0x8, addend: 0x0, symName: __ZNSt3__16__treeI5TupleNS_4lessIS1_EENS_9allocatorIS1_EEE12__node_allocB8ue170006Ev, symObjAddr: 0x1C430, symBinAddr: 0x10001FA90, symSize: 0x28 }
  - { offsetInCU: 0x56497, offset: 0x56497, size: 0x8, addend: 0x0, symName: __ZNSt3__116allocator_traitsINS_9allocatorINS_11__tree_nodeI5TuplePvEEEEE8allocateB8ue170006ERS6_m, symObjAddr: 0x1C458, symBinAddr: 0x10001FAB8, symSize: 0x2C }
  - { offsetInCU: 0x564CA, offset: 0x564CA, size: 0x8, addend: 0x0, symName: __ZNSt3__122__tree_node_destructorINS_9allocatorINS_11__tree_nodeI5TuplePvEEEEEC1B8ue170006ERS6_b, symObjAddr: 0x1C484, symBinAddr: 0x10001FAE4, symSize: 0x48 }
  - { offsetInCU: 0x56518, offset: 0x56518, size: 0x8, addend: 0x0, symName: __ZNSt3__110unique_ptrINS_11__tree_nodeI5TuplePvEENS_22__tree_node_destructorINS_9allocatorIS4_EEEEEC1B8ue170006ILb1EvEEPS4_NS_16__dependent_typeINS_27__unique_ptr_deleter_sfinaeIS8_EEXT_EE20__good_rval_ref_typeE, symObjAddr: 0x1C4CC, symBinAddr: 0x10001FB2C, symSize: 0x3C }
  - { offsetInCU: 0x56569, offset: 0x56569, size: 0x8, addend: 0x0, symName: __ZNSt3__116allocator_traitsINS_9allocatorINS_11__tree_nodeI5TuplePvEEEEE9constructB8ue170006IS3_JRKS3_EvEEvRS6_PT_DpOT0_, symObjAddr: 0x1C508, symBinAddr: 0x10001FB68, symSize: 0x34 }
  - { offsetInCU: 0x565C0, offset: 0x565C0, size: 0x8, addend: 0x0, symName: __ZNSt3__122__tree_key_value_typesI5TupleE9__get_ptrB8ue170006ERS1_, symObjAddr: 0x1C53C, symBinAddr: 0x10001FB9C, symSize: 0x14 }
  - { offsetInCU: 0x565E4, offset: 0x565E4, size: 0x8, addend: 0x0, symName: __ZNKSt3__110unique_ptrINS_11__tree_nodeI5TuplePvEENS_22__tree_node_destructorINS_9allocatorIS4_EEEEEptB8ue170006Ev, symObjAddr: 0x1C550, symBinAddr: 0x10001FBB0, symSize: 0x28 }
  - { offsetInCU: 0x5660A, offset: 0x5660A, size: 0x8, addend: 0x0, symName: __ZNSt3__110unique_ptrINS_11__tree_nodeI5TuplePvEENS_22__tree_node_destructorINS_9allocatorIS4_EEEEE11get_deleterB8ue170006Ev, symObjAddr: 0x1C578, symBinAddr: 0x10001FBD8, symSize: 0x24 }
  - { offsetInCU: 0x56630, offset: 0x56630, size: 0x8, addend: 0x0, symName: __ZNSt3__117__compressed_pairINS_15__tree_end_nodeIPNS_16__tree_node_baseIPvEEEENS_9allocatorINS_11__tree_nodeI5TupleS3_EEEEE6secondB8ue170006Ev, symObjAddr: 0x1C59C, symBinAddr: 0x10001FBFC, symSize: 0x24 }
  - { offsetInCU: 0x56656, offset: 0x56656, size: 0x8, addend: 0x0, symName: __ZNSt3__122__compressed_pair_elemINS_9allocatorINS_11__tree_nodeI5TuplePvEEEELi1ELb1EE5__getB8ue170006Ev, symObjAddr: 0x1C5C0, symBinAddr: 0x10001FC20, symSize: 0x14 }
  - { offsetInCU: 0x5667C, offset: 0x5667C, size: 0x8, addend: 0x0, symName: __ZNSt3__19allocatorINS_11__tree_nodeI5TuplePvEEE8allocateB8ue170006Em, symObjAddr: 0x1C5D4, symBinAddr: 0x10001FC34, symSize: 0x5C }
  - { offsetInCU: 0x566B0, offset: 0x566B0, size: 0x8, addend: 0x0, symName: __ZNSt3__116allocator_traitsINS_9allocatorINS_11__tree_nodeI5TuplePvEEEEE8max_sizeB8ue170006IS6_vEEmRKS6_, symObjAddr: 0x1C630, symBinAddr: 0x10001FC90, symSize: 0x24 }
  - { offsetInCU: 0x566DE, offset: 0x566DE, size: 0x8, addend: 0x0, symName: __ZNKSt3__19allocatorINS_11__tree_nodeI5TuplePvEEE8max_sizeB8ue170006Ev, symObjAddr: 0x1C654, symBinAddr: 0x10001FCB4, symSize: 0x20 }
  - { offsetInCU: 0x56704, offset: 0x56704, size: 0x8, addend: 0x0, symName: __ZNSt3__122__tree_node_destructorINS_9allocatorINS_11__tree_nodeI5TuplePvEEEEEC2B8ue170006ERS6_b, symObjAddr: 0x1C674, symBinAddr: 0x10001FCD4, symSize: 0x38 }
  - { offsetInCU: 0x5674C, offset: 0x5674C, size: 0x8, addend: 0x0, symName: __ZNSt3__110unique_ptrINS_11__tree_nodeI5TuplePvEENS_22__tree_node_destructorINS_9allocatorIS4_EEEEEC2B8ue170006ILb1EvEEPS4_NS_16__dependent_typeINS_27__unique_ptr_deleter_sfinaeIS8_EEXT_EE20__good_rval_ref_typeE, symObjAddr: 0x1C6AC, symBinAddr: 0x10001FD0C, symSize: 0x48 }
  - { offsetInCU: 0x5679D, offset: 0x5679D, size: 0x8, addend: 0x0, symName: __ZNSt3__117__compressed_pairIPNS_11__tree_nodeI5TuplePvEENS_22__tree_node_destructorINS_9allocatorIS4_EEEEEC1B8ue170006IRS5_S9_EEOT_OT0_, symObjAddr: 0x1C6F4, symBinAddr: 0x10001FD54, symSize: 0x3C }
  - { offsetInCU: 0x567F5, offset: 0x567F5, size: 0x8, addend: 0x0, symName: __ZNSt3__117__compressed_pairIPNS_11__tree_nodeI5TuplePvEENS_22__tree_node_destructorINS_9allocatorIS4_EEEEEC2B8ue170006IRS5_S9_EEOT_OT0_, symObjAddr: 0x1C730, symBinAddr: 0x10001FD90, symSize: 0x48 }
  - { offsetInCU: 0x5684D, offset: 0x5684D, size: 0x8, addend: 0x0, symName: __ZNSt3__122__compressed_pair_elemIPNS_11__tree_nodeI5TuplePvEELi0ELb0EEC2B8ue170006IRS5_vEEOT_, symObjAddr: 0x1C778, symBinAddr: 0x10001FDD8, symSize: 0x24 }
  - { offsetInCU: 0x5688F, offset: 0x5688F, size: 0x8, addend: 0x0, symName: __ZNSt3__122__compressed_pair_elemINS_22__tree_node_destructorINS_9allocatorINS_11__tree_nodeI5TuplePvEEEEEELi1ELb0EEC2B8ue170006IS8_vEEOT_, symObjAddr: 0x1C79C, symBinAddr: 0x10001FDFC, symSize: 0x24 }
  - { offsetInCU: 0x568D1, offset: 0x568D1, size: 0x8, addend: 0x0, symName: __ZNSt3__19allocatorINS_11__tree_nodeI5TuplePvEEE9constructB8ue170006IS2_JRKS2_EEEvPT_DpOT0_, symObjAddr: 0x1C7C0, symBinAddr: 0x10001FE20, symSize: 0x30 }
  - { offsetInCU: 0x56927, offset: 0x56927, size: 0x8, addend: 0x0, symName: __ZN5TupleC1ERKS_, symObjAddr: 0x1C7F0, symBinAddr: 0x10001FE50, symSize: 0x34 }
  - { offsetInCU: 0x5695C, offset: 0x5695C, size: 0x8, addend: 0x0, symName: __ZN5TupleC2ERKS_, symObjAddr: 0x1C824, symBinAddr: 0x10001FE84, symSize: 0x34 }
  - { offsetInCU: 0x56991, offset: 0x56991, size: 0x8, addend: 0x0, symName: __ZNKSt3__117__compressed_pairIPNS_11__tree_nodeI5TuplePvEENS_22__tree_node_destructorINS_9allocatorIS4_EEEEE5firstB8ue170006Ev, symObjAddr: 0x1C858, symBinAddr: 0x10001FEB8, symSize: 0x24 }
  - { offsetInCU: 0x569B7, offset: 0x569B7, size: 0x8, addend: 0x0, symName: __ZNKSt3__122__compressed_pair_elemIPNS_11__tree_nodeI5TuplePvEELi0ELb0EE5__getB8ue170006Ev, symObjAddr: 0x1C87C, symBinAddr: 0x10001FEDC, symSize: 0x14 }
  - { offsetInCU: 0x569DD, offset: 0x569DD, size: 0x8, addend: 0x0, symName: __ZNSt3__117__compressed_pairIPNS_11__tree_nodeI5TuplePvEENS_22__tree_node_destructorINS_9allocatorIS4_EEEEE6secondB8ue170006Ev, symObjAddr: 0x1C890, symBinAddr: 0x10001FEF0, symSize: 0x28 }
  - { offsetInCU: 0x56A03, offset: 0x56A03, size: 0x8, addend: 0x0, symName: __ZNSt3__122__compressed_pair_elemINS_22__tree_node_destructorINS_9allocatorINS_11__tree_nodeI5TuplePvEEEEEELi1ELb0EE5__getB8ue170006Ev, symObjAddr: 0x1C8B8, symBinAddr: 0x10001FF18, symSize: 0x14 }
  - { offsetInCU: 0x56A29, offset: 0x56A29, size: 0x8, addend: 0x0, symName: __ZNSt3__16__treeI5TupleNS_4lessIS1_EENS_9allocatorIS1_EEE4sizeB8ue170006Ev, symObjAddr: 0x1C8CC, symBinAddr: 0x10001FF2C, symSize: 0x28 }
  - { offsetInCU: 0x56A4F, offset: 0x56A4F, size: 0x8, addend: 0x0, symName: __ZNSt3__117__compressed_pairImNS_4lessI5TupleEEE5firstB8ue170006Ev, symObjAddr: 0x1C8F4, symBinAddr: 0x10001FF54, symSize: 0x24 }
  - { offsetInCU: 0x56A75, offset: 0x56A75, size: 0x8, addend: 0x0, symName: __ZNSt3__117__compressed_pairIPNS_11__tree_nodeI5TuplePvEENS_22__tree_node_destructorINS_9allocatorIS4_EEEEE5firstB8ue170006Ev, symObjAddr: 0x1C918, symBinAddr: 0x10001FF78, symSize: 0x24 }
  - { offsetInCU: 0x56A9B, offset: 0x56A9B, size: 0x8, addend: 0x0, symName: __ZNSt3__122__compressed_pair_elemIPNS_11__tree_nodeI5TuplePvEELi0ELb0EE5__getB8ue170006Ev, symObjAddr: 0x1C93C, symBinAddr: 0x10001FF9C, symSize: 0x14 }
  - { offsetInCU: 0x56AC1, offset: 0x56AC1, size: 0x8, addend: 0x0, symName: __ZNSt3__110unique_ptrINS_11__tree_nodeI5TuplePvEENS_22__tree_node_destructorINS_9allocatorIS4_EEEEED2B8ue170006Ev, symObjAddr: 0x1C950, symBinAddr: 0x10001FFB0, symSize: 0x30 }
  - { offsetInCU: 0x56AEB, offset: 0x56AEB, size: 0x8, addend: 0x0, symName: __ZNSt3__110unique_ptrINS_11__tree_nodeI5TuplePvEENS_22__tree_node_destructorINS_9allocatorIS4_EEEEE5resetB8ue170006EPS4_, symObjAddr: 0x1C980, symBinAddr: 0x10001FFE0, symSize: 0x78 }
  - { offsetInCU: 0x56B2F, offset: 0x56B2F, size: 0x8, addend: 0x0, symName: __ZNSt3__122__tree_node_destructorINS_9allocatorINS_11__tree_nodeI5TuplePvEEEEEclB8ue170006EPS5_, symObjAddr: 0x1C9F8, symBinAddr: 0x100020058, symSize: 0x90 }
  - { offsetInCU: 0x56B64, offset: 0x56B64, size: 0x8, addend: 0x0, symName: __ZNSt3__116allocator_traitsINS_9allocatorINS_11__tree_nodeI5TuplePvEEEEE7destroyB8ue170006IS3_vvEEvRS6_PT_, symObjAddr: 0x1CA88, symBinAddr: 0x1000200E8, symSize: 0x28 }
  - { offsetInCU: 0x56B9F, offset: 0x56B9F, size: 0x8, addend: 0x0, symName: __ZNSt3__116allocator_traitsINS_9allocatorINS_11__tree_nodeI5TuplePvEEEEE10deallocateB8ue170006ERS6_PS5_m, symObjAddr: 0x1CAB0, symBinAddr: 0x100020110, symSize: 0x34 }
  - { offsetInCU: 0x56BE1, offset: 0x56BE1, size: 0x8, addend: 0x0, symName: __ZN5TupleD1Ev, symObjAddr: 0x1CAE4, symBinAddr: 0x100020144, symSize: 0x2C }
  - { offsetInCU: 0x56C0D, offset: 0x56C0D, size: 0x8, addend: 0x0, symName: __ZN5TupleD2Ev, symObjAddr: 0x1CB10, symBinAddr: 0x100020170, symSize: 0x2C }
  - { offsetInCU: 0x56C39, offset: 0x56C39, size: 0x8, addend: 0x0, symName: __ZNSt3__19allocatorINS_11__tree_nodeI5TuplePvEEE10deallocateB8ue170006EPS4_m, symObjAddr: 0x1CB3C, symBinAddr: 0x10002019C, symSize: 0x44 }
  - { offsetInCU: 0x56C7B, offset: 0x56C7B, size: 0x8, addend: 0x0, symName: __ZNSt3__115__tree_iteratorI5TuplePNS_11__tree_nodeIS1_PvEElEC2B8ue170006ES5_, symObjAddr: 0x1CB80, symBinAddr: 0x1000201E0, symSize: 0x20 }
  - { offsetInCU: 0x56CB4, offset: 0x56CB4, size: 0x8, addend: 0x0, symName: __ZNSt3__14pairINS_15__tree_iteratorI5TuplePNS_11__tree_nodeIS2_PvEElEEbEC2B8ue170006IS7_RbLS4_0EEEOT_OT0_, symObjAddr: 0x1CBA0, symBinAddr: 0x100020200, symSize: 0x38 }
  - { offsetInCU: 0x56D12, offset: 0x56D12, size: 0x8, addend: 0x0, symName: __ZNKSt3__16__treeI5TupleNS_4lessIS1_EENS_9allocatorIS1_EEE5beginB8ue170006Ev, symObjAddr: 0x1CBD8, symBinAddr: 0x100020238, symSize: 0x34 }
  - { offsetInCU: 0x56D38, offset: 0x56D38, size: 0x8, addend: 0x0, symName: __ZNKSt3__16__treeI5TupleNS_4lessIS1_EENS_9allocatorIS1_EEE12__begin_nodeB8ue170006Ev, symObjAddr: 0x1CC0C, symBinAddr: 0x10002026C, symSize: 0x14 }
  - { offsetInCU: 0x56D5E, offset: 0x56D5E, size: 0x8, addend: 0x0, symName: __ZNSt3__121__tree_const_iteratorI5TuplePNS_11__tree_nodeIS1_PvEElEC1B8ue170006EPNS_15__tree_end_nodeIPNS_16__tree_node_baseIS3_EEEE, symObjAddr: 0x1CC20, symBinAddr: 0x100020280, symSize: 0x34 }
  - { offsetInCU: 0x56D97, offset: 0x56D97, size: 0x8, addend: 0x0, symName: __ZNSt3__121__tree_const_iteratorI5TuplePNS_11__tree_nodeIS1_PvEElEC2B8ue170006EPNS_15__tree_end_nodeIPNS_16__tree_node_baseIS3_EEEE, symObjAddr: 0x1CC54, symBinAddr: 0x1000202B4, symSize: 0x20 }
  - { offsetInCU: 0x56DD0, offset: 0x56DD0, size: 0x8, addend: 0x0, symName: __ZNKSt3__16__treeI5TupleNS_4lessIS1_EENS_9allocatorIS1_EEE3endB8ue170006Ev, symObjAddr: 0x1CC74, symBinAddr: 0x1000202D4, symSize: 0x34 }
  - { offsetInCU: 0x56DF6, offset: 0x56DF6, size: 0x8, addend: 0x0, symName: __ZNSt3__16__treeI5TupleNS_4lessIS1_EENS_9allocatorIS1_EEED2Ev, symObjAddr: 0x1CCA8, symBinAddr: 0x100020308, symSize: 0x38 }
  - { offsetInCU: 0x56E22, offset: 0x56E22, size: 0x8, addend: 0x0, symName: __ZNSt3__16__treeI5TupleNS_4lessIS1_EENS_9allocatorIS1_EEE7destroyEPNS_11__tree_nodeIS1_PvEE, symObjAddr: 0x1CCE0, symBinAddr: 0x100020340, symSize: 0x9C }
  - { offsetInCU: 0x56E76, offset: 0x56E76, size: 0x8, addend: 0x0, symName: __ZN6SchemeC2ERKS_, symObjAddr: 0x1CD7C, symBinAddr: 0x1000203DC, symSize: 0x34 }
  - { offsetInCU: 0x56EAB, offset: 0x56EAB, size: 0x8, addend: 0x0, symName: __ZNSt3__16vectorINS_12basic_stringIcNS_11char_traitsIcEENS_9allocatorIcEEEENS4_IS6_EEEC2ERKS8_, symObjAddr: 0x1CDB0, symBinAddr: 0x100020410, symSize: 0x94 }
  - { offsetInCU: 0x56EF1, offset: 0x56EF1, size: 0x8, addend: 0x0, symName: __ZNSt3__116allocator_traitsINS_9allocatorINS_12basic_stringIcNS_11char_traitsIcEENS1_IcEEEEEEE37select_on_container_copy_constructionB8ue170006IS7_vvEES7_RKS7_, symObjAddr: 0x1CE44, symBinAddr: 0x1000204A4, symSize: 0x10 }
  - { offsetInCU: 0x56F20, offset: 0x56F20, size: 0x8, addend: 0x0, symName: __ZNKSt3__16vectorINS_12basic_stringIcNS_11char_traitsIcEENS_9allocatorIcEEEENS4_IS6_EEE7__allocB8ue170006Ev, symObjAddr: 0x1CE54, symBinAddr: 0x1000204B4, symSize: 0x28 }
  - { offsetInCU: 0x56F4C, offset: 0x56F4C, size: 0x8, addend: 0x0, symName: __ZNSt3__117__compressed_pairIPNS_12basic_stringIcNS_11char_traitsIcEENS_9allocatorIcEEEENS4_IS6_EEEC1B8ue170006IDnS8_EEOT_OT0_, symObjAddr: 0x1CE7C, symBinAddr: 0x1000204DC, symSize: 0x3C }
  - { offsetInCU: 0x56FA4, offset: 0x56FA4, size: 0x8, addend: 0x0, symName: __ZNSt3__16vectorINS_12basic_stringIcNS_11char_traitsIcEENS_9allocatorIcEEEENS4_IS6_EEE16__init_with_sizeB8ue170006IPS6_SA_EEvT_T0_m, symObjAddr: 0x1CEB8, symBinAddr: 0x100020518, symSize: 0xB8 }
  - { offsetInCU: 0x57018, offset: 0x57018, size: 0x8, addend: 0x0, symName: __ZNKSt3__16vectorINS_12basic_stringIcNS_11char_traitsIcEENS_9allocatorIcEEEENS4_IS6_EEE4sizeB8ue170006Ev, symObjAddr: 0x1CF70, symBinAddr: 0x1000205D0, symSize: 0x28 }
  - { offsetInCU: 0x5703E, offset: 0x5703E, size: 0x8, addend: 0x0, symName: __ZNKSt3__117__compressed_pairIPNS_12basic_stringIcNS_11char_traitsIcEENS_9allocatorIcEEEENS4_IS6_EEE6secondB8ue170006Ev, symObjAddr: 0x1CF98, symBinAddr: 0x1000205F8, symSize: 0x24 }
  - { offsetInCU: 0x57064, offset: 0x57064, size: 0x8, addend: 0x0, symName: __ZNKSt3__122__compressed_pair_elemINS_9allocatorINS_12basic_stringIcNS_11char_traitsIcEENS1_IcEEEEEELi1ELb1EE5__getB8ue170006Ev, symObjAddr: 0x1CFBC, symBinAddr: 0x10002061C, symSize: 0x14 }
  - { offsetInCU: 0x5708A, offset: 0x5708A, size: 0x8, addend: 0x0, symName: __ZNSt3__117__compressed_pairIPNS_12basic_stringIcNS_11char_traitsIcEENS_9allocatorIcEEEENS4_IS6_EEEC2B8ue170006IDnS8_EEOT_OT0_, symObjAddr: 0x1CFD0, symBinAddr: 0x100020630, symSize: 0x44 }
  - { offsetInCU: 0x570E2, offset: 0x570E2, size: 0x8, addend: 0x0, symName: __ZNSt3__122__compressed_pair_elemIPNS_12basic_stringIcNS_11char_traitsIcEENS_9allocatorIcEEEELi0ELb0EEC2B8ue170006IDnvEEOT_, symObjAddr: 0x1D014, symBinAddr: 0x100020674, symSize: 0x1C }
  - { offsetInCU: 0x57124, offset: 0x57124, size: 0x8, addend: 0x0, symName: __ZNSt3__122__compressed_pair_elemINS_9allocatorINS_12basic_stringIcNS_11char_traitsIcEENS1_IcEEEEEELi1ELb1EEC2B8ue170006IS7_vEEOT_, symObjAddr: 0x1D030, symBinAddr: 0x100020690, symSize: 0x18 }
  - { offsetInCU: 0x57166, offset: 0x57166, size: 0x8, addend: 0x0, symName: __ZNSt3__16vectorINS_12basic_stringIcNS_11char_traitsIcEENS_9allocatorIcEEEENS4_IS6_EEE16__destroy_vectorC1B8ue170006ERS8_, symObjAddr: 0x1D088, symBinAddr: 0x1000206E8, symSize: 0x34 }
  - { offsetInCU: 0x5719F, offset: 0x5719F, size: 0x8, addend: 0x0, symName: __ZNSt3__16vectorINS_12basic_stringIcNS_11char_traitsIcEENS_9allocatorIcEEEENS4_IS6_EEE11__vallocateB8ue170006Em, symObjAddr: 0x1D0BC, symBinAddr: 0x10002071C, symSize: 0xB4 }
  - { offsetInCU: 0x571E3, offset: 0x571E3, size: 0x8, addend: 0x0, symName: __ZNSt3__16vectorINS_12basic_stringIcNS_11char_traitsIcEENS_9allocatorIcEEEENS4_IS6_EEE18__construct_at_endIPS6_SA_EEvT_T0_m, symObjAddr: 0x1D170, symBinAddr: 0x1000207D0, symSize: 0x8C }
  - { offsetInCU: 0x57259, offset: 0x57259, size: 0x8, addend: 0x0, symName: __ZNSt3__128__exception_guard_exceptionsINS_6vectorINS_12basic_stringIcNS_11char_traitsIcEENS_9allocatorIcEEEENS5_IS7_EEE16__destroy_vectorEE10__completeB8ue170006Ev, symObjAddr: 0x1D1FC, symBinAddr: 0x10002085C, symSize: 0x1C }
  - { offsetInCU: 0x5727F, offset: 0x5727F, size: 0x8, addend: 0x0, symName: __ZNSt3__128__exception_guard_exceptionsINS_6vectorINS_12basic_stringIcNS_11char_traitsIcEENS_9allocatorIcEEEENS5_IS7_EEE16__destroy_vectorEED1B8ue170006Ev, symObjAddr: 0x1D218, symBinAddr: 0x100020878, symSize: 0x2C }
  - { offsetInCU: 0x572A9, offset: 0x572A9, size: 0x8, addend: 0x0, symName: __ZNSt3__128__exception_guard_exceptionsINS_6vectorINS_12basic_stringIcNS_11char_traitsIcEENS_9allocatorIcEEEENS5_IS7_EEE16__destroy_vectorEEC1B8ue170006ESA_, symObjAddr: 0x1D244, symBinAddr: 0x1000208A4, symSize: 0x34 }
  - { offsetInCU: 0x572E1, offset: 0x572E1, size: 0x8, addend: 0x0, symName: __ZNSt3__128__exception_guard_exceptionsINS_6vectorINS_12basic_stringIcNS_11char_traitsIcEENS_9allocatorIcEEEENS5_IS7_EEE16__destroy_vectorEEC2B8ue170006ESA_, symObjAddr: 0x1D278, symBinAddr: 0x1000208D8, symSize: 0x24 }
  - { offsetInCU: 0x57319, offset: 0x57319, size: 0x8, addend: 0x0, symName: __ZNSt3__16vectorINS_12basic_stringIcNS_11char_traitsIcEENS_9allocatorIcEEEENS4_IS6_EEE16__destroy_vectorC2B8ue170006ERS8_, symObjAddr: 0x1D29C, symBinAddr: 0x1000208FC, symSize: 0x20 }
  - { offsetInCU: 0x57352, offset: 0x57352, size: 0x8, addend: 0x0, symName: __ZNKSt3__16vectorINS_12basic_stringIcNS_11char_traitsIcEENS_9allocatorIcEEEENS4_IS6_EEE8max_sizeEv, symObjAddr: 0x1D2BC, symBinAddr: 0x10002091C, symSize: 0x60 }
  - { offsetInCU: 0x5737A, offset: 0x5737A, size: 0x8, addend: 0x0, symName: __ZNKSt3__16vectorINS_12basic_stringIcNS_11char_traitsIcEENS_9allocatorIcEEEENS4_IS6_EEE20__throw_length_errorB8ue170006Ev, symObjAddr: 0x1D31C, symBinAddr: 0x10002097C, symSize: 0x1C }
  - { offsetInCU: 0x573A0, offset: 0x573A0, size: 0x8, addend: 0x0, symName: __ZNSt3__16vectorINS_12basic_stringIcNS_11char_traitsIcEENS_9allocatorIcEEEENS4_IS6_EEE7__allocB8ue170006Ev, symObjAddr: 0x1D378, symBinAddr: 0x1000209D8, symSize: 0x28 }
  - { offsetInCU: 0x573C6, offset: 0x573C6, size: 0x8, addend: 0x0, symName: __ZNSt3__16vectorINS_12basic_stringIcNS_11char_traitsIcEENS_9allocatorIcEEEENS4_IS6_EEE9__end_capB8ue170006Ev, symObjAddr: 0x1D3A0, symBinAddr: 0x100020A00, symSize: 0x28 }
  - { offsetInCU: 0x573EC, offset: 0x573EC, size: 0x8, addend: 0x0, symName: __ZNKSt3__16vectorINS_12basic_stringIcNS_11char_traitsIcEENS_9allocatorIcEEEENS4_IS6_EEE14__annotate_newB8ue170006Em, symObjAddr: 0x1D3C8, symBinAddr: 0x100020A28, symSize: 0xC8 }
  - { offsetInCU: 0x57421, offset: 0x57421, size: 0x8, addend: 0x0, symName: __ZNSt3__116allocator_traitsINS_9allocatorINS_12basic_stringIcNS_11char_traitsIcEENS1_IcEEEEEEE8max_sizeB8ue170006IS7_vEEmRKS7_, symObjAddr: 0x1D490, symBinAddr: 0x100020AF0, symSize: 0x24 }
  - { offsetInCU: 0x5744F, offset: 0x5744F, size: 0x8, addend: 0x0, symName: __ZNKSt3__19allocatorINS_12basic_stringIcNS_11char_traitsIcEENS0_IcEEEEE8max_sizeB8ue170006Ev, symObjAddr: 0x1D4B4, symBinAddr: 0x100020B14, symSize: 0x18 }
  - { offsetInCU: 0x57475, offset: 0x57475, size: 0x8, addend: 0x0, symName: __ZNSt3__19allocatorINS_12basic_stringIcNS_11char_traitsIcEENS0_IcEEEEE8allocateB8ue170006Em, symObjAddr: 0x1D4CC, symBinAddr: 0x100020B2C, symSize: 0x5C }
  - { offsetInCU: 0x574A9, offset: 0x574A9, size: 0x8, addend: 0x0, symName: __ZNSt3__117__compressed_pairIPNS_12basic_stringIcNS_11char_traitsIcEENS_9allocatorIcEEEENS4_IS6_EEE6secondB8ue170006Ev, symObjAddr: 0x1D528, symBinAddr: 0x100020B88, symSize: 0x24 }
  - { offsetInCU: 0x574CF, offset: 0x574CF, size: 0x8, addend: 0x0, symName: __ZNSt3__122__compressed_pair_elemINS_9allocatorINS_12basic_stringIcNS_11char_traitsIcEENS1_IcEEEEEELi1ELb1EE5__getB8ue170006Ev, symObjAddr: 0x1D54C, symBinAddr: 0x100020BAC, symSize: 0x14 }
  - { offsetInCU: 0x574F5, offset: 0x574F5, size: 0x8, addend: 0x0, symName: __ZNSt3__117__compressed_pairIPNS_12basic_stringIcNS_11char_traitsIcEENS_9allocatorIcEEEENS4_IS6_EEE5firstB8ue170006Ev, symObjAddr: 0x1D560, symBinAddr: 0x100020BC0, symSize: 0x24 }
  - { offsetInCU: 0x5751B, offset: 0x5751B, size: 0x8, addend: 0x0, symName: __ZNSt3__122__compressed_pair_elemIPNS_12basic_stringIcNS_11char_traitsIcEENS_9allocatorIcEEEELi0ELb0EE5__getB8ue170006Ev, symObjAddr: 0x1D584, symBinAddr: 0x100020BE4, symSize: 0x14 }
  - { offsetInCU: 0x57541, offset: 0x57541, size: 0x8, addend: 0x0, symName: __ZNKSt3__16vectorINS_12basic_stringIcNS_11char_traitsIcEENS_9allocatorIcEEEENS4_IS6_EEE31__annotate_contiguous_containerB8ue170006EPKvSA_SA_SA_, symObjAddr: 0x1D598, symBinAddr: 0x100020BF8, symSize: 0x20 }
  - { offsetInCU: 0x57597, offset: 0x57597, size: 0x8, addend: 0x0, symName: __ZNKSt3__16vectorINS_12basic_stringIcNS_11char_traitsIcEENS_9allocatorIcEEEENS4_IS6_EEE4dataB8ue170006Ev, symObjAddr: 0x1D5B8, symBinAddr: 0x100020C18, symSize: 0x28 }
  - { offsetInCU: 0x575BD, offset: 0x575BD, size: 0x8, addend: 0x0, symName: __ZNKSt3__16vectorINS_12basic_stringIcNS_11char_traitsIcEENS_9allocatorIcEEEENS4_IS6_EEE8capacityB8ue170006Ev, symObjAddr: 0x1D5E0, symBinAddr: 0x100020C40, symSize: 0x40 }
  - { offsetInCU: 0x575E3, offset: 0x575E3, size: 0x8, addend: 0x0, symName: __ZNKSt3__16vectorINS_12basic_stringIcNS_11char_traitsIcEENS_9allocatorIcEEEENS4_IS6_EEE9__end_capB8ue170006Ev, symObjAddr: 0x1D634, symBinAddr: 0x100020C94, symSize: 0x28 }
  - { offsetInCU: 0x57609, offset: 0x57609, size: 0x8, addend: 0x0, symName: __ZNKSt3__117__compressed_pairIPNS_12basic_stringIcNS_11char_traitsIcEENS_9allocatorIcEEEENS4_IS6_EEE5firstB8ue170006Ev, symObjAddr: 0x1D65C, symBinAddr: 0x100020CBC, symSize: 0x24 }
  - { offsetInCU: 0x5762F, offset: 0x5762F, size: 0x8, addend: 0x0, symName: __ZNKSt3__122__compressed_pair_elemIPNS_12basic_stringIcNS_11char_traitsIcEENS_9allocatorIcEEEELi0ELb0EE5__getB8ue170006Ev, symObjAddr: 0x1D680, symBinAddr: 0x100020CE0, symSize: 0x14 }
  - { offsetInCU: 0x57671, offset: 0x57671, size: 0x8, addend: 0x0, symName: __ZNSt3__16vectorINS_12basic_stringIcNS_11char_traitsIcEENS_9allocatorIcEEEENS4_IS6_EEE21_ConstructTransactionC1B8ue170006ERS8_m, symObjAddr: 0x1D694, symBinAddr: 0x100020CF4, symSize: 0x3C }
  - { offsetInCU: 0x576B9, offset: 0x576B9, size: 0x8, addend: 0x0, symName: __ZNSt3__16vectorINS_12basic_stringIcNS_11char_traitsIcEENS_9allocatorIcEEEENS4_IS6_EEE21_ConstructTransactionD1B8ue170006Ev, symObjAddr: 0x1D750, symBinAddr: 0x100020DB0, symSize: 0x2C }
  - { offsetInCU: 0x576E3, offset: 0x576E3, size: 0x8, addend: 0x0, symName: __ZNSt3__16vectorINS_12basic_stringIcNS_11char_traitsIcEENS_9allocatorIcEEEENS4_IS6_EEE21_ConstructTransactionC2B8ue170006ERS8_m, symObjAddr: 0x1D77C, symBinAddr: 0x100020DDC, symSize: 0x4C }
  - { offsetInCU: 0x5774E, offset: 0x5774E, size: 0x8, addend: 0x0, symName: __ZNSt3__14pairIPNS_12basic_stringIcNS_11char_traitsIcEENS_9allocatorIcEEEES7_EC1B8ue170006IS7_S7_LPv0EEEOT_OT0_, symObjAddr: 0x1D9B4, symBinAddr: 0x100021014, symSize: 0x3C }
  - { offsetInCU: 0x577AC, offset: 0x577AC, size: 0x8, addend: 0x0, symName: __ZNSt3__14pairIPNS_12basic_stringIcNS_11char_traitsIcEENS_9allocatorIcEEEES7_EC2B8ue170006IS7_S7_LPv0EEEOT_OT0_, symObjAddr: 0x1D9F0, symBinAddr: 0x100021050, symSize: 0x34 }
  - { offsetInCU: 0x5780A, offset: 0x5780A, size: 0x8, addend: 0x0, symName: __ZNSt3__129_AllocatorDestroyRangeReverseINS_9allocatorINS_12basic_stringIcNS_11char_traitsIcEENS1_IcEEEEEEPS6_EC1B8ue170006ERS7_RS8_SB_, symObjAddr: 0x1DA70, symBinAddr: 0x1000210D0, symSize: 0x44 }
  - { offsetInCU: 0x57861, offset: 0x57861, size: 0x8, addend: 0x0, symName: __ZNSt3__116allocator_traitsINS_9allocatorINS_12basic_stringIcNS_11char_traitsIcEENS1_IcEEEEEEE9constructB8ue170006IS6_JRS6_EvEEvRS7_PT_DpOT0_, symObjAddr: 0x1DAB4, symBinAddr: 0x100021114, symSize: 0x34 }
  - { offsetInCU: 0x578B8, offset: 0x578B8, size: 0x8, addend: 0x0, symName: __ZNSt3__128__exception_guard_exceptionsINS_29_AllocatorDestroyRangeReverseINS_9allocatorINS_12basic_stringIcNS_11char_traitsIcEENS2_IcEEEEEEPS7_EEE10__completeB8ue170006Ev, symObjAddr: 0x1DAE8, symBinAddr: 0x100021148, symSize: 0x1C }
  - { offsetInCU: 0x578DE, offset: 0x578DE, size: 0x8, addend: 0x0, symName: __ZNSt3__128__exception_guard_exceptionsINS_29_AllocatorDestroyRangeReverseINS_9allocatorINS_12basic_stringIcNS_11char_traitsIcEENS2_IcEEEEEEPS7_EEED1B8ue170006Ev, symObjAddr: 0x1DB04, symBinAddr: 0x100021164, symSize: 0x2C }
  - { offsetInCU: 0x57908, offset: 0x57908, size: 0x8, addend: 0x0, symName: __ZNSt3__128__exception_guard_exceptionsINS_29_AllocatorDestroyRangeReverseINS_9allocatorINS_12basic_stringIcNS_11char_traitsIcEENS2_IcEEEEEEPS7_EEEC1B8ue170006ESA_, symObjAddr: 0x1DB30, symBinAddr: 0x100021190, symSize: 0x34 }
  - { offsetInCU: 0x57941, offset: 0x57941, size: 0x8, addend: 0x0, symName: __ZNSt3__128__exception_guard_exceptionsINS_29_AllocatorDestroyRangeReverseINS_9allocatorINS_12basic_stringIcNS_11char_traitsIcEENS2_IcEEEEEEPS7_EEEC2B8ue170006ESA_, symObjAddr: 0x1DB64, symBinAddr: 0x1000211C4, symSize: 0x30 }
  - { offsetInCU: 0x5797A, offset: 0x5797A, size: 0x8, addend: 0x0, symName: __ZNSt3__129_AllocatorDestroyRangeReverseINS_9allocatorINS_12basic_stringIcNS_11char_traitsIcEENS1_IcEEEEEEPS6_EC2B8ue170006ERS7_RS8_SB_, symObjAddr: 0x1DB94, symBinAddr: 0x1000211F4, symSize: 0x38 }
  - { offsetInCU: 0x579D1, offset: 0x579D1, size: 0x8, addend: 0x0, symName: __ZNSt3__19allocatorINS_12basic_stringIcNS_11char_traitsIcEENS0_IcEEEEE9constructB8ue170006IS5_JRS5_EEEvPT_DpOT0_, symObjAddr: 0x1DBCC, symBinAddr: 0x10002122C, symSize: 0x30 }
  - { offsetInCU: 0x57A27, offset: 0x57A27, size: 0x8, addend: 0x0, symName: __ZNSt3__128__exception_guard_exceptionsINS_29_AllocatorDestroyRangeReverseINS_9allocatorINS_12basic_stringIcNS_11char_traitsIcEENS2_IcEEEEEEPS7_EEED2B8ue170006Ev, symObjAddr: 0x1DBFC, symBinAddr: 0x10002125C, symSize: 0x50 }
  - { offsetInCU: 0x57A51, offset: 0x57A51, size: 0x8, addend: 0x0, symName: __ZNKSt3__129_AllocatorDestroyRangeReverseINS_9allocatorINS_12basic_stringIcNS_11char_traitsIcEENS1_IcEEEEEEPS6_EclB8ue170006Ev, symObjAddr: 0x1DC4C, symBinAddr: 0x1000212AC, symSize: 0x68 }
  - { offsetInCU: 0x57A77, offset: 0x57A77, size: 0x8, addend: 0x0, symName: __ZNSt3__116reverse_iteratorIPNS_12basic_stringIcNS_11char_traitsIcEENS_9allocatorIcEEEEEC1B8ue170006ES7_, symObjAddr: 0x1DD24, symBinAddr: 0x100021384, symSize: 0x34 }
  - { offsetInCU: 0x57AAF, offset: 0x57AAF, size: 0x8, addend: 0x0, symName: __ZNSt3__116allocator_traitsINS_9allocatorINS_12basic_stringIcNS_11char_traitsIcEENS1_IcEEEEEEE7destroyB8ue170006IS6_vEEvRS7_PT_, symObjAddr: 0x1DDA0, symBinAddr: 0x100021400, symSize: 0x2C }
  - { offsetInCU: 0x57AEC, offset: 0x57AEC, size: 0x8, addend: 0x0, symName: __ZNSt3__116reverse_iteratorIPNS_12basic_stringIcNS_11char_traitsIcEENS_9allocatorIcEEEEEppB8ue170006Ev, symObjAddr: 0x1DDF0, symBinAddr: 0x100021450, symSize: 0x20 }
  - { offsetInCU: 0x57B12, offset: 0x57B12, size: 0x8, addend: 0x0, symName: __ZNKSt3__116reverse_iteratorIPNS_12basic_stringIcNS_11char_traitsIcEENS_9allocatorIcEEEEE4baseB8ue170006Ev, symObjAddr: 0x1DE10, symBinAddr: 0x100021470, symSize: 0x18 }
  - { offsetInCU: 0x57B38, offset: 0x57B38, size: 0x8, addend: 0x0, symName: __ZNSt3__19allocatorINS_12basic_stringIcNS_11char_traitsIcEENS0_IcEEEEE7destroyB8ue170006EPS5_, symObjAddr: 0x1DE28, symBinAddr: 0x100021488, symSize: 0x28 }
  - { offsetInCU: 0x57B72, offset: 0x57B72, size: 0x8, addend: 0x0, symName: __ZNSt3__119__to_address_helperINS_16reverse_iteratorIPNS_12basic_stringIcNS_11char_traitsIcEENS_9allocatorIcEEEEEEvE6__callB8ue170006ERKS9_, symObjAddr: 0x1DE50, symBinAddr: 0x1000214B0, symSize: 0x38 }
  - { offsetInCU: 0x57B95, offset: 0x57B95, size: 0x8, addend: 0x0, symName: __ZNKSt3__116reverse_iteratorIPNS_12basic_stringIcNS_11char_traitsIcEENS_9allocatorIcEEEEEptB8ue170006Ev, symObjAddr: 0x1DE88, symBinAddr: 0x1000214E8, symSize: 0x24 }
  - { offsetInCU: 0x57BBB, offset: 0x57BBB, size: 0x8, addend: 0x0, symName: __ZNKSt3__116reverse_iteratorIPNS_12basic_stringIcNS_11char_traitsIcEENS_9allocatorIcEEEEEdeB8ue170006Ev, symObjAddr: 0x1DEAC, symBinAddr: 0x10002150C, symSize: 0x28 }
  - { offsetInCU: 0x57BEF, offset: 0x57BEF, size: 0x8, addend: 0x0, symName: __ZNSt3__116reverse_iteratorIPNS_12basic_stringIcNS_11char_traitsIcEENS_9allocatorIcEEEEEC2B8ue170006ES7_, symObjAddr: 0x1DED4, symBinAddr: 0x100021534, symSize: 0x28 }
  - { offsetInCU: 0x57C27, offset: 0x57C27, size: 0x8, addend: 0x0, symName: __ZNSt3__118__unwrap_iter_implIPNS_12basic_stringIcNS_11char_traitsIcEENS_9allocatorIcEEEELb1EE8__unwrapB8ue170006ES7_, symObjAddr: 0x1DEFC, symBinAddr: 0x10002155C, symSize: 0x24 }
  - { offsetInCU: 0x57C4A, offset: 0x57C4A, size: 0x8, addend: 0x0, symName: __ZNSt3__118__unwrap_iter_implIPNS_12basic_stringIcNS_11char_traitsIcEENS_9allocatorIcEEEELb1EE8__rewrapB8ue170006ES7_S7_, symObjAddr: 0x1DF20, symBinAddr: 0x100021580, symSize: 0x58 }
  - { offsetInCU: 0x57C7B, offset: 0x57C7B, size: 0x8, addend: 0x0, symName: __ZNSt3__16vectorINS_12basic_stringIcNS_11char_traitsIcEENS_9allocatorIcEEEENS4_IS6_EEE21_ConstructTransactionD2B8ue170006Ev, symObjAddr: 0x1DF78, symBinAddr: 0x1000215D8, symSize: 0x20 }
  - { offsetInCU: 0x57CA5, offset: 0x57CA5, size: 0x8, addend: 0x0, symName: __ZNSt3__128__exception_guard_exceptionsINS_6vectorINS_12basic_stringIcNS_11char_traitsIcEENS_9allocatorIcEEEENS5_IS7_EEE16__destroy_vectorEED2B8ue170006Ev, symObjAddr: 0x1DF98, symBinAddr: 0x1000215F8, symSize: 0x50 }
  - { offsetInCU: 0x57CCF, offset: 0x57CCF, size: 0x8, addend: 0x0, symName: __ZNSt3__16vectorINS_12basic_stringIcNS_11char_traitsIcEENS_9allocatorIcEEEENS4_IS6_EEE16__destroy_vectorclB8ue170006Ev, symObjAddr: 0x1DFE8, symBinAddr: 0x100021648, symSize: 0x90 }
  - { offsetInCU: 0x57CF5, offset: 0x57CF5, size: 0x8, addend: 0x0, symName: __ZNSt3__16vectorINS_12basic_stringIcNS_11char_traitsIcEENS_9allocatorIcEEEENS4_IS6_EEE7__clearB8ue170006Ev, symObjAddr: 0x1E078, symBinAddr: 0x1000216D8, symSize: 0x28 }
  - { offsetInCU: 0x57D1B, offset: 0x57D1B, size: 0x8, addend: 0x0, symName: __ZNKSt3__16vectorINS_12basic_stringIcNS_11char_traitsIcEENS_9allocatorIcEEEENS4_IS6_EEE17__annotate_deleteB8ue170006Ev, symObjAddr: 0x1E0A0, symBinAddr: 0x100021700, symSize: 0xD4 }
  - { offsetInCU: 0x57D41, offset: 0x57D41, size: 0x8, addend: 0x0, symName: __ZNSt3__116allocator_traitsINS_9allocatorINS_12basic_stringIcNS_11char_traitsIcEENS1_IcEEEEEEE10deallocateB8ue170006ERS7_PS6_m, symObjAddr: 0x1E174, symBinAddr: 0x1000217D4, symSize: 0x34 }
  - { offsetInCU: 0x57D83, offset: 0x57D83, size: 0x8, addend: 0x0, symName: __ZNSt3__16vectorINS_12basic_stringIcNS_11char_traitsIcEENS_9allocatorIcEEEENS4_IS6_EEE22__base_destruct_at_endB8ue170006EPS6_, symObjAddr: 0x1E1A8, symBinAddr: 0x100021808, symSize: 0x8C }
  - { offsetInCU: 0x57DC7, offset: 0x57DC7, size: 0x8, addend: 0x0, symName: __ZNSt3__19allocatorINS_12basic_stringIcNS_11char_traitsIcEENS0_IcEEEEE10deallocateB8ue170006EPS5_m, symObjAddr: 0x1E234, symBinAddr: 0x100021894, symSize: 0x44 }
  - { offsetInCU: 0x57E09, offset: 0x57E09, size: 0x8, addend: 0x0, symName: __ZNSt3__13setI5TupleNS_4lessIS1_EENS_9allocatorIS1_EEED2B8ue170006Ev, symObjAddr: 0x1E278, symBinAddr: 0x1000218D8, symSize: 0x2C }
  - { offsetInCU: 0x57E33, offset: 0x57E33, size: 0x8, addend: 0x0, symName: __ZNSt3__117__hash_value_typeINS_12basic_stringIcNS_11char_traitsIcEENS_9allocatorIcEEEE8RelationE11__get_valueB8ue170006Ev, symObjAddr: 0x1E2A4, symBinAddr: 0x100021904, symSize: 0x24 }
  - { offsetInCU: 0x57E59, offset: 0x57E59, size: 0x8, addend: 0x0, symName: __ZNSt3__117__compressed_pairIPNS_11__hash_nodeINS_17__hash_value_typeINS_12basic_stringIcNS_11char_traitsIcEENS_9allocatorIcEEEE8RelationEEPvEENS_22__hash_node_destructorINS6_ISC_EEEEE6secondB8ue170006Ev, symObjAddr: 0x1E300, symBinAddr: 0x100021960, symSize: 0x28 }
  - { offsetInCU: 0x57E7F, offset: 0x57E7F, size: 0x8, addend: 0x0, symName: __ZNSt3__122__compressed_pair_elemINS_22__hash_node_destructorINS_9allocatorINS_11__hash_nodeINS_17__hash_value_typeINS_12basic_stringIcNS_11char_traitsIcEENS2_IcEEEE8RelationEEPvEEEEEELi1ELb0EE5__getB8ue170006Ev, symObjAddr: 0x1E328, symBinAddr: 0x100021988, symSize: 0x14 }
  - { offsetInCU: 0x57EA5, offset: 0x57EA5, size: 0x8, addend: 0x0, symName: __ZNKSt3__117__compressed_pairIPNS_11__hash_nodeINS_17__hash_value_typeINS_12basic_stringIcNS_11char_traitsIcEENS_9allocatorIcEEEE8RelationEEPvEENS_22__hash_node_destructorINS6_ISC_EEEEE5firstB8ue170006Ev, symObjAddr: 0x1E33C, symBinAddr: 0x10002199C, symSize: 0x24 }
  - { offsetInCU: 0x57ECB, offset: 0x57ECB, size: 0x8, addend: 0x0, symName: __ZNKSt3__122__compressed_pair_elemIPNS_11__hash_nodeINS_17__hash_value_typeINS_12basic_stringIcNS_11char_traitsIcEENS_9allocatorIcEEEE8RelationEEPvEELi0ELb0EE5__getB8ue170006Ev, symObjAddr: 0x1E360, symBinAddr: 0x1000219C0, symSize: 0x14 }
  - { offsetInCU: 0x57EF1, offset: 0x57EF1, size: 0x8, addend: 0x0, symName: __ZNSt3__117__compressed_pairIPNS_11__hash_nodeINS_17__hash_value_typeINS_12basic_stringIcNS_11char_traitsIcEENS_9allocatorIcEEEE8RelationEEPvEENS_22__hash_node_destructorINS6_ISC_EEEEE5firstB8ue170006Ev, symObjAddr: 0x1E374, symBinAddr: 0x1000219D4, symSize: 0x24 }
  - { offsetInCU: 0x57F17, offset: 0x57F17, size: 0x8, addend: 0x0, symName: __ZNSt3__122__compressed_pair_elemIPNS_11__hash_nodeINS_17__hash_value_typeINS_12basic_stringIcNS_11char_traitsIcEENS_9allocatorIcEEEE8RelationEEPvEELi0ELb0EE5__getB8ue170006Ev, symObjAddr: 0x1E398, symBinAddr: 0x1000219F8, symSize: 0x14 }
  - { offsetInCU: 0x57F3D, offset: 0x57F3D, size: 0x8, addend: 0x0, symName: __ZNSt3__110unique_ptrINS_11__hash_nodeINS_17__hash_value_typeINS_12basic_stringIcNS_11char_traitsIcEENS_9allocatorIcEEEE8RelationEEPvEENS_22__hash_node_destructorINS6_ISC_EEEEED2B8ue170006Ev, symObjAddr: 0x1E3AC, symBinAddr: 0x100021A0C, symSize: 0x30 }
  - { offsetInCU: 0x57F67, offset: 0x57F67, size: 0x8, addend: 0x0, symName: __ZNSt3__110unique_ptrINS_11__hash_nodeINS_17__hash_value_typeINS_12basic_stringIcNS_11char_traitsIcEENS_9allocatorIcEEEE8RelationEEPvEENS_22__hash_node_destructorINS6_ISC_EEEEE5resetB8ue170006EPSC_, symObjAddr: 0x1E3DC, symBinAddr: 0x100021A3C, symSize: 0x78 }
  - { offsetInCU: 0x57FAB, offset: 0x57FAB, size: 0x8, addend: 0x0, symName: __ZNSt3__122__hash_node_destructorINS_9allocatorINS_11__hash_nodeINS_17__hash_value_typeINS_12basic_stringIcNS_11char_traitsIcEENS1_IcEEEE8RelationEEPvEEEEEclB8ue170006EPSC_, symObjAddr: 0x1E454, symBinAddr: 0x100021AB4, symSize: 0x98 }
  - { offsetInCU: 0x57FE0, offset: 0x57FE0, size: 0x8, addend: 0x0, symName: __ZNSt3__116allocator_traitsINS_9allocatorINS_11__hash_nodeINS_17__hash_value_typeINS_12basic_stringIcNS_11char_traitsIcEENS1_IcEEEE8RelationEEPvEEEEE7destroyB8ue170006INS_4pairIKS8_S9_EEvvEEvRSD_PT_, symObjAddr: 0x1E4EC, symBinAddr: 0x100021B4C, symSize: 0x28 }
  - { offsetInCU: 0x5801B, offset: 0x5801B, size: 0x8, addend: 0x0, symName: __ZNSt3__116allocator_traitsINS_9allocatorINS_11__hash_nodeINS_17__hash_value_typeINS_12basic_stringIcNS_11char_traitsIcEENS1_IcEEEE8RelationEEPvEEEEE10deallocateB8ue170006ERSD_PSC_m, symObjAddr: 0x1E514, symBinAddr: 0x100021B74, symSize: 0x34 }
  - { offsetInCU: 0x5805D, offset: 0x5805D, size: 0x8, addend: 0x0, symName: __ZNSt3__14pairIKNS_12basic_stringIcNS_11char_traitsIcEENS_9allocatorIcEEEE8RelationED1Ev, symObjAddr: 0x1E548, symBinAddr: 0x100021BA8, symSize: 0x2C }
  - { offsetInCU: 0x58089, offset: 0x58089, size: 0x8, addend: 0x0, symName: __ZNSt3__14pairIKNS_12basic_stringIcNS_11char_traitsIcEENS_9allocatorIcEEEE8RelationED2Ev, symObjAddr: 0x1E574, symBinAddr: 0x100021BD4, symSize: 0x38 }
  - { offsetInCU: 0x580B5, offset: 0x580B5, size: 0x8, addend: 0x0, symName: __ZN8RelationD1Ev, symObjAddr: 0x1E5AC, symBinAddr: 0x100021C0C, symSize: 0x2C }
  - { offsetInCU: 0x580E1, offset: 0x580E1, size: 0x8, addend: 0x0, symName: __ZN8RelationD2Ev, symObjAddr: 0x1E5D8, symBinAddr: 0x100021C38, symSize: 0x44 }
  - { offsetInCU: 0x5810D, offset: 0x5810D, size: 0x8, addend: 0x0, symName: __ZN6SchemeD1Ev, symObjAddr: 0x1E61C, symBinAddr: 0x100021C7C, symSize: 0x2C }
  - { offsetInCU: 0x58139, offset: 0x58139, size: 0x8, addend: 0x0, symName: __ZN6SchemeD2Ev, symObjAddr: 0x1E648, symBinAddr: 0x100021CA8, symSize: 0x2C }
  - { offsetInCU: 0x58165, offset: 0x58165, size: 0x8, addend: 0x0, symName: __ZNSt3__16vectorINS_12basic_stringIcNS_11char_traitsIcEENS_9allocatorIcEEEENS4_IS6_EEED2B8ue170006Ev, symObjAddr: 0x1E674, symBinAddr: 0x100021CD4, symSize: 0x40 }
  - { offsetInCU: 0x5818F, offset: 0x5818F, size: 0x8, addend: 0x0, symName: __ZNSt3__19allocatorINS_11__hash_nodeINS_17__hash_value_typeINS_12basic_stringIcNS_11char_traitsIcEENS0_IcEEEE8RelationEEPvEEE10deallocateB8ue170006EPSB_m, symObjAddr: 0x1E6B4, symBinAddr: 0x100021D14, symSize: 0x44 }
  - { offsetInCU: 0x581D1, offset: 0x581D1, size: 0x8, addend: 0x0, symName: __ZNSt3__115__hash_iteratorIPNS_11__hash_nodeINS_17__hash_value_typeINS_12basic_stringIcNS_11char_traitsIcEENS_9allocatorIcEEEE8RelationEEPvEEEC2B8ue170006EPNS_16__hash_node_baseISD_EE, symObjAddr: 0x1E6F8, symBinAddr: 0x100021D58, symSize: 0x20 }
  - { offsetInCU: 0x5820A, offset: 0x5820A, size: 0x8, addend: 0x0, symName: __ZNSt3__14pairINS_15__hash_iteratorIPNS_11__hash_nodeINS_17__hash_value_typeINS_12basic_stringIcNS_11char_traitsIcEENS_9allocatorIcEEEE8RelationEEPvEEEEbEC2B8ue170006ISF_RbLSC_0EEEOT_OT0_, symObjAddr: 0x1E718, symBinAddr: 0x100021D78, symSize: 0x38 }
  - { offsetInCU: 0x58268, offset: 0x58268, size: 0x8, addend: 0x0, symName: __ZNKSt3__121__hash_const_iteratorIPNS_11__hash_nodeINS_17__hash_value_typeINS_12basic_stringIcNS_11char_traitsIcEENS_9allocatorIcEEEE8RelationEEPvEEEptB8ue170006Ev, symObjAddr: 0x1E750, symBinAddr: 0x100021DB0, symSize: 0x30 }
  - { offsetInCU: 0x5828E, offset: 0x5828E, size: 0x8, addend: 0x0, symName: __ZNSt3__114pointer_traitsIPKNS_17__hash_value_typeINS_12basic_stringIcNS_11char_traitsIcEENS_9allocatorIcEEEE8RelationEEE10pointer_toB8ue170006ERSA_, symObjAddr: 0x1E780, symBinAddr: 0x100021DE0, symSize: 0x14 }
  - { offsetInCU: 0x582B1, offset: 0x582B1, size: 0x8, addend: 0x0, symName: __ZNSt3__121__hash_const_iteratorIPNS_11__hash_nodeINS_17__hash_value_typeINS_12basic_stringIcNS_11char_traitsIcEENS_9allocatorIcEEEE8RelationEEPvEEEppB8ue170006Ev, symObjAddr: 0x1E794, symBinAddr: 0x100021DF4, symSize: 0x20 }
  - { offsetInCU: 0x582D7, offset: 0x582D7, size: 0x8, addend: 0x0, symName: __ZNKSt3__112__hash_tableINS_17__hash_value_typeINS_12basic_stringIcNS_11char_traitsIcEENS_9allocatorIcEEEE8RelationEENS_22__unordered_map_hasherIS7_S9_NS_4hashIS7_EENS_8equal_toIS7_EELb1EEENS_21__unordered_map_equalIS7_S9_SE_SC_Lb1EEENS5_IS9_EEE5beginEv, symObjAddr: 0x1E7B4, symBinAddr: 0x100021E14, symSize: 0x38 }
  - { offsetInCU: 0x582FF, offset: 0x582FF, size: 0x8, addend: 0x0, symName: __ZNSt3__125__hash_map_const_iteratorINS_21__hash_const_iteratorIPNS_11__hash_nodeINS_17__hash_value_typeINS_12basic_stringIcNS_11char_traitsIcEENS_9allocatorIcEEEE8RelationEEPvEEEEEC1B8ue170006ESF_, symObjAddr: 0x1E7EC, symBinAddr: 0x100021E4C, symSize: 0x34 }
  - { offsetInCU: 0x58338, offset: 0x58338, size: 0x8, addend: 0x0, symName: __ZNKSt3__117__compressed_pairINS_16__hash_node_baseIPNS_11__hash_nodeINS_17__hash_value_typeINS_12basic_stringIcNS_11char_traitsIcEENS_9allocatorIcEEEE8RelationEEPvEEEENS7_ISD_EEE5firstB8ue170006Ev, symObjAddr: 0x1E820, symBinAddr: 0x100021E80, symSize: 0x24 }
  - { offsetInCU: 0x5835E, offset: 0x5835E, size: 0x8, addend: 0x0, symName: __ZNSt3__121__hash_const_iteratorIPNS_11__hash_nodeINS_17__hash_value_typeINS_12basic_stringIcNS_11char_traitsIcEENS_9allocatorIcEEEE8RelationEEPvEEEC1B8ue170006EPNS_16__hash_node_baseISD_EE, symObjAddr: 0x1E844, symBinAddr: 0x100021EA4, symSize: 0x34 }
  - { offsetInCU: 0x58397, offset: 0x58397, size: 0x8, addend: 0x0, symName: __ZNKSt3__122__compressed_pair_elemINS_16__hash_node_baseIPNS_11__hash_nodeINS_17__hash_value_typeINS_12basic_stringIcNS_11char_traitsIcEENS_9allocatorIcEEEE8RelationEEPvEEEELi0ELb0EE5__getB8ue170006Ev, symObjAddr: 0x1E878, symBinAddr: 0x100021ED8, symSize: 0x14 }
  - { offsetInCU: 0x583BD, offset: 0x583BD, size: 0x8, addend: 0x0, symName: __ZNSt3__121__hash_const_iteratorIPNS_11__hash_nodeINS_17__hash_value_typeINS_12basic_stringIcNS_11char_traitsIcEENS_9allocatorIcEEEE8RelationEEPvEEEC2B8ue170006EPNS_16__hash_node_baseISD_EE, symObjAddr: 0x1E88C, symBinAddr: 0x100021EEC, symSize: 0x20 }
  - { offsetInCU: 0x583F6, offset: 0x583F6, size: 0x8, addend: 0x0, symName: __ZNSt3__125__hash_map_const_iteratorINS_21__hash_const_iteratorIPNS_11__hash_nodeINS_17__hash_value_typeINS_12basic_stringIcNS_11char_traitsIcEENS_9allocatorIcEEEE8RelationEEPvEEEEEC2B8ue170006ESF_, symObjAddr: 0x1E8AC, symBinAddr: 0x100021F0C, symSize: 0x20 }
  - { offsetInCU: 0x5842F, offset: 0x5842F, size: 0x8, addend: 0x0, symName: __ZNKSt3__112__hash_tableINS_17__hash_value_typeINS_12basic_stringIcNS_11char_traitsIcEENS_9allocatorIcEEEE8RelationEENS_22__unordered_map_hasherIS7_S9_NS_4hashIS7_EENS_8equal_toIS7_EELb1EEENS_21__unordered_map_equalIS7_S9_SE_SC_Lb1EEENS5_IS9_EEE3endEv, symObjAddr: 0x1E8CC, symBinAddr: 0x100021F2C, symSize: 0x2C }
  - { offsetInCU: 0x58457, offset: 0x58457, size: 0x8, addend: 0x0, symName: __ZNSt3__112__hash_tableINS_17__hash_value_typeINS_12basic_stringIcNS_11char_traitsIcEENS_9allocatorIcEEEE8RelationEENS_22__unordered_map_hasherIS7_S9_NS_4hashIS7_EENS_8equal_toIS7_EELb1EEENS_21__unordered_map_equalIS7_S9_SE_SC_Lb1EEENS5_IS9_EEED2Ev, symObjAddr: 0x1E8F8, symBinAddr: 0x100021F58, symSize: 0x48 }
  - { offsetInCU: 0x58483, offset: 0x58483, size: 0x8, addend: 0x0, symName: __ZNSt3__112__hash_tableINS_17__hash_value_typeINS_12basic_stringIcNS_11char_traitsIcEENS_9allocatorIcEEEE8RelationEENS_22__unordered_map_hasherIS7_S9_NS_4hashIS7_EENS_8equal_toIS7_EELb1EEENS_21__unordered_map_equalIS7_S9_SE_SC_Lb1EEENS5_IS9_EEE17__deallocate_nodeEPNS_16__hash_node_baseIPNS_11__hash_nodeIS9_PvEEEE, symObjAddr: 0x1E940, symBinAddr: 0x100021FA0, symSize: 0xA4 }
  - { offsetInCU: 0x584ED, offset: 0x584ED, size: 0x8, addend: 0x0, symName: __ZN11InterpreterC2E7Datalog8Database, symObjAddr: 0x1E9E4, symBinAddr: 0x100022044, symSize: 0x4C }
  - { offsetInCU: 0x5853B, offset: 0x5853B, size: 0x8, addend: 0x0, symName: __ZN7DatalogC1EOS_, symObjAddr: 0x1EA30, symBinAddr: 0x100022090, symSize: 0x34 }
  - { offsetInCU: 0x58576, offset: 0x58576, size: 0x8, addend: 0x0, symName: __ZN8DatabaseC1EOS_, symObjAddr: 0x1EA64, symBinAddr: 0x1000220C4, symSize: 0x34 }
  - { offsetInCU: 0x585AB, offset: 0x585AB, size: 0x8, addend: 0x0, symName: __ZN7DatalogC2EOS_, symObjAddr: 0x1EA98, symBinAddr: 0x1000220F8, symSize: 0x84 }
  - { offsetInCU: 0x585E0, offset: 0x585E0, size: 0x8, addend: 0x0, symName: __ZNSt3__16vectorI9PredicateNS_9allocatorIS1_EEEC1B8ue170006EOS4_, symObjAddr: 0x1EB1C, symBinAddr: 0x10002217C, symSize: 0x34 }
  - { offsetInCU: 0x5861B, offset: 0x5861B, size: 0x8, addend: 0x0, symName: __ZNSt3__16vectorI4RuleNS_9allocatorIS1_EEEC1B8ue170006EOS4_, symObjAddr: 0x1EB50, symBinAddr: 0x1000221B0, symSize: 0x34 }
  - { offsetInCU: 0x58656, offset: 0x58656, size: 0x8, addend: 0x0, symName: __ZNSt3__13setINS_12basic_stringIcNS_11char_traitsIcEENS_9allocatorIcEEEENS_4lessIS6_EENS4_IS6_EEEC1B8ue170006EOSA_, symObjAddr: 0x1EB84, symBinAddr: 0x1000221E4, symSize: 0x34 }
  - { offsetInCU: 0x5868F, offset: 0x5868F, size: 0x8, addend: 0x0, symName: __ZNSt3__16vectorI9PredicateNS_9allocatorIS1_EEEC2B8ue170006EOS4_, symObjAddr: 0x1EBB8, symBinAddr: 0x100022218, symSize: 0xC4 }
  - { offsetInCU: 0x586CA, offset: 0x586CA, size: 0x8, addend: 0x0, symName: __ZNSt3__16vectorI4RuleNS_9allocatorIS1_EEEC2B8ue170006EOS4_, symObjAddr: 0x1EC7C, symBinAddr: 0x1000222DC, symSize: 0xC4 }
  - { offsetInCU: 0x58705, offset: 0x58705, size: 0x8, addend: 0x0, symName: __ZNSt3__13setINS_12basic_stringIcNS_11char_traitsIcEENS_9allocatorIcEEEENS_4lessIS6_EENS4_IS6_EEEC2B8ue170006EOSA_, symObjAddr: 0x1ED40, symBinAddr: 0x1000223A0, symSize: 0x34 }
  - { offsetInCU: 0x5873E, offset: 0x5873E, size: 0x8, addend: 0x0, symName: __ZNSt3__16__treeINS_12basic_stringIcNS_11char_traitsIcEENS_9allocatorIcEEEENS_4lessIS6_EENS4_IS6_EEEC1EOSA_, symObjAddr: 0x1ED74, symBinAddr: 0x1000223D4, symSize: 0x34 }
  - { offsetInCU: 0x58779, offset: 0x58779, size: 0x8, addend: 0x0, symName: __ZNSt3__16__treeINS_12basic_stringIcNS_11char_traitsIcEENS_9allocatorIcEEEENS_4lessIS6_EENS4_IS6_EEEC2EOSA_, symObjAddr: 0x1EDA8, symBinAddr: 0x100022408, symSize: 0xFC }
  - { offsetInCU: 0x587B4, offset: 0x587B4, size: 0x8, addend: 0x0, symName: __ZN8DatabaseC2EOS_, symObjAddr: 0x1EEA4, symBinAddr: 0x100022504, symSize: 0x34 }
  - { offsetInCU: 0x587E9, offset: 0x587E9, size: 0x8, addend: 0x0, symName: __ZNSt3__113unordered_mapINS_12basic_stringIcNS_11char_traitsIcEENS_9allocatorIcEEEE8RelationNS_4hashIS6_EENS_8equal_toIS6_EENS4_INS_4pairIKS6_S7_EEEEEC1EOSG_, symObjAddr: 0x1EED8, symBinAddr: 0x100022538, symSize: 0x34 }
  - { offsetInCU: 0x58824, offset: 0x58824, size: 0x8, addend: 0x0, symName: __ZNSt3__113unordered_mapINS_12basic_stringIcNS_11char_traitsIcEENS_9allocatorIcEEEE8RelationNS_4hashIS6_EENS_8equal_toIS6_EENS4_INS_4pairIKS6_S7_EEEEEC2EOSG_, symObjAddr: 0x1EF0C, symBinAddr: 0x10002256C, symSize: 0x34 }
  - { offsetInCU: 0x5885F, offset: 0x5885F, size: 0x8, addend: 0x0, symName: __ZNSt3__112__hash_tableINS_17__hash_value_typeINS_12basic_stringIcNS_11char_traitsIcEENS_9allocatorIcEEEE8RelationEENS_22__unordered_map_hasherIS7_S9_NS_4hashIS7_EENS_8equal_toIS7_EELb1EEENS_21__unordered_map_equalIS7_S9_SE_SC_Lb1EEENS5_IS9_EEEC1EOSJ_, symObjAddr: 0x1EF40, symBinAddr: 0x1000225A0, symSize: 0x34 }
  - { offsetInCU: 0x5889A, offset: 0x5889A, size: 0x8, addend: 0x0, symName: __ZNSt3__112__hash_tableINS_17__hash_value_typeINS_12basic_stringIcNS_11char_traitsIcEENS_9allocatorIcEEEE8RelationEENS_22__unordered_map_hasherIS7_S9_NS_4hashIS7_EENS_8equal_toIS7_EELb1EEENS_21__unordered_map_equalIS7_S9_SE_SC_Lb1EEENS5_IS9_EEEC2EOSJ_, symObjAddr: 0x1EF74, symBinAddr: 0x1000225D4, symSize: 0xF8 }
  - { offsetInCU: 0x588D5, offset: 0x588D5, size: 0x8, addend: 0x0, symName: __ZNSt3__110unique_ptrIA_PNS_16__hash_node_baseIPNS_11__hash_nodeINS_17__hash_value_typeINS_12basic_stringIcNS_11char_traitsIcEENS_9allocatorIcEEEE8RelationEEPvEEEENS_25__bucket_list_deallocatorINS7_ISG_EEEEEC1B8ue170006EOSL_, symObjAddr: 0x1F06C, symBinAddr: 0x1000226CC, symSize: 0x34 }
  - { offsetInCU: 0x5890E, offset: 0x5890E, size: 0x8, addend: 0x0, symName: __ZNSt3__110unique_ptrIA_PNS_16__hash_node_baseIPNS_11__hash_nodeINS_17__hash_value_typeINS_12basic_stringIcNS_11char_traitsIcEENS_9allocatorIcEEEE8RelationEEPvEEEENS_25__bucket_list_deallocatorINS7_ISG_EEEEEC2B8ue170006EOSL_, symObjAddr: 0x1F0A0, symBinAddr: 0x100022700, symSize: 0x60 }
  - { offsetInCU: 0x58947, offset: 0x58947, size: 0x8, addend: 0x0, symName: __ZNSt3__110unique_ptrIA_PNS_16__hash_node_baseIPNS_11__hash_nodeINS_17__hash_value_typeINS_12basic_stringIcNS_11char_traitsIcEENS_9allocatorIcEEEE8RelationEEPvEEEENS_25__bucket_list_deallocatorINS7_ISG_EEEEE7releaseB8ue170006Ev, symObjAddr: 0x1F100, symBinAddr: 0x100022760, symSize: 0x44 }
  - { offsetInCU: 0x58982, offset: 0x58982, size: 0x8, addend: 0x0, symName: __ZNSt3__117__compressed_pairIPPNS_16__hash_node_baseIPNS_11__hash_nodeINS_17__hash_value_typeINS_12basic_stringIcNS_11char_traitsIcEENS_9allocatorIcEEEE8RelationEEPvEEEENS_25__bucket_list_deallocatorINS7_ISG_EEEEEC1B8ue170006ISH_SK_EEOT_OT0_, symObjAddr: 0x1F144, symBinAddr: 0x1000227A4, symSize: 0x3C }
  - { offsetInCU: 0x589DA, offset: 0x589DA, size: 0x8, addend: 0x0, symName: __ZNSt3__117__compressed_pairIPPNS_16__hash_node_baseIPNS_11__hash_nodeINS_17__hash_value_typeINS_12basic_stringIcNS_11char_traitsIcEENS_9allocatorIcEEEE8RelationEEPvEEEENS_25__bucket_list_deallocatorINS7_ISG_EEEEEC2B8ue170006ISH_SK_EEOT_OT0_, symObjAddr: 0x1F180, symBinAddr: 0x1000227E0, symSize: 0x48 }
  - { offsetInCU: 0x58A32, offset: 0x58A32, size: 0x8, addend: 0x0, symName: __ZNSt3__122__compressed_pair_elemIPPNS_16__hash_node_baseIPNS_11__hash_nodeINS_17__hash_value_typeINS_12basic_stringIcNS_11char_traitsIcEENS_9allocatorIcEEEE8RelationEEPvEEEELi0ELb0EEC2B8ue170006ISH_vEEOT_, symObjAddr: 0x1F1C8, symBinAddr: 0x100022828, symSize: 0x24 }
  - { offsetInCU: 0x58A74, offset: 0x58A74, size: 0x8, addend: 0x0, symName: __ZN8DatabaseD2Ev, symObjAddr: 0x1F1EC, symBinAddr: 0x10002284C, symSize: 0x2C }
  - { offsetInCU: 0x58AA0, offset: 0x58AA0, size: 0x8, addend: 0x0, symName: __ZNSt3__113unordered_mapINS_12basic_stringIcNS_11char_traitsIcEENS_9allocatorIcEEEE8RelationNS_4hashIS6_EENS_8equal_toIS6_EENS4_INS_4pairIKS6_S7_EEEEED1B8ue170006Ev, symObjAddr: 0x1F218, symBinAddr: 0x100022878, symSize: 0x2C }
  - { offsetInCU: 0x58ACA, offset: 0x58ACA, size: 0x8, addend: 0x0, symName: __ZNSt3__113unordered_mapINS_12basic_stringIcNS_11char_traitsIcEENS_9allocatorIcEEEE8RelationNS_4hashIS6_EENS_8equal_toIS6_EENS4_INS_4pairIKS6_S7_EEEEED2B8ue170006Ev, symObjAddr: 0x1F244, symBinAddr: 0x1000228A4, symSize: 0x2C }
  - { offsetInCU: 0x58AF4, offset: 0x58AF4, size: 0x8, addend: 0x0, symName: __ZN7DatalogD2Ev, symObjAddr: 0x1F270, symBinAddr: 0x1000228D0, symSize: 0x5C }
  - { offsetInCU: 0x58B20, offset: 0x58B20, size: 0x8, addend: 0x0, symName: __ZNSt3__13setINS_12basic_stringIcNS_11char_traitsIcEENS_9allocatorIcEEEENS_4lessIS6_EENS4_IS6_EEED1B8ue170006Ev, symObjAddr: 0x1F2CC, symBinAddr: 0x10002292C, symSize: 0x2C }
  - { offsetInCU: 0x58B4A, offset: 0x58B4A, size: 0x8, addend: 0x0, symName: __ZNSt3__13setINS_12basic_stringIcNS_11char_traitsIcEENS_9allocatorIcEEEENS_4lessIS6_EENS4_IS6_EEED2B8ue170006Ev, symObjAddr: 0x1F2F8, symBinAddr: 0x100022958, symSize: 0x2C }
  - { offsetInCU: 0x58B74, offset: 0x58B74, size: 0x8, addend: 0x0, symName: __ZN11Interpreter10schemeEvalEv, symObjAddr: 0x1F324, symBinAddr: 0x100022984, symSize: 0x1A0 }
  - { offsetInCU: 0x58BF1, offset: 0x58BF1, size: 0x8, addend: 0x0, symName: __ZN11Interpreter8factEvalEv, symObjAddr: 0x1F4C4, symBinAddr: 0x100022B24, symSize: 0x1EC }
  - { offsetInCU: 0x58C6E, offset: 0x58C6E, size: 0x8, addend: 0x0, symName: __ZN11Interpreter8ruleEvalEv, symObjAddr: 0x1F6B0, symBinAddr: 0x100022D10, symSize: 0x6FC }
  - { offsetInCU: 0x58DCF, offset: 0x58DCF, size: 0x8, addend: 0x0, symName: __ZN11Interpreter9queryEvalE9Predicateb, symObjAddr: 0x1FDAC, symBinAddr: 0x10002340C, symSize: 0x728 }
  - { offsetInCU: 0x58F5B, offset: 0x58F5B, size: 0x8, addend: 0x0, symName: __ZN9Predicate26convertParametersToStringsEv, symObjAddr: 0x204D4, symBinAddr: 0x100023B34, symSize: 0x14C }
  - { offsetInCU: 0x58FD1, offset: 0x58FD1, size: 0x8, addend: 0x0, symName: __ZN6SchemeC1ENSt3__16vectorINS0_12basic_stringIcNS0_11char_traitsIcEENS0_9allocatorIcEEEENS5_IS7_EEEE, symObjAddr: 0x20620, symBinAddr: 0x100023C80, symSize: 0x34 }
  - { offsetInCU: 0x5900A, offset: 0x5900A, size: 0x8, addend: 0x0, symName: __ZN8Database13addToDatabaseE8Relation, symObjAddr: 0x20654, symBinAddr: 0x100023CB4, symSize: 0x98 }
  - { offsetInCU: 0x5903F, offset: 0x5903F, size: 0x8, addend: 0x0, symName: __ZN9Predicate7getNameEv, symObjAddr: 0x206EC, symBinAddr: 0x100023D4C, symSize: 0x38 }
  - { offsetInCU: 0x59065, offset: 0x59065, size: 0x8, addend: 0x0, symName: __ZN8RelationC1ERKNSt3__112basic_stringIcNS0_11char_traitsIcEENS0_9allocatorIcEEEERK6Scheme, symObjAddr: 0x20724, symBinAddr: 0x100023D84, symSize: 0x3C }
  - { offsetInCU: 0x590AB, offset: 0x590AB, size: 0x8, addend: 0x0, symName: __ZNSt3__16vectorINS_12basic_stringIcNS_11char_traitsIcEENS_9allocatorIcEEEENS4_IS6_EEEC1B8ue170006Ev, symObjAddr: 0x20760, symBinAddr: 0x100023DC0, symSize: 0x2C }
  - { offsetInCU: 0x590D5, offset: 0x590D5, size: 0x8, addend: 0x0, symName: __ZNSt3__16vectorINS_12basic_stringIcNS_11char_traitsIcEENS_9allocatorIcEEEENS4_IS6_EEE7reserveEm, symObjAddr: 0x2078C, symBinAddr: 0x100023DEC, symSize: 0xE8 }
  - { offsetInCU: 0x59131, offset: 0x59131, size: 0x8, addend: 0x0, symName: __ZNSt3__16vectorINS_12basic_stringIcNS_11char_traitsIcEENS_9allocatorIcEEEENS4_IS6_EEE9push_backB8ue170006EOS6_, symObjAddr: 0x20874, symBinAddr: 0x100023ED4, symSize: 0x6C }
  - { offsetInCU: 0x59168, offset: 0x59168, size: 0x8, addend: 0x0, symName: __ZNSt3__16vectorINS_12basic_stringIcNS_11char_traitsIcEENS_9allocatorIcEEEENS4_IS6_EEEC2B8ue170006Ev, symObjAddr: 0x208E0, symBinAddr: 0x100023F40, symSize: 0x4C }
  - { offsetInCU: 0x59192, offset: 0x59192, size: 0x8, addend: 0x0, symName: __ZNSt3__117__compressed_pairIPNS_12basic_stringIcNS_11char_traitsIcEENS_9allocatorIcEEEENS4_IS6_EEEC1B8ue170006IDnNS_18__default_init_tagEEEOT_OT0_, symObjAddr: 0x2092C, symBinAddr: 0x100023F8C, symSize: 0x3C }
  - { offsetInCU: 0x591EA, offset: 0x591EA, size: 0x8, addend: 0x0, symName: __ZNSt3__117__compressed_pairIPNS_12basic_stringIcNS_11char_traitsIcEENS_9allocatorIcEEEENS4_IS6_EEEC2B8ue170006IDnNS_18__default_init_tagEEEOT_OT0_, symObjAddr: 0x20968, symBinAddr: 0x100023FC8, symSize: 0x40 }
  - { offsetInCU: 0x59242, offset: 0x59242, size: 0x8, addend: 0x0, symName: __ZNSt3__122__compressed_pair_elemINS_9allocatorINS_12basic_stringIcNS_11char_traitsIcEENS1_IcEEEEEELi1ELb1EEC2B8ue170006ENS_18__default_init_tagE, symObjAddr: 0x209A8, symBinAddr: 0x100024008, symSize: 0x2C }
  - { offsetInCU: 0x59276, offset: 0x59276, size: 0x8, addend: 0x0, symName: __ZNSt3__19allocatorINS_12basic_stringIcNS_11char_traitsIcEENS0_IcEEEEEC2B8ue170006Ev, symObjAddr: 0x209D4, symBinAddr: 0x100024034, symSize: 0x2C }
  - { offsetInCU: 0x592A0, offset: 0x592A0, size: 0x8, addend: 0x0, symName: __ZNSt3__116__non_trivial_ifILb1ENS_9allocatorINS_12basic_stringIcNS_11char_traitsIcEENS1_IcEEEEEEEC2B8ue170006Ev, symObjAddr: 0x20A00, symBinAddr: 0x100024060, symSize: 0x14 }
  - { offsetInCU: 0x592CA, offset: 0x592CA, size: 0x8, addend: 0x0, symName: __ZNSt3__114__split_bufferINS_12basic_stringIcNS_11char_traitsIcEENS_9allocatorIcEEEERNS4_IS6_EEEC1EmmS8_, symObjAddr: 0x20A14, symBinAddr: 0x100024074, symSize: 0x44 }
  - { offsetInCU: 0x59320, offset: 0x59320, size: 0x8, addend: 0x0, symName: __ZNSt3__114__split_bufferINS_12basic_stringIcNS_11char_traitsIcEENS_9allocatorIcEEEERNS4_IS6_EEED1Ev, symObjAddr: 0x20B68, symBinAddr: 0x1000241C8, symSize: 0x2C }
  - { offsetInCU: 0x5934C, offset: 0x5934C, size: 0x8, addend: 0x0, symName: __ZNSt3__114__split_bufferINS_12basic_stringIcNS_11char_traitsIcEENS_9allocatorIcEEEERNS4_IS6_EEEC2EmmS8_, symObjAddr: 0x20B94, symBinAddr: 0x1000241F4, symSize: 0xE0 }
  - { offsetInCU: 0x593BF, offset: 0x593BF, size: 0x8, addend: 0x0, symName: __ZNSt3__117__compressed_pairIPNS_12basic_stringIcNS_11char_traitsIcEENS_9allocatorIcEEEERNS4_IS6_EEEC1B8ue170006IDnS9_EEOT_OT0_, symObjAddr: 0x20C74, symBinAddr: 0x1000242D4, symSize: 0x3C }
  - { offsetInCU: 0x59417, offset: 0x59417, size: 0x8, addend: 0x0, symName: __ZNSt3__114__split_bufferINS_12basic_stringIcNS_11char_traitsIcEENS_9allocatorIcEEEERNS4_IS6_EEE7__allocB8ue170006Ev, symObjAddr: 0x20CB0, symBinAddr: 0x100024310, symSize: 0x28 }
  - { offsetInCU: 0x5943D, offset: 0x5943D, size: 0x8, addend: 0x0, symName: __ZNSt3__114__split_bufferINS_12basic_stringIcNS_11char_traitsIcEENS_9allocatorIcEEEERNS4_IS6_EEE9__end_capB8ue170006Ev, symObjAddr: 0x20CD8, symBinAddr: 0x100024338, symSize: 0x28 }
  - { offsetInCU: 0x59463, offset: 0x59463, size: 0x8, addend: 0x0, symName: __ZNSt3__117__compressed_pairIPNS_12basic_stringIcNS_11char_traitsIcEENS_9allocatorIcEEEERNS4_IS6_EEEC2B8ue170006IDnS9_EEOT_OT0_, symObjAddr: 0x20D00, symBinAddr: 0x100024360, symSize: 0x48 }
  - { offsetInCU: 0x594BB, offset: 0x594BB, size: 0x8, addend: 0x0, symName: __ZNSt3__122__compressed_pair_elemIRNS_9allocatorINS_12basic_stringIcNS_11char_traitsIcEENS1_IcEEEEEELi1ELb0EEC2B8ue170006IS8_vEEOT_, symObjAddr: 0x20D48, symBinAddr: 0x1000243A8, symSize: 0x20 }
  - { offsetInCU: 0x594FD, offset: 0x594FD, size: 0x8, addend: 0x0, symName: __ZNSt3__117__compressed_pairIPNS_12basic_stringIcNS_11char_traitsIcEENS_9allocatorIcEEEERNS4_IS6_EEE6secondB8ue170006Ev, symObjAddr: 0x20D68, symBinAddr: 0x1000243C8, symSize: 0x28 }
  - { offsetInCU: 0x59523, offset: 0x59523, size: 0x8, addend: 0x0, symName: __ZNSt3__122__compressed_pair_elemIRNS_9allocatorINS_12basic_stringIcNS_11char_traitsIcEENS1_IcEEEEEELi1ELb0EE5__getB8ue170006Ev, symObjAddr: 0x20D90, symBinAddr: 0x1000243F0, symSize: 0x18 }
  - { offsetInCU: 0x59549, offset: 0x59549, size: 0x8, addend: 0x0, symName: __ZNSt3__117__compressed_pairIPNS_12basic_stringIcNS_11char_traitsIcEENS_9allocatorIcEEEERNS4_IS6_EEE5firstB8ue170006Ev, symObjAddr: 0x20DA8, symBinAddr: 0x100024408, symSize: 0x24 }
  - { offsetInCU: 0x5956F, offset: 0x5956F, size: 0x8, addend: 0x0, symName: __ZNSt3__129_AllocatorDestroyRangeReverseINS_9allocatorINS_12basic_stringIcNS_11char_traitsIcEENS1_IcEEEEEENS_16reverse_iteratorIPS6_EEEC1B8ue170006ERS7_RSA_SD_, symObjAddr: 0x20F70, symBinAddr: 0x1000245D0, symSize: 0x44 }
  - { offsetInCU: 0x595C6, offset: 0x595C6, size: 0x8, addend: 0x0, symName: __ZNSt3__116allocator_traitsINS_9allocatorINS_12basic_stringIcNS_11char_traitsIcEENS1_IcEEEEEEE9constructB8ue170006IS6_JS6_EvEEvRS7_PT_DpOT0_, symObjAddr: 0x20FB4, symBinAddr: 0x100024614, symSize: 0x34 }
  - { offsetInCU: 0x5961D, offset: 0x5961D, size: 0x8, addend: 0x0, symName: __ZNSt3__128__exception_guard_exceptionsINS_29_AllocatorDestroyRangeReverseINS_9allocatorINS_12basic_stringIcNS_11char_traitsIcEENS2_IcEEEEEENS_16reverse_iteratorIPS7_EEEEE10__completeB8ue170006Ev, symObjAddr: 0x20FE8, symBinAddr: 0x100024648, symSize: 0x1C }
  - { offsetInCU: 0x59643, offset: 0x59643, size: 0x8, addend: 0x0, symName: __ZNSt3__128__exception_guard_exceptionsINS_29_AllocatorDestroyRangeReverseINS_9allocatorINS_12basic_stringIcNS_11char_traitsIcEENS2_IcEEEEEENS_16reverse_iteratorIPS7_EEEEED1B8ue170006Ev, symObjAddr: 0x21004, symBinAddr: 0x100024664, symSize: 0x2C }
  - { offsetInCU: 0x5966D, offset: 0x5966D, size: 0x8, addend: 0x0, symName: __ZNSt3__128__exception_guard_exceptionsINS_29_AllocatorDestroyRangeReverseINS_9allocatorINS_12basic_stringIcNS_11char_traitsIcEENS2_IcEEEEEENS_16reverse_iteratorIPS7_EEEEEC1B8ue170006ESC_, symObjAddr: 0x21030, symBinAddr: 0x100024690, symSize: 0x34 }
  - { offsetInCU: 0x596A6, offset: 0x596A6, size: 0x8, addend: 0x0, symName: __ZNSt3__128__exception_guard_exceptionsINS_29_AllocatorDestroyRangeReverseINS_9allocatorINS_12basic_stringIcNS_11char_traitsIcEENS2_IcEEEEEENS_16reverse_iteratorIPS7_EEEEEC2B8ue170006ESC_, symObjAddr: 0x21064, symBinAddr: 0x1000246C4, symSize: 0x30 }
  - { offsetInCU: 0x596DF, offset: 0x596DF, size: 0x8, addend: 0x0, symName: __ZNSt3__129_AllocatorDestroyRangeReverseINS_9allocatorINS_12basic_stringIcNS_11char_traitsIcEENS1_IcEEEEEENS_16reverse_iteratorIPS6_EEEC2B8ue170006ERS7_RSA_SD_, symObjAddr: 0x21094, symBinAddr: 0x1000246F4, symSize: 0x38 }
  - { offsetInCU: 0x59736, offset: 0x59736, size: 0x8, addend: 0x0, symName: __ZNSt3__19allocatorINS_12basic_stringIcNS_11char_traitsIcEENS0_IcEEEEE9constructB8ue170006IS5_JS5_EEEvPT_DpOT0_, symObjAddr: 0x210CC, symBinAddr: 0x10002472C, symSize: 0x30 }
  - { offsetInCU: 0x5978C, offset: 0x5978C, size: 0x8, addend: 0x0, symName: __ZNSt3__128__exception_guard_exceptionsINS_29_AllocatorDestroyRangeReverseINS_9allocatorINS_12basic_stringIcNS_11char_traitsIcEENS2_IcEEEEEENS_16reverse_iteratorIPS7_EEEEED2B8ue170006Ev, symObjAddr: 0x210FC, symBinAddr: 0x10002475C, symSize: 0x50 }
  - { offsetInCU: 0x597B6, offset: 0x597B6, size: 0x8, addend: 0x0, symName: __ZNKSt3__129_AllocatorDestroyRangeReverseINS_9allocatorINS_12basic_stringIcNS_11char_traitsIcEENS1_IcEEEEEENS_16reverse_iteratorIPS6_EEEclB8ue170006Ev, symObjAddr: 0x2114C, symBinAddr: 0x1000247AC, symSize: 0xB4 }
  - { offsetInCU: 0x597DD, offset: 0x597DD, size: 0x8, addend: 0x0, symName: __ZNSt3__116reverse_iteratorINS0_IPNS_12basic_stringIcNS_11char_traitsIcEENS_9allocatorIcEEEEEEEC1B8ue170006ES8_, symObjAddr: 0x21270, symBinAddr: 0x1000248D0, symSize: 0x3C }
  - { offsetInCU: 0x59815, offset: 0x59815, size: 0x8, addend: 0x0, symName: __ZNSt3__116reverse_iteratorINS0_IPNS_12basic_stringIcNS_11char_traitsIcEENS_9allocatorIcEEEEEEEppB8ue170006Ev, symObjAddr: 0x21330, symBinAddr: 0x100024990, symSize: 0x30 }
  - { offsetInCU: 0x5983B, offset: 0x5983B, size: 0x8, addend: 0x0, symName: __ZNKSt3__116reverse_iteratorINS0_IPNS_12basic_stringIcNS_11char_traitsIcEENS_9allocatorIcEEEEEEE4baseB8ue170006Ev, symObjAddr: 0x21360, symBinAddr: 0x1000249C0, symSize: 0x24 }
  - { offsetInCU: 0x59867, offset: 0x59867, size: 0x8, addend: 0x0, symName: __ZNSt3__119__to_address_helperINS_16reverse_iteratorINS1_IPNS_12basic_stringIcNS_11char_traitsIcEENS_9allocatorIcEEEEEEEEvE6__callB8ue170006ERKSA_, symObjAddr: 0x21384, symBinAddr: 0x1000249E4, symSize: 0x38 }
  - { offsetInCU: 0x5988A, offset: 0x5988A, size: 0x8, addend: 0x0, symName: __ZNKSt3__116reverse_iteratorINS0_IPNS_12basic_stringIcNS_11char_traitsIcEENS_9allocatorIcEEEEEEEptB8ue170006Ev, symObjAddr: 0x213BC, symBinAddr: 0x100024A1C, symSize: 0x24 }
  - { offsetInCU: 0x598B0, offset: 0x598B0, size: 0x8, addend: 0x0, symName: __ZNKSt3__116reverse_iteratorINS0_IPNS_12basic_stringIcNS_11char_traitsIcEENS_9allocatorIcEEEEEEEdeB8ue170006Ev, symObjAddr: 0x213E0, symBinAddr: 0x100024A40, symSize: 0x34 }
  - { offsetInCU: 0x598E4, offset: 0x598E4, size: 0x8, addend: 0x0, symName: __ZNSt3__116reverse_iteratorIPNS_12basic_stringIcNS_11char_traitsIcEENS_9allocatorIcEEEEEmmB8ue170006Ev, symObjAddr: 0x21414, symBinAddr: 0x100024A74, symSize: 0x20 }
  - { offsetInCU: 0x5990A, offset: 0x5990A, size: 0x8, addend: 0x0, symName: __ZNSt3__116reverse_iteratorINS0_IPNS_12basic_stringIcNS_11char_traitsIcEENS_9allocatorIcEEEEEEEC2B8ue170006ES8_, symObjAddr: 0x21434, symBinAddr: 0x100024A94, symSize: 0x2C }
  - { offsetInCU: 0x59942, offset: 0x59942, size: 0x8, addend: 0x0, symName: __ZNSt3__114__split_bufferINS_12basic_stringIcNS_11char_traitsIcEENS_9allocatorIcEEEERNS4_IS6_EEED2Ev, symObjAddr: 0x21460, symBinAddr: 0x100024AC0, symSize: 0x8C }
  - { offsetInCU: 0x5996E, offset: 0x5996E, size: 0x8, addend: 0x0, symName: __ZNSt3__114__split_bufferINS_12basic_stringIcNS_11char_traitsIcEENS_9allocatorIcEEEERNS4_IS6_EEE5clearB8ue170006Ev, symObjAddr: 0x214EC, symBinAddr: 0x100024B4C, symSize: 0x28 }
  - { offsetInCU: 0x59994, offset: 0x59994, size: 0x8, addend: 0x0, symName: __ZNKSt3__114__split_bufferINS_12basic_stringIcNS_11char_traitsIcEENS_9allocatorIcEEEERNS4_IS6_EEE8capacityB8ue170006Ev, symObjAddr: 0x21514, symBinAddr: 0x100024B74, symSize: 0x40 }
  - { offsetInCU: 0x599BA, offset: 0x599BA, size: 0x8, addend: 0x0, symName: __ZNSt3__114__split_bufferINS_12basic_stringIcNS_11char_traitsIcEENS_9allocatorIcEEEERNS4_IS6_EEE17__destruct_at_endB8ue170006EPS6_, symObjAddr: 0x21554, symBinAddr: 0x100024BB4, symSize: 0x2C }
  - { offsetInCU: 0x599EE, offset: 0x599EE, size: 0x8, addend: 0x0, symName: __ZNSt3__114__split_bufferINS_12basic_stringIcNS_11char_traitsIcEENS_9allocatorIcEEEERNS4_IS6_EEE17__destruct_at_endB8ue170006EPS6_NS_17integral_constantIbLb0EEE, symObjAddr: 0x21580, symBinAddr: 0x100024BE0, symSize: 0x80 }
  - { offsetInCU: 0x59A2E, offset: 0x59A2E, size: 0x8, addend: 0x0, symName: __ZNKSt3__114__split_bufferINS_12basic_stringIcNS_11char_traitsIcEENS_9allocatorIcEEEERNS4_IS6_EEE9__end_capB8ue170006Ev, symObjAddr: 0x21600, symBinAddr: 0x100024C60, symSize: 0x28 }
  - { offsetInCU: 0x59A54, offset: 0x59A54, size: 0x8, addend: 0x0, symName: __ZNKSt3__117__compressed_pairIPNS_12basic_stringIcNS_11char_traitsIcEENS_9allocatorIcEEEERNS4_IS6_EEE5firstB8ue170006Ev, symObjAddr: 0x21628, symBinAddr: 0x100024C88, symSize: 0x24 }
  - { offsetInCU: 0x59A7A, offset: 0x59A7A, size: 0x8, addend: 0x0, symName: __ZNSt3__16vectorINS_12basic_stringIcNS_11char_traitsIcEENS_9allocatorIcEEEENS4_IS6_EEE22__construct_one_at_endB8ue170006IJS6_EEEvDpOT_, symObjAddr: 0x2164C, symBinAddr: 0x100024CAC, symSize: 0x90 }
  - { offsetInCU: 0x59AC9, offset: 0x59AC9, size: 0x8, addend: 0x0, symName: __ZNSt3__16vectorINS_12basic_stringIcNS_11char_traitsIcEENS_9allocatorIcEEEENS4_IS6_EEE21__push_back_slow_pathIS6_EEvOT_, symObjAddr: 0x216DC, symBinAddr: 0x100024D3C, symSize: 0xD8 }
  - { offsetInCU: 0x59B27, offset: 0x59B27, size: 0x8, addend: 0x0, symName: __ZNKSt3__16vectorINS_12basic_stringIcNS_11char_traitsIcEENS_9allocatorIcEEEENS4_IS6_EEE11__recommendB8ue170006Em, symObjAddr: 0x217B4, symBinAddr: 0x100024E14, symSize: 0xB4 }
  - { offsetInCU: 0x59B7C, offset: 0x59B7C, size: 0x8, addend: 0x0, symName: __ZN6SchemeC2ENSt3__16vectorINS0_12basic_stringIcNS0_11char_traitsIcEENS0_9allocatorIcEEEENS5_IS7_EEEE, symObjAddr: 0x21868, symBinAddr: 0x100024EC8, symSize: 0x34 }
  - { offsetInCU: 0x59BB5, offset: 0x59BB5, size: 0x8, addend: 0x0, symName: __ZNSt3__16vectorINS_12basic_stringIcNS_11char_traitsIcEENS_9allocatorIcEEEENS4_IS6_EEEC2B8ue170006EOS8_, symObjAddr: 0x2189C, symBinAddr: 0x100024EFC, symSize: 0xC4 }
  - { offsetInCU: 0x59BF0, offset: 0x59BF0, size: 0x8, addend: 0x0, symName: __ZNSt3__113unordered_mapINS_12basic_stringIcNS_11char_traitsIcEENS_9allocatorIcEEEE8RelationNS_4hashIS6_EENS_8equal_toIS6_EENS4_INS_4pairIKS6_S7_EEEEE16insert_or_assignB8ue170006IRS7_EENSC_INS_19__hash_map_iteratorINS_15__hash_iteratorIPNS_11__hash_nodeINS_17__hash_value_typeIS6_S7_EEPvEEEEEEbEEOS6_OT_, symObjAddr: 0x21960, symBinAddr: 0x100024FC0, symSize: 0x84 }
  - { offsetInCU: 0x59C4C, offset: 0x59C4C, size: 0x8, addend: 0x0, symName: __ZN8Relation7getNameEv, symObjAddr: 0x219E4, symBinAddr: 0x100025044, symSize: 0x38 }
  - { offsetInCU: 0x59C72, offset: 0x59C72, size: 0x8, addend: 0x0, symName: __ZNSt3__112__hash_tableINS_17__hash_value_typeINS_12basic_stringIcNS_11char_traitsIcEENS_9allocatorIcEEEE8RelationEENS_22__unordered_map_hasherIS7_S9_NS_4hashIS7_EENS_8equal_toIS7_EELb1EEENS_21__unordered_map_equalIS7_S9_SE_SC_Lb1EEENS5_IS9_EEE25__emplace_unique_key_argsIS7_JS7_RS8_EEENS_4pairINS_15__hash_iteratorIPNS_11__hash_nodeIS9_PvEEEEbEERKT_DpOT0_, symObjAddr: 0x21A1C, symBinAddr: 0x10002507C, symSize: 0x4A8 }
  - { offsetInCU: 0x59D67, offset: 0x59D67, size: 0x8, addend: 0x0, symName: __ZNSt3__14pairINS_19__hash_map_iteratorINS_15__hash_iteratorIPNS_11__hash_nodeINS_17__hash_value_typeINS_12basic_stringIcNS_11char_traitsIcEENS_9allocatorIcEEEE8RelationEEPvEEEEEEbEC1B8ue170006ISG_bLSD_0EEEONS0_IT_T0_EE, symObjAddr: 0x21EC4, symBinAddr: 0x100025524, symSize: 0x34 }
  - { offsetInCU: 0x59DB8, offset: 0x59DB8, size: 0x8, addend: 0x0, symName: __ZNKSt3__119__hash_map_iteratorINS_15__hash_iteratorIPNS_11__hash_nodeINS_17__hash_value_typeINS_12basic_stringIcNS_11char_traitsIcEENS_9allocatorIcEEEE8RelationEEPvEEEEEptB8ue170006Ev, symObjAddr: 0x21EF8, symBinAddr: 0x100025558, symSize: 0x2C }
  - { offsetInCU: 0x59DDE, offset: 0x59DDE, size: 0x8, addend: 0x0, symName: __ZN8RelationaSERKS_, symObjAddr: 0x21F24, symBinAddr: 0x100025584, symSize: 0x5C }
  - { offsetInCU: 0x59E0F, offset: 0x59E0F, size: 0x8, addend: 0x0, symName: __ZNSt3__112__hash_tableINS_17__hash_value_typeINS_12basic_stringIcNS_11char_traitsIcEENS_9allocatorIcEEEE8RelationEENS_22__unordered_map_hasherIS7_S9_NS_4hashIS7_EENS_8equal_toIS7_EELb1EEENS_21__unordered_map_equalIS7_S9_SE_SC_Lb1EEENS5_IS9_EEE21__construct_node_hashIS7_JRS8_EEENS_10unique_ptrINS_11__hash_nodeIS9_PvEENS_22__hash_node_destructorINS5_ISP_EEEEEEmOT_DpOT0_, symObjAddr: 0x21F80, symBinAddr: 0x1000255E0, symSize: 0x148 }
  - { offsetInCU: 0x59E97, offset: 0x59E97, size: 0x8, addend: 0x0, symName: __ZNSt3__116allocator_traitsINS_9allocatorINS_11__hash_nodeINS_17__hash_value_typeINS_12basic_stringIcNS_11char_traitsIcEENS1_IcEEEE8RelationEEPvEEEEE9constructB8ue170006INS_4pairIKS8_S9_EEJS8_RS9_EvEEvRSD_PT_DpOT0_, symObjAddr: 0x220C8, symBinAddr: 0x100025728, symSize: 0x3C }
  - { offsetInCU: 0x59F02, offset: 0x59F02, size: 0x8, addend: 0x0, symName: __ZNSt3__19allocatorINS_11__hash_nodeINS_17__hash_value_typeINS_12basic_stringIcNS_11char_traitsIcEENS0_IcEEEE8RelationEEPvEEE9constructB8ue170006INS_4pairIKS7_S8_EEJS7_RS8_EEEvPT_DpOT0_, symObjAddr: 0x22104, symBinAddr: 0x100025764, symSize: 0x38 }
  - { offsetInCU: 0x59F6B, offset: 0x59F6B, size: 0x8, addend: 0x0, symName: __ZNSt3__14pairIKNS_12basic_stringIcNS_11char_traitsIcEENS_9allocatorIcEEEE8RelationEC1B8ue170006IS6_RS8_LPv0EEEOT_OT0_, symObjAddr: 0x2213C, symBinAddr: 0x10002579C, symSize: 0x3C }
  - { offsetInCU: 0x59FC9, offset: 0x59FC9, size: 0x8, addend: 0x0, symName: __ZNSt3__14pairIKNS_12basic_stringIcNS_11char_traitsIcEENS_9allocatorIcEEEE8RelationEC2B8ue170006IS6_RS8_LPv0EEEOT_OT0_, symObjAddr: 0x22178, symBinAddr: 0x1000257D8, symSize: 0x70 }
  - { offsetInCU: 0x5A027, offset: 0x5A027, size: 0x8, addend: 0x0, symName: __ZNSt3__14pairINS_19__hash_map_iteratorINS_15__hash_iteratorIPNS_11__hash_nodeINS_17__hash_value_typeINS_12basic_stringIcNS_11char_traitsIcEENS_9allocatorIcEEEE8RelationEEPvEEEEEEbEC2B8ue170006ISG_bLSD_0EEEONS0_IT_T0_EE, symObjAddr: 0x221E8, symBinAddr: 0x100025848, symSize: 0x50 }
  - { offsetInCU: 0x5A078, offset: 0x5A078, size: 0x8, addend: 0x0, symName: __ZNSt3__119__hash_map_iteratorINS_15__hash_iteratorIPNS_11__hash_nodeINS_17__hash_value_typeINS_12basic_stringIcNS_11char_traitsIcEENS_9allocatorIcEEEE8RelationEEPvEEEEEC1B8ue170006ESF_, symObjAddr: 0x22238, symBinAddr: 0x100025898, symSize: 0x34 }
  - { offsetInCU: 0x5A0B1, offset: 0x5A0B1, size: 0x8, addend: 0x0, symName: __ZNSt3__119__hash_map_iteratorINS_15__hash_iteratorIPNS_11__hash_nodeINS_17__hash_value_typeINS_12basic_stringIcNS_11char_traitsIcEENS_9allocatorIcEEEE8RelationEEPvEEEEEC2B8ue170006ESF_, symObjAddr: 0x2226C, symBinAddr: 0x1000258CC, symSize: 0x20 }
  - { offsetInCU: 0x5A0EA, offset: 0x5A0EA, size: 0x8, addend: 0x0, symName: __ZNSt3__114pointer_traitsIPNS_4pairIKNS_12basic_stringIcNS_11char_traitsIcEENS_9allocatorIcEEEE8RelationEEE10pointer_toB8ue170006ERSA_, symObjAddr: 0x2228C, symBinAddr: 0x1000258EC, symSize: 0x14 }
  - { offsetInCU: 0x5A10D, offset: 0x5A10D, size: 0x8, addend: 0x0, symName: __ZNKSt3__115__hash_iteratorIPNS_11__hash_nodeINS_17__hash_value_typeINS_12basic_stringIcNS_11char_traitsIcEENS_9allocatorIcEEEE8RelationEEPvEEEptB8ue170006Ev, symObjAddr: 0x222A0, symBinAddr: 0x100025900, symSize: 0x30 }
  - { offsetInCU: 0x5A133, offset: 0x5A133, size: 0x8, addend: 0x0, symName: __ZNSt3__114pointer_traitsIPNS_17__hash_value_typeINS_12basic_stringIcNS_11char_traitsIcEENS_9allocatorIcEEEE8RelationEEE10pointer_toB8ue170006ERS9_, symObjAddr: 0x222D0, symBinAddr: 0x100025930, symSize: 0x14 }
  - { offsetInCU: 0x5A156, offset: 0x5A156, size: 0x8, addend: 0x0, symName: __ZNSt3__13setI5TupleNS_4lessIS1_EENS_9allocatorIS1_EEEaSB8ue170006ERKS6_, symObjAddr: 0x222E4, symBinAddr: 0x100025944, symSize: 0x34 }
  - { offsetInCU: 0x5A191, offset: 0x5A191, size: 0x8, addend: 0x0, symName: __ZN6SchemeaSERKS_, symObjAddr: 0x22318, symBinAddr: 0x100025978, symSize: 0x34 }
  - { offsetInCU: 0x5A1C2, offset: 0x5A1C2, size: 0x8, addend: 0x0, symName: __ZNSt3__16__treeI5TupleNS_4lessIS1_EENS_9allocatorIS1_EEEaSERKS6_, symObjAddr: 0x2234C, symBinAddr: 0x1000259AC, symSize: 0x8C }
  - { offsetInCU: 0x5A1F9, offset: 0x5A1F9, size: 0x8, addend: 0x0, symName: __ZNSt3__16__treeI5TupleNS_4lessIS1_EENS_9allocatorIS1_EEE19__copy_assign_allocB8ue170006ERKS6_, symObjAddr: 0x223D8, symBinAddr: 0x100025A38, symSize: 0x2C }
  - { offsetInCU: 0x5A22E, offset: 0x5A22E, size: 0x8, addend: 0x0, symName: __ZNSt3__16__treeI5TupleNS_4lessIS1_EENS_9allocatorIS1_EEE14__assign_multiINS_21__tree_const_iteratorIS1_PNS_11__tree_nodeIS1_PvEElEEEEvT_SE_, symObjAddr: 0x22404, symBinAddr: 0x100025A64, symSize: 0x170 }
  - { offsetInCU: 0x5A292, offset: 0x5A292, size: 0x8, addend: 0x0, symName: __ZNSt3__16__treeI5TupleNS_4lessIS1_EENS_9allocatorIS1_EEE19__copy_assign_allocB8ue170006ERKS6_NS_17integral_constantIbLb0EEE, symObjAddr: 0x22574, symBinAddr: 0x100025BD4, symSize: 0x14 }
  - { offsetInCU: 0x5A2F3, offset: 0x5A2F3, size: 0x8, addend: 0x0, symName: __ZNSt3__16__treeI5TupleNS_4lessIS1_EENS_9allocatorIS1_EEE18_DetachedTreeCacheC1B8ue170006EPS6_, symObjAddr: 0x22588, symBinAddr: 0x100025BE8, symSize: 0x34 }
  - { offsetInCU: 0x5A32C, offset: 0x5A32C, size: 0x8, addend: 0x0, symName: __ZNKSt3__16__treeI5TupleNS_4lessIS1_EENS_9allocatorIS1_EEE18_DetachedTreeCache5__getB8ue170006Ev, symObjAddr: 0x225BC, symBinAddr: 0x100025C1C, symSize: 0x18 }
  - { offsetInCU: 0x5A352, offset: 0x5A352, size: 0x8, addend: 0x0, symName: __ZN5TupleaSERKS_, symObjAddr: 0x225D4, symBinAddr: 0x100025C34, symSize: 0x34 }
  - { offsetInCU: 0x5A383, offset: 0x5A383, size: 0x8, addend: 0x0, symName: __ZNSt3__16__treeI5TupleNS_4lessIS1_EENS_9allocatorIS1_EEE19__node_insert_multiEPNS_11__tree_nodeIS1_PvEE, symObjAddr: 0x22608, symBinAddr: 0x100025C68, symSize: 0x70 }
